ccopy_reg
_reconstructor
p0
(cstrictdoc.core.file_dependency_manager
FileDependencyManager
p1
c__builtin__
object
p2
Ntp3
Rp4
(dp5
Vpath_to_cache_dir
p6
V/home/rusbeh_ab/project/RAGstream/doc/01-Requirements/strictdoc-html/_cache/0.25.0
p7
sVpath_to_cache
p8
V/home/rusbeh_ab/project/RAGstream/doc/01-Requirements/strictdoc-html/_cache/0.25.0/dependencies
p9
sVdependencies_now
p10
(dp11
V/home/rusbeh_ab/project/RAGstream/doc/01-Requirements/strictdoc/00_ghost_srs.sdoc
p12
c__builtin__
set
p13
((lp14
V/home/rusbeh_ab/project/RAGstream/doc/01-Requirements/strictdoc-html/html/strictdoc/00_ghost_srs.html
p15
atp16
Rp17
sV/home/rusbeh_ab/project/RAGstream/doc/01-Requirements/strictdoc/10_prompt_orchestration.sdoc
p18
g13
((lp19
V/home/rusbeh_ab/project/RAGstream/doc/01-Requirements/strictdoc-html/html/strictdoc/10_prompt_orchestration.html
p20
atp21
Rp22
sV/home/rusbeh_ab/project/RAGstream/doc/01-Requirements/strictdoc/20_agent_stack.sdoc
p23
g13
((lp24
V/home/rusbeh_ab/project/RAGstream/doc/01-Requirements/strictdoc-html/html/strictdoc/20_agent_stack.html
p25
atp26
Rp27
sV/home/rusbeh_ab/project/RAGstream/doc/01-Requirements/strictdoc/30_document_knowledge.sdoc
p28
g13
((lp29
V/home/rusbeh_ab/project/RAGstream/doc/01-Requirements/strictdoc-html/html/strictdoc/30_document_knowledge.html
p30
atp31
Rp32
sV/home/rusbeh_ab/project/RAGstream/doc/01-Requirements/strictdoc/31_document_ingestion.sdoc
p33
g13
((lp34
V/home/rusbeh_ab/project/RAGstream/doc/01-Requirements/strictdoc-html/html/strictdoc/31_document_ingestion.html
p35
atp36
Rp37
sV/home/rusbeh_ab/project/RAGstream/doc/01-Requirements/strictdoc/32_document_retrieval.sdoc
p38
g13
((lp39
V/home/rusbeh_ab/project/RAGstream/doc/01-Requirements/strictdoc-html/html/strictdoc/32_document_retrieval.html
p40
atp41
Rp42
sV/home/rusbeh_ab/project/RAGstream/doc/01-Requirements/strictdoc/33_evidence_selection_and_condensation.sdoc
p43
g13
((lp44
V/home/rusbeh_ab/project/RAGstream/doc/01-Requirements/strictdoc-html/html/strictdoc/33_evidence_selection_and_condensation.html
p45
atp46
Rp47
sV/home/rusbeh_ab/project/RAGstream/doc/01-Requirements/strictdoc/40_memory_system.sdoc
p48
g13
((lp49
V/home/rusbeh_ab/project/RAGstream/doc/01-Requirements/strictdoc-html/html/strictdoc/40_memory_system.html
p50
atp51
Rp52
sV/home/rusbeh_ab/project/RAGstream/doc/01-Requirements/strictdoc/41_memory_recording.sdoc
p53
g13
((lp54
V/home/rusbeh_ab/project/RAGstream/doc/01-Requirements/strictdoc-html/html/strictdoc/41_memory_recording.html
p55
atp56
Rp57
sV/home/rusbeh_ab/project/RAGstream/doc/01-Requirements/strictdoc/42_memory_ingestion.sdoc
p58
g13
((lp59
V/home/rusbeh_ab/project/RAGstream/doc/01-Requirements/strictdoc-html/html/strictdoc/42_memory_ingestion.html
p60
atp61
Rp62
sV/home/rusbeh_ab/project/RAGstream/doc/01-Requirements/strictdoc/43_memory_retrieval.sdoc
p63
g13
((lp64
V/home/rusbeh_ab/project/RAGstream/doc/01-Requirements/strictdoc-html/html/strictdoc/43_memory_retrieval.html
p65
atp66
Rp67
sV/home/rusbeh_ab/project/RAGstream/doc/01-Requirements/strictdoc/44_memory_merge_and_activebrief.sdoc
p68
g13
((lp69
V/home/rusbeh_ab/project/RAGstream/doc/01-Requirements/strictdoc-html/html/strictdoc/44_memory_merge_and_activebrief.html
p70
atp71
Rp72
sV/home/rusbeh_ab/project/RAGstream/doc/01-Requirements/strictdoc/45_memory_files_and_import.sdoc
p73
g13
((lp74
V/home/rusbeh_ab/project/RAGstream/doc/01-Requirements/strictdoc-html/html/strictdoc/45_memory_files_and_import.html
p75
atp76
Rp77
sV/home/rusbeh_ab/project/RAGstream/doc/01-Requirements/strictdoc/50_gui_workbench.sdoc
p78
g13
((lp79
V/home/rusbeh_ab/project/RAGstream/doc/01-Requirements/strictdoc-html/html/strictdoc/50_gui_workbench.html
p80
atp81
Rp82
sV/home/rusbeh_ab/project/RAGstream/doc/01-Requirements/strictdoc/60_runtime_operations.sdoc
p83
g13
((lp84
V/home/rusbeh_ab/project/RAGstream/doc/01-Requirements/strictdoc-html/html/strictdoc/60_runtime_operations.html
p85
atp86
Rp87
sV/home/rusbeh_ab/project/RAGstream/doc/01-Requirements/strictdoc/70_quality_governance.sdoc
p88
g13
((lp89
V/home/rusbeh_ab/project/RAGstream/doc/01-Requirements/strictdoc-html/html/strictdoc/70_quality_governance.html
p90
atp91
Rp92
sV/home/rusbeh_ab/project/RAGstream/doc/01-Requirements/strictdoc/80_requirement_traceability_direction.sdoc
p93
g13
((lp94
V/home/rusbeh_ab/project/RAGstream/doc/01-Requirements/strictdoc-html/html/strictdoc/80_requirement_traceability_direction.html
p95
atp96
Rp97
sV/home/rusbeh_ab/project/RAGstream/doc/01-Requirements/strictdoc/90_future_vision_backlog.sdoc
p98
g13
((lp99
V/home/rusbeh_ab/project/RAGstream/doc/01-Requirements/strictdoc-html/html/strictdoc/90_future_vision_backlog.html
p100
atp101
Rp102
ssVdependencies_prev
p103
(dp104
g12
g13
((lp105
g15
atp106
Rp107
sg18
g13
((lp108
g20
atp109
Rp110
sg23
g13
((lp111
g25
atp112
Rp113
sg28
g13
((lp114
g30
atp115
Rp116
sg33
g13
((lp117
g35
atp118
Rp119
sg38
g13
((lp120
g40
atp121
Rp122
sg43
g13
((lp123
g45
atp124
Rp125
sg48
g13
((lp126
g50
atp127
Rp128
sg53
g13
((lp129
g55
atp130
Rp131
sg58
g13
((lp132
g60
atp133
Rp134
sg63
g13
((lp135
g65
atp136
Rp137
sg68
g13
((lp138
g70
atp139
Rp140
sg73
g13
((lp141
g75
atp142
Rp143
sg78
g13
((lp144
g80
atp145
Rp146
sg83
g13
((lp147
g85
atp148
Rp149
sg88
g13
((lp150
g90
atp151
Rp152
sg93
g13
((lp153
g95
atp154
Rp155
sg98
g13
((lp156
g100
atp157
Rp158
ssVdependencies_must_renegerate
p159
g13
((lp160
g100
ag75
ag80
ag40
ag15
ag45
ag25
ag60
ag90
ag30
ag95
ag85
ag70
ag20
ag55
ag50
ag35
ag65
atp161
Rp162
sb.