ccopy_reg
_reconstructor
p0
(cstrictdoc.backend.sdoc.models.document
SDocDocument
p1
c__builtin__
object
p2
Ntp3
Rp4
(dp5
Vmid
p6
NsVtitle
p7
VPrompt Orchestration Requirements
p8
sVconfig
p9
g0
(cstrictdoc.backend.sdoc.models.document_config
DocumentConfig
p10
g2
Ntp11
Rp12
(dp13
Vuid
p14
VGHOST-REQ-PROMPT-ORCHESTRATION
p15
sVversion
p16
V0.1-dummy
p17
sVdate
p18
NsVclassification
p19
NsVrequirement_prefix
p20
NsVroot
p21
NsVenable_mid
p22
NsVrelation_field
p23
NsVmarkup
p24
VText
p25
sVauto_levels
p26
I01
sVlayout
p27
NsVview_style_tag
p28
V
p29
sVrequirement_style
p30
NsVnode_in_toc_tag
p31
VNODE_IN_TOC
p32
sVrequirement_in_toc
p33
VTrue
p34
sVdefault_view
p35
NsVcustom_metadata
p36
NsV_tx_position
p37
I52
sV_tx_position_end
p38
I169
sVparent
p39
g4
sVng_auto_levels_specified
p40
I01
sVng_line_start
p41
I3
sVng_col_start
p42
I1
sbsVview
p43
g0
(cstrictdoc.backend.sdoc.models.document_view
DocumentView
p44
g2
Ntp45
Rp46
(dp47
g39
g4
sVviews
p48
(lp49
g0
(cstrictdoc.backend.sdoc.models.document_view
DefaultViewElement
p50
g2
Ntp51
Rp52
(dp53
g39
g46
sVview_id
p54
VNOT_RELEVANT
p55
sVtags
p56
(lp57
sVhidden_tags
p58
(lp59
sVname
p60
Nsbasg41
I29
sg42
I793
sbsVgrammar
p61
g0
(cstrictdoc.backend.sdoc.models.document_grammar
DocumentGrammar
p62
g2
Ntp63
Rp64
(dp65
g39
g4
sVelements
p66
(lp67
g0
(cstrictdoc.backend.sdoc.models.grammar_element
GrammarElement
p68
g2
Ntp69
Rp70
(dp71
g39
g64
sVtag
p72
VSECTION
p73
sVproperty_is_composite
p74
I01
sVproperty_prefix
p75
NsVproperty_view_style
p76
NsVproperty_view_style_lower
p77
NsVfields
p78
(lp79
g0
(cstrictdoc.backend.sdoc.models.grammar_element
GrammarElementFieldString
p80
g2
Ntp81
Rp82
(dp83
g7
VUID
p84
sVhuman_title
p85
NsVgef_type
p86
VString
p87
sVrequired
p88
I00
sg6
g0
(cstrictdoc.helpers.mid
MID
p89
c__builtin__
unicode
p90
Va0a971a6935e4ebda6e8c2bce7ebe580
p91
tp92
Rp93
sg39
Nsbag0
(g80
g2
Ntp94
Rp95
(dp96
g7
VLEVEL
p97
sg85
Nsg86
g87
sg88
I00
sg6
g0
(g89
g90
Vce4a2a32dbcf4da597f1aec9884b9444
p98
tp99
Rp100
sg39
Nsbag0
(g80
g2
Ntp101
Rp102
(dp103
g7
VPREFIX
p104
sg85
Nsg86
g87
sg88
I00
sg6
g0
(g89
g90
V248e27f68ea44106990f31ef84d7d91b
p105
tp106
Rp107
sg39
Nsbag0
(g80
g2
Ntp108
Rp109
(dp110
g7
VTITLE
p111
sg85
Nsg86
g87
sg88
I01
sg6
g0
(g89
g90
V8aa053d9aa2a400589c90002b871cf6c
p112
tp113
Rp114
sg39
NsbasVrelations
p115
(lp116
sVfields_map
p117
ccollections
OrderedDict
p118
(tRp119
g84
g82
sg97
g95
sg104
g102
sg111
g109
ssVfield_titles
p120
(lp121
g84
ag97
ag104
ag111
asVcontent_field
p122
(g29
I-1
tp123
sV_multiline_field_index
p124
I4
sg6
g0
(g89
g90
V4a235cc4f8534bada7734913909e87c3
p125
tp126
Rp127
sg41
Nsg42
Nsbag0
(g68
g2
Ntp128
Rp129
(dp130
g39
g64
sg72
VTEXT
p131
sg74
Nsg75
Nsg76
Nsg77
Nsg78
(lp132
g0
(g80
g2
Ntp133
Rp134
(dp135
g7
g84
sg85
Nsg86
g87
sg88
I00
sg6
g0
(g89
g90
V2f2fb1ea5a3343afac2014b4fd969104
p136
tp137
Rp138
sg39
Nsbag0
(g80
g2
Ntp139
Rp140
(dp141
g7
VSTATEMENT
p142
sg85
Nsg86
g87
sg88
I01
sg6
g0
(g89
g90
Vc557dc55b97b466ab36325e8749e9727
p143
tp144
Rp145
sg39
Nsbasg115
(lp146
sg117
g118
(tRp147
g84
g134
sg142
g140
ssg120
(lp148
g84
ag142
asg122
(g142
I1
tp149
sg124
I1
sg6
g0
(g89
g90
Va3c07d32d170478ea6df626d27e40e14
p150
tp151
Rp152
sg41
Nsg42
Nsbag0
(g68
g2
Ntp153
Rp154
(dp155
g39
g64
sg72
VREQUIREMENT
p156
sg74
Nsg75
Nsg76
Nsg77
Nsg78
(lp157
g0
(g80
g2
Ntp158
Rp159
(dp160
g7
g84
sg85
Nsg86
g87
sg88
I00
sg6
g0
(g89
g90
V0203c68378314057932e7e5a1b844ac0
p161
tp162
Rp163
sg39
Nsbag0
(g80
g2
Ntp164
Rp165
(dp166
g7
g97
sg85
Nsg86
g87
sg88
I00
sg6
g0
(g89
g90
Vd15cce5c89724d1fb50aa643148ed884
p167
tp168
Rp169
sg39
Nsbag0
(g80
g2
Ntp170
Rp171
(dp172
g7
VSTATUS
p173
sg85
Nsg86
g87
sg88
I00
sg6
g0
(g89
g90
V04f2ba3b9718407eb53622e87601fdb1
p174
tp175
Rp176
sg39
Nsbag0
(g80
g2
Ntp177
Rp178
(dp179
g7
VTAGS
p180
sg85
Nsg86
g87
sg88
I00
sg6
g0
(g89
g90
V460685ad26c74c12bde1f4c60c687753
p181
tp182
Rp183
sg39
Nsbag0
(g80
g2
Ntp184
Rp185
(dp186
g7
g111
sg85
Nsg86
g87
sg88
I00
sg6
g0
(g89
g90
V0eb59aa57b4143d0974dcf73b8e922d7
p187
tp188
Rp189
sg39
Nsbag0
(g80
g2
Ntp190
Rp191
(dp192
g7
g142
sg85
Nsg86
g87
sg88
I00
sg6
g0
(g89
g90
Vcd18869c512f443daac00527ea5aad1a
p193
tp194
Rp195
sg39
Nsbag0
(g80
g2
Ntp196
Rp197
(dp198
g7
VRATIONALE
p199
sg85
Nsg86
g87
sg88
I00
sg6
g0
(g89
g90
V3664aac86eb840b1a1f5e5d73ab83524
p200
tp201
Rp202
sg39
Nsbag0
(g80
g2
Ntp203
Rp204
(dp205
g7
VCOMMENT
p206
sg85
Nsg86
g87
sg88
I00
sg6
g0
(g89
g90
V9308fb1dc8b1407db997e0b749f725e5
p207
tp208
Rp209
sg39
Nsbasg115
(lp210
g0
(cstrictdoc.backend.sdoc.models.grammar_element
GrammarElementRelationParent
p211
g2
Ntp212
Rp213
(dp214
g39
g154
sVrelation_type
p215
VParent
p216
sVrelation_role
p217
NsVreverse_relation_role
p218
Nsg6
g0
(g89
g90
V23ad33d476c14d61806502c4231ec068
p219
tp220
Rp221
sbag0
(cstrictdoc.backend.sdoc.models.grammar_element
GrammarElementRelationFile
p222
g2
Ntp223
Rp224
(dp225
g39
g154
sg215
VFile
p226
sg217
Nsg218
Nsg6
g0
(g89
g90
V157f5250e5be4c118dc485d22f2ae503
p227
tp228
Rp229
sbasg117
g118
(tRp230
g84
g159
sg97
g165
sg173
g171
sg180
g178
sg111
g185
sg142
g191
sg199
g197
sg206
g204
ssg120
(lp231
g84
ag97
ag173
ag180
ag111
ag142
ag199
ag206
asg122
(g142
I5
tp232
sg124
I5
sg6
g0
(g89
g90
V87441ef890b64377a023c47f0b1cbd06
p233
tp234
Rp235
sg41
Nsg42
NsbasVregistered_elements
p236
c__builtin__
set
p237
((lp238
g73
ag156
ag131
atp239
Rp240
sVelements_by_type
p241
(dp242
g73
g70
sg131
g129
sg156
g154
ssVimport_from_file
p243
NsVis_default
p244
I01
sg41
Nsg42
NsbsVsection_contents
p245
(lp246
g0
(cstrictdoc.backend.sdoc.models.node
SDocCompositeNode
p247
g2
Ntp248
Rp249
(dp250
Vnode_type
p251
VSECTION
p252
sg78
(lp253
g0
(cstrictdoc.backend.sdoc.models.node
SDocNodeField
p254
g2
Ntp255
Rp256
(dp257
Vfield_name
p258
VTITLE
p259
sVparts
p260
(lp261
VPlaceholder
p262
asVmultiline__
p263
g29
sg37
I182
sg38
I201
sg39
g249
sVmultiline
p264
I00
sVorigin
p265
cstrictdoc.backend.sdoc.models.node
SDocNodeFieldOrigin
p266
(VDOCUMENT
p267
tp268
Rp269
sbasg115
(lp270
sg245
(lp271
g0
(cstrictdoc.backend.sdoc.models.node
SDocNode
p272
g2
Ntp273
Rp274
(dp275
g251
VTEXT
p276
sg78
(lp277
g0
(g254
g2
Ntp278
Rp279
(dp280
g258
VSTATEMENT
p281
sg260
(lp282
VThis is a placeholder child requirements document for GHOST prompt orchestration.\u000a\u000aPlanned scope:\u000a- A0 preprocessing\u000a- A2 PromptShaper\u000a- SuperPrompt mutation\u000a- SuperPromptProjector rendering\u000a- A5 reserved direction\u000a- final Prompt Builder and send-boundary gap\u000a\u000aDetailed atomic requirements shall be added later after human approval.\u000a
p283
asg263
V>>>\u000a
p284
sg37
I209
sg38
I561
sg39
g274
sg264
I01
sg265
g269
sbasg115
(lp285
sg37
I202
sg38
I561
sg39
g249
sVis_composite
p286
I00
sg245
(lp287
sVhas_meta
p288
I00
sVfields_as_parsed
p289
g277
sVordered_fields_lookup
p290
g118
(tRp291
g281
(lp292
g279
assVng_document_reference
p293
g0
(cstrictdoc.backend.sdoc.document_reference
DocumentReference
p294
g2
Ntp295
Rp296
(dp297
V_document
p298
g4
sbsVng_including_document_reference
p299
g0
(g294
g2
Ntp300
Rp301
(dp302
g298
Nsbsg41
I13
sVng_line_end
p303
I27
sg42
I1
sVng_col_end
p304
I1
sVng_byte_start
p305
I202
sVng_byte_end
p306
I561
sVcontext
p307
g0
(cstrictdoc.backend.sdoc.models.node
SDocNodeContext
p308
g2
Ntp309
Rp310
(dp311
Vtitle_number_string
p312
g29
sVng_level
p313
I2
sbsVreserved_mid
p314
g0
(g89
g90
V08205acab4fc4335b04c50e6117c8ca7
p315
tp316
Rp317
sVmid_permanent
p318
I00
sVng_resolved_custom_level
p319
VNone
p320
sVcustom_level
p321
NsVng_has_requirements
p322
I00
sVautogen
p323
I00
sbasVnode_type_close
p324
VSECTION
p325
sg37
I170
sg38
I575
sg39
g4
sg286
I01
sg288
I00
sg289
g253
sg290
g118
(tRp326
g259
(lp327
g256
assg293
g296
sg299
g301
sg41
I10
sg303
I29
sg42
I1
sg304
I1
sg305
I170
sg306
I575
sg307
g0
(g308
g2
Ntp328
Rp329
(dp330
g312
V1
p331
sg313
I1
sbsg314
g0
(g89
g90
Vf5a7d732d85f4688912fada5bf32c0f1
p332
tp333
Rp334
sg318
I00
sg319
Nsg321
Nsg322
I00
sg323
I00
sbasg37
I0
sg38
I575
sV_tx_filename
p335
V/home/rusbeh_ab/project/RAGstream/doc/01-Requirements/strictdoc/10_prompt_orchestration.sdoc
p336
sV_tx_metamodel
p337
NsV_tx_model_params
p338
NsV_tx_parser
p339
NsVreserved_title
p340
g8
sVis_bundle_document
p341
I00
sVfragments_from_files
p342
(lp343
sg322
I00
sVmeta
p344
Nsg314
g0
(g89
g90
V33d1bda84c204050865c77151daa6bf9
p345
tp346
Rp347
sg318
I00
sVincluded_documents
p348
(lp349
sg307
g0
(g308
g2
Ntp350
Rp351
(dp352
g312
Nsg313
I0
sbsg299
g301
sVng_including_document_from_file
p353
NsVsearch_index
p354
g0
(cstrictdoc.backend.sdoc.models.document
SDocDocumentSearchIndex
p355
g2
Ntp356
Rp357
(dp358
Vdocument_index
p359
ccollections
defaultdict
p360
(g237
tp361
Rp362
Vplaceholder
p363
g237
((lp364
Vf5a7d732d85f4688912fada5bf32c0f1
p365
aV08205acab4fc4335b04c50e6117c8ca7
p366
atp367
Rp368
sVp
p369
g237
((lp370
g334
ag317
atp371
Rp372
sVpl
p373
g237
((lp374
g334
ag317
atp375
Rp376
sVlaceholder
p377
g237
((lp378
g334
ag317
atp379
Rp380
sVpla
p381
g237
((lp382
g334
ag317
atp383
Rp384
sVaceholder
p385
g237
((lp386
g334
ag317
atp387
Rp388
sVplac
p389
g237
((lp390
g334
ag317
atp391
Rp392
sVceholder
p393
g237
((lp394
g334
ag317
atp395
Rp396
sVplace
p397
g237
((lp398
g334
ag317
atp399
Rp400
sVeholder
p401
g237
((lp402
g334
ag317
atp403
Rp404
sVplaceh
p405
g237
((lp406
g334
ag317
atp407
Rp408
sVholder
p409
g237
((lp410
g334
ag317
atp411
Rp412
sVplaceho
p413
g237
((lp414
g334
ag317
atp415
Rp416
sVolder
p417
g237
((lp418
g334
ag317
atp419
Rp420
sVplacehol
p421
g237
((lp422
g334
ag317
atp423
Rp424
sVlder
p425
g237
((lp426
g334
ag317
atp427
Rp428
sVplacehold
p429
g237
((lp430
g334
ag317
atp431
Rp432
sVder
p433
g237
((lp434
g334
ag317
atp435
Rp436
sVplaceholde
p437
g237
((lp438
g334
ag317
atp439
Rp440
sVer
p441
g237
((lp442
g334
ag317
atp443
Rp444
sVr
p445
g237
((lp446
g334
ag317
atp447
Rp448
sVrequirements
p449
g237
((lp450
V08205acab4fc4335b04c50e6117c8ca7
p451
atp452
Rp453
sVre
p454
g237
((lp455
g317
atp456
Rp457
sVequirements
p458
g237
((lp459
g317
atp460
Rp461
sVreq
p462
g237
((lp463
g317
atp464
Rp465
sVquirements
p466
g237
((lp467
g317
atp468
Rp469
sVrequ
p470
g237
((lp471
g317
atp472
Rp473
sVuirements
p474
g237
((lp475
g317
atp476
Rp477
sVrequi
p478
g237
((lp479
g317
atp480
Rp481
sVirements
p482
g237
((lp483
g317
atp484
Rp485
sVrequir
p486
g237
((lp487
g317
atp488
Rp489
sVrements
p490
g237
((lp491
g317
atp492
Rp493
sVrequire
p494
g237
((lp495
g317
atp496
Rp497
sVements
p498
g237
((lp499
g317
atp500
Rp501
sVrequirem
p502
g237
((lp503
g317
atp504
Rp505
sVments
p506
g237
((lp507
g317
atp508
Rp509
sVrequireme
p510
g237
((lp511
g317
atp512
Rp513
sVents
p514
g237
((lp515
g317
atp516
Rp517
sVrequiremen
p518
g237
((lp519
g317
atp520
Rp521
sVnts
p522
g237
((lp523
g317
atp524
Rp525
sVrequirement
p526
g237
((lp527
g317
atp528
Rp529
sVts
p530
g237
((lp531
g317
atp532
Rp533
sVs
p534
g237
((lp535
g317
atp536
Rp537
sVdocument
p538
g237
((lp539
V08205acab4fc4335b04c50e6117c8ca7
p540
atp541
Rp542
sVd
p543
g237
((lp544
g317
atp545
Rp546
sVdo
p547
g237
((lp548
g317
atp549
Rp550
sVocument
p551
g237
((lp552
g317
atp553
Rp554
sVdoc
p555
g237
((lp556
g317
atp557
Rp558
sVcument
p559
g237
((lp560
g317
atp561
Rp562
sVdocu
p563
g237
((lp564
g317
atp565
Rp566
sVument
p567
g237
((lp568
g317
atp569
Rp570
sVdocum
p571
g237
((lp572
g317
atp573
Rp574
sVment
p575
g237
((lp576
g317
atp577
Rp578
sVdocume
p579
g237
((lp580
g317
atp581
Rp582
sVent
p583
g237
((lp584
g317
atp585
Rp586
sVdocumen
p587
g237
((lp588
g317
atp589
Rp590
sVnt
p591
g237
((lp592
g317
atp593
Rp594
sVt
p595
g237
((lp596
g317
atp597
Rp598
sVghost
p599
g237
((lp600
V08205acab4fc4335b04c50e6117c8ca7
p601
atp602
Rp603
sVg
p604
g237
((lp605
g317
atp606
Rp607
sVgh
p608
g237
((lp609
g317
atp610
Rp611
sVhost
p612
g237
((lp613
g317
atp614
Rp615
sVgho
p616
g237
((lp617
g317
atp618
Rp619
sVost
p620
g237
((lp621
g317
atp622
Rp623
sVghos
p624
g237
((lp625
g317
atp626
Rp627
sVst
p628
g237
((lp629
g317
atp630
Rp631
sVchild
p632
g237
((lp633
V08205acab4fc4335b04c50e6117c8ca7
p634
atp635
Rp636
sVc
p637
g237
((lp638
g317
atp639
Rp640
sVch
p641
g237
((lp642
g317
atp643
Rp644
sVhild
p645
g237
((lp646
g317
atp647
Rp648
sVchi
p649
g237
((lp650
g317
atp651
Rp652
sVild
p653
g237
((lp654
g317
atp655
Rp656
sVchil
p657
g237
((lp658
g317
atp659
Rp660
sVld
p661
g237
((lp662
g317
atp663
Rp664
sVrendering
p665
g237
((lp666
V08205acab4fc4335b04c50e6117c8ca7
p667
atp668
Rp669
sVendering
p670
g237
((lp671
g317
atp672
Rp673
sVren
p674
g237
((lp675
g317
atp676
Rp677
sVndering
p678
g237
((lp679
g317
atp680
Rp681
sVrend
p682
g237
((lp683
g317
atp684
Rp685
sVdering
p686
g237
((lp687
g317
atp688
Rp689
sVrende
p690
g237
((lp691
g317
atp692
Rp693
sVering
p694
g237
((lp695
g317
atp696
Rp697
sVrender
p698
g237
((lp699
g317
atp700
Rp701
sVring
p702
g237
((lp703
g317
atp704
Rp705
sVrenderi
p706
g237
((lp707
g317
atp708
Rp709
sVing
p710
g237
((lp711
g317
atp712
Rp713
sVrenderin
p714
g237
((lp715
g317
atp716
Rp717
sVng
p718
g237
((lp719
g317
atp720
Rp721
sVdetailed
p722
g237
((lp723
V08205acab4fc4335b04c50e6117c8ca7
p724
atp725
Rp726
sVde
p727
g237
((lp728
g317
atp729
Rp730
sVetailed
p731
g237
((lp732
g317
atp733
Rp734
sVdet
p735
g237
((lp736
g317
atp737
Rp738
sVtailed
p739
g237
((lp740
g317
atp741
Rp742
sVdeta
p743
g237
((lp744
g317
atp745
Rp746
sVailed
p747
g237
((lp748
g317
atp749
Rp750
sVdetai
p751
g237
((lp752
g317
atp753
Rp754
sViled
p755
g237
((lp756
g317
atp757
Rp758
sVdetail
p759
g237
((lp760
g317
atp761
Rp762
sVled
p763
g237
((lp764
g317
atp765
Rp766
sVdetaile
p767
g237
((lp768
g317
atp769
Rp770
sVed
p771
g237
((lp772
g317
atp773
Rp774
sVplanned
p775
g237
((lp776
V08205acab4fc4335b04c50e6117c8ca7
p777
atp778
Rp779
sVlanned
p780
g237
((lp781
g317
atp782
Rp783
sVanned
p784
g237
((lp785
g317
atp786
Rp787
sVplan
p788
g237
((lp789
g317
atp790
Rp791
sVnned
p792
g237
((lp793
g317
atp794
Rp795
sVplann
p796
g237
((lp797
g317
atp798
Rp799
sVned
p800
g237
((lp801
g317
atp802
Rp803
sVplanne
p804
g237
((lp805
g317
atp806
Rp807
sVfor
p808
g237
((lp809
V08205acab4fc4335b04c50e6117c8ca7
p810
atp811
Rp812
sVf
p813
g237
((lp814
g317
atp815
Rp816
sVfo
p817
g237
((lp818
g317
atp819
Rp820
sVor
p821
g237
((lp822
g317
atp823
Rp824
sVbe
p825
g237
((lp826
V08205acab4fc4335b04c50e6117c8ca7
p827
atp828
Rp829
sVb
p830
g237
((lp831
g317
atp832
Rp833
sVe
p834
g237
((lp835
g317
atp836
Rp837
sVscope
p838
g237
((lp839
V08205acab4fc4335b04c50e6117c8ca7
p840
atp841
Rp842
sVsc
p843
g237
((lp844
g317
atp845
Rp846
sVcope
p847
g237
((lp848
g317
atp849
Rp850
sVsco
p851
g237
((lp852
g317
atp853
Rp854
sVope
p855
g237
((lp856
g317
atp857
Rp858
sVscop
p859
g237
((lp860
g317
atp861
Rp862
sVpe
p863
g237
((lp864
g317
atp865
Rp866
sVa5
p867
g237
((lp868
V08205acab4fc4335b04c50e6117c8ca7
p869
atp870
Rp871
sVa
p872
g237
((lp873
g317
atp874
Rp875
sV5
p876
g237
((lp877
g317
atp878
Rp879
sVbuilder
p880
g237
((lp881
V08205acab4fc4335b04c50e6117c8ca7
p882
atp883
Rp884
sVbu
p885
g237
((lp886
g317
atp887
Rp888
sVuilder
p889
g237
((lp890
g317
atp891
Rp892
sVbui
p893
g237
((lp894
g317
atp895
Rp896
sVilder
p897
g237
((lp898
g317
atp899
Rp900
sVbuil
p901
g237
((lp902
g317
atp903
Rp904
sVbuild
p905
g237
((lp906
g317
atp907
Rp908
sVbuilde
p909
g237
((lp910
g317
atp911
Rp912
sVreserved
p913
g237
((lp914
V08205acab4fc4335b04c50e6117c8ca7
p915
atp916
Rp917
sVeserved
p918
g237
((lp919
g317
atp920
Rp921
sVres
p922
g237
((lp923
g317
atp924
Rp925
sVserved
p926
g237
((lp927
g317
atp928
Rp929
sVrese
p930
g237
((lp931
g317
atp932
Rp933
sVerved
p934
g237
((lp935
g317
atp936
Rp937
sVreser
p938
g237
((lp939
g317
atp940
Rp941
sVrved
p942
g237
((lp943
g317
atp944
Rp945
sVreserv
p946
g237
((lp947
g317
atp948
Rp949
sVved
p950
g237
((lp951
g317
atp952
Rp953
sVreserve
p954
g237
((lp955
g317
atp956
Rp957
sVprompt
p958
g237
((lp959
V08205acab4fc4335b04c50e6117c8ca7
p960
atp961
Rp962
sVpr
p963
g237
((lp964
g317
atp965
Rp966
sVrompt
p967
g237
((lp968
g317
atp969
Rp970
sVpro
p971
g237
((lp972
g317
atp973
Rp974
sVompt
p975
g237
((lp976
g317
atp977
Rp978
sVprom
p979
g237
((lp980
g317
atp981
Rp982
sVmpt
p983
g237
((lp984
g317
atp985
Rp986
sVpromp
p987
g237
((lp988
g317
atp989
Rp990
sVpt
p991
g237
((lp992
g317
atp993
Rp994
sVorchestration
p995
g237
((lp996
V08205acab4fc4335b04c50e6117c8ca7
p997
atp998
Rp999
sVo
p1000
g237
((lp1001
g317
atp1002
Rp1003
sVrchestration
p1004
g237
((lp1005
g317
atp1006
Rp1007
sVorc
p1008
g237
((lp1009
g317
atp1010
Rp1011
sVchestration
p1012
g237
((lp1013
g317
atp1014
Rp1015
sVorch
p1016
g237
((lp1017
g317
atp1018
Rp1019
sVhestration
p1020
g237
((lp1021
g317
atp1022
Rp1023
sVorche
p1024
g237
((lp1025
g317
atp1026
Rp1027
sVestration
p1028
g237
((lp1029
g317
atp1030
Rp1031
sVorches
p1032
g237
((lp1033
g317
atp1034
Rp1035
sVstration
p1036
g237
((lp1037
g317
atp1038
Rp1039
sVorchest
p1040
g237
((lp1041
g317
atp1042
Rp1043
sVtration
p1044
g237
((lp1045
g317
atp1046
Rp1047
sVorchestr
p1048
g237
((lp1049
g317
atp1050
Rp1051
sVration
p1052
g237
((lp1053
g317
atp1054
Rp1055
sVorchestra
p1056
g237
((lp1057
g317
atp1058
Rp1059
sVation
p1060
g237
((lp1061
g317
atp1062
Rp1063
sVorchestrat
p1064
g237
((lp1065
g317
atp1066
Rp1067
sVtion
p1068
g237
((lp1069
g317
atp1070
Rp1071
sVorchestrati
p1072
g237
((lp1073
g317
atp1074
Rp1075
sVion
p1076
g237
((lp1077
g317
atp1078
Rp1079
sVorchestratio
p1080
g237
((lp1081
g317
atp1082
Rp1083
sVon
p1084
g237
((lp1085
g317
atp1086
Rp1087
sVn
p1088
g237
((lp1089
g317
atp1090
Rp1091
sVpromptshaper
p1092
g237
((lp1093
V08205acab4fc4335b04c50e6117c8ca7
p1094
atp1095
Rp1096
sVromptshaper
p1097
g237
((lp1098
g317
atp1099
Rp1100
sVomptshaper
p1101
g237
((lp1102
g317
atp1103
Rp1104
sVmptshaper
p1105
g237
((lp1106
g317
atp1107
Rp1108
sVptshaper
p1109
g237
((lp1110
g317
atp1111
Rp1112
sVtshaper
p1113
g237
((lp1114
g317
atp1115
Rp1116
sVprompts
p1117
g237
((lp1118
g317
atp1119
Rp1120
sVshaper
p1121
g237
((lp1122
g317
atp1123
Rp1124
sVpromptsh
p1125
g237
((lp1126
g317
atp1127
Rp1128
sVhaper
p1129
g237
((lp1130
g317
atp1131
Rp1132
sVpromptsha
p1133
g237
((lp1134
g317
atp1135
Rp1136
sVaper
p1137
g237
((lp1138
g317
atp1139
Rp1140
sVpromptshap
p1141
g237
((lp1142
g317
atp1143
Rp1144
sVper
p1145
g237
((lp1146
g317
atp1147
Rp1148
sVpromptshape
p1149
g237
((lp1150
g317
atp1151
Rp1152
sVshall
p1153
g237
((lp1154
V08205acab4fc4335b04c50e6117c8ca7
p1155
atp1156
Rp1157
sVsh
p1158
g237
((lp1159
g317
atp1160
Rp1161
sVhall
p1162
g237
((lp1163
g317
atp1164
Rp1165
sVsha
p1166
g237
((lp1167
g317
atp1168
Rp1169
sVall
p1170
g237
((lp1171
g317
atp1172
Rp1173
sVshal
p1174
g237
((lp1175
g317
atp1176
Rp1177
sVll
p1178
g237
((lp1179
g317
atp1180
Rp1181
sVl
p1182
g237
((lp1183
g317
atp1184
Rp1185
sVatomic
p1186
g237
((lp1187
V08205acab4fc4335b04c50e6117c8ca7
p1188
atp1189
Rp1190
sVat
p1191
g237
((lp1192
g317
atp1193
Rp1194
sVtomic
p1195
g237
((lp1196
g317
atp1197
Rp1198
sVato
p1199
g237
((lp1200
g317
atp1201
Rp1202
sVomic
p1203
g237
((lp1204
g317
atp1205
Rp1206
sVatom
p1207
g237
((lp1208
g317
atp1209
Rp1210
sVmic
p1211
g237
((lp1212
g317
atp1213
Rp1214
sVatomi
p1215
g237
((lp1216
g317
atp1217
Rp1218
sVic
p1219
g237
((lp1220
g317
atp1221
Rp1222
sVgap
p1223
g237
((lp1224
V08205acab4fc4335b04c50e6117c8ca7
p1225
atp1226
Rp1227
sVga
p1228
g237
((lp1229
g317
atp1230
Rp1231
sVap
p1232
g237
((lp1233
g317
atp1234
Rp1235
sVdirection
p1236
g237
((lp1237
V08205acab4fc4335b04c50e6117c8ca7
p1238
atp1239
Rp1240
sVdi
p1241
g237
((lp1242
g317
atp1243
Rp1244
sVirection
p1245
g237
((lp1246
g317
atp1247
Rp1248
sVdir
p1249
g237
((lp1250
g317
atp1251
Rp1252
sVrection
p1253
g237
((lp1254
g317
atp1255
Rp1256
sVdire
p1257
g237
((lp1258
g317
atp1259
Rp1260
sVection
p1261
g237
((lp1262
g317
atp1263
Rp1264
sVdirec
p1265
g237
((lp1266
g317
atp1267
Rp1268
sVction
p1269
g237
((lp1270
g317
atp1271
Rp1272
sVdirect
p1273
g237
((lp1274
g317
atp1275
Rp1276
sVdirecti
p1277
g237
((lp1278
g317
atp1279
Rp1280
sVdirectio
p1281
g237
((lp1282
g317
atp1283
Rp1284
sVhuman
p1285
g237
((lp1286
V08205acab4fc4335b04c50e6117c8ca7
p1287
atp1288
Rp1289
sVh
p1290
g237
((lp1291
g317
atp1292
Rp1293
sVhu
p1294
g237
((lp1295
g317
atp1296
Rp1297
sVuman
p1298
g237
((lp1299
g317
atp1300
Rp1301
sVhum
p1302
g237
((lp1303
g317
atp1304
Rp1305
sVman
p1306
g237
((lp1307
g317
atp1308
Rp1309
sVhuma
p1310
g237
((lp1311
g317
atp1312
Rp1313
sVan
p1314
g237
((lp1315
g317
atp1316
Rp1317
sVafter
p1318
g237
((lp1319
V08205acab4fc4335b04c50e6117c8ca7
p1320
atp1321
Rp1322
sVaf
p1323
g237
((lp1324
g317
atp1325
Rp1326
sVfter
p1327
g237
((lp1328
g317
atp1329
Rp1330
sVaft
p1331
g237
((lp1332
g317
atp1333
Rp1334
sVter
p1335
g237
((lp1336
g317
atp1337
Rp1338
sVafte
p1339
g237
((lp1340
g317
atp1341
Rp1342
sVand
p1343
g237
((lp1344
V08205acab4fc4335b04c50e6117c8ca7
p1345
atp1346
Rp1347
sVnd
p1348
g237
((lp1349
g317
atp1350
Rp1351
sVapproval
p1352
g237
((lp1353
V08205acab4fc4335b04c50e6117c8ca7
p1354
atp1355
Rp1356
sVpproval
p1357
g237
((lp1358
g317
atp1359
Rp1360
sVapp
p1361
g237
((lp1362
g317
atp1363
Rp1364
sVproval
p1365
g237
((lp1366
g317
atp1367
Rp1368
sVappr
p1369
g237
((lp1370
g317
atp1371
Rp1372
sVroval
p1373
g237
((lp1374
g317
atp1375
Rp1376
sVappro
p1377
g237
((lp1378
g317
atp1379
Rp1380
sVoval
p1381
g237
((lp1382
g317
atp1383
Rp1384
sVapprov
p1385
g237
((lp1386
g317
atp1387
Rp1388
sVval
p1389
g237
((lp1390
g317
atp1391
Rp1392
sVapprova
p1393
g237
((lp1394
g317
atp1395
Rp1396
sVal
p1397
g237
((lp1398
g317
atp1399
Rp1400
sVsend-boundary
p1401
g237
((lp1402
V08205acab4fc4335b04c50e6117c8ca7
p1403
atp1404
Rp1405
sVse
p1406
g237
((lp1407
g317
atp1408
Rp1409
sVend-boundary
p1410
g237
((lp1411
g317
atp1412
Rp1413
sVsen
p1414
g237
((lp1415
g317
atp1416
Rp1417
sVnd-boundary
p1418
g237
((lp1419
g317
atp1420
Rp1421
sVsend
p1422
g237
((lp1423
g317
atp1424
Rp1425
sVd-boundary
p1426
g237
((lp1427
g317
atp1428
Rp1429
sVsend-
p1430
g237
((lp1431
g317
atp1432
Rp1433
sV-boundary
p1434
g237
((lp1435
g317
atp1436
Rp1437
sVsend-b
p1438
g237
((lp1439
g317
atp1440
Rp1441
sVboundary
p1442
g237
((lp1443
g317
atp1444
Rp1445
sVsend-bo
p1446
g237
((lp1447
g317
atp1448
Rp1449
sVoundary
p1450
g237
((lp1451
g317
atp1452
Rp1453
sVsend-bou
p1454
g237
((lp1455
g317
atp1456
Rp1457
sVundary
p1458
g237
((lp1459
g317
atp1460
Rp1461
sVsend-boun
p1462
g237
((lp1463
g317
atp1464
Rp1465
sVndary
p1466
g237
((lp1467
g317
atp1468
Rp1469
sVsend-bound
p1470
g237
((lp1471
g317
atp1472
Rp1473
sVdary
p1474
g237
((lp1475
g317
atp1476
Rp1477
sVsend-bounda
p1478
g237
((lp1479
g317
atp1480
Rp1481
sVary
p1482
g237
((lp1483
g317
atp1484
Rp1485
sVsend-boundar
p1486
g237
((lp1487
g317
atp1488
Rp1489
sVry
p1490
g237
((lp1491
g317
atp1492
Rp1493
sVy
p1494
g237
((lp1495
g317
atp1496
Rp1497
sVa0
p1498
g237
((lp1499
V08205acab4fc4335b04c50e6117c8ca7
p1500
atp1501
Rp1502
sV0
p1503
g237
((lp1504
g317
atp1505
Rp1506
sVsuperpromptprojector
p1507
g237
((lp1508
V08205acab4fc4335b04c50e6117c8ca7
p1509
atp1510
Rp1511
sVsu
p1512
g237
((lp1513
g317
atp1514
Rp1515
sVuperpromptprojector
p1516
g237
((lp1517
g317
atp1518
Rp1519
sVsup
p1520
g237
((lp1521
g317
atp1522
Rp1523
sVperpromptprojector
p1524
g237
((lp1525
g317
atp1526
Rp1527
sVsupe
p1528
g237
((lp1529
g317
atp1530
Rp1531
sVerpromptprojector
p1532
g237
((lp1533
g317
atp1534
Rp1535
sVsuper
p1536
g237
((lp1537
g317
atp1538
Rp1539
sVrpromptprojector
p1540
g237
((lp1541
g317
atp1542
Rp1543
sVsuperp
p1544
g237
((lp1545
g317
atp1546
Rp1547
sVpromptprojector
p1548
g237
((lp1549
g317
atp1550
Rp1551
sVsuperpr
p1552
g237
((lp1553
g317
atp1554
Rp1555
sVromptprojector
p1556
g237
((lp1557
g317
atp1558
Rp1559
sVsuperpro
p1560
g237
((lp1561
g317
atp1562
Rp1563
sVomptprojector
p1564
g237
((lp1565
g317
atp1566
Rp1567
sVsuperprom
p1568
g237
((lp1569
g317
atp1570
Rp1571
sVmptprojector
p1572
g237
((lp1573
g317
atp1574
Rp1575
sVsuperpromp
p1576
g237
((lp1577
g317
atp1578
Rp1579
sVptprojector
p1580
g237
((lp1581
g317
atp1582
Rp1583
sVsuperprompt
p1584
g237
((lp1585
g317
atp1586
Rp1587
sVtprojector
p1588
g237
((lp1589
g317
atp1590
Rp1591
sVsuperpromptp
p1592
g237
((lp1593
g317
atp1594
Rp1595
sVprojector
p1596
g237
((lp1597
g317
atp1598
Rp1599
sVsuperpromptpr
p1600
g237
((lp1601
g317
atp1602
Rp1603
sVrojector
p1604
g237
((lp1605
g317
atp1606
Rp1607
sVsuperpromptpro
p1608
g237
((lp1609
g317
atp1610
Rp1611
sVojector
p1612
g237
((lp1613
g317
atp1614
Rp1615
sVsuperpromptproj
p1616
g237
((lp1617
g317
atp1618
Rp1619
sVjector
p1620
g237
((lp1621
g317
atp1622
Rp1623
sVsuperpromptproje
p1624
g237
((lp1625
g317
atp1626
Rp1627
sVector
p1628
g237
((lp1629
g317
atp1630
Rp1631
sVsuperpromptprojec
p1632
g237
((lp1633
g317
atp1634
Rp1635
sVctor
p1636
g237
((lp1637
g317
atp1638
Rp1639
sVsuperpromptproject
p1640
g237
((lp1641
g317
atp1642
Rp1643
sVtor
p1644
g237
((lp1645
g317
atp1646
Rp1647
sVsuperpromptprojecto
p1648
g237
((lp1649
g317
atp1650
Rp1651
sVuperprompt
p1652
g237
((lp1653
g317
atp1654
Rp1655
sVperprompt
p1656
g237
((lp1657
g317
atp1658
Rp1659
sVerprompt
p1660
g237
((lp1661
g317
atp1662
Rp1663
sVrprompt
p1664
g237
((lp1665
g317
atp1666
Rp1667
sVlater
p1668
g237
((lp1669
V08205acab4fc4335b04c50e6117c8ca7
p1670
atp1671
Rp1672
sVla
p1673
g237
((lp1674
g317
atp1675
Rp1676
sVater
p1677
g237
((lp1678
g317
atp1679
Rp1680
sVlat
p1681
g237
((lp1682
g317
atp1683
Rp1684
sVlate
p1685
g237
((lp1686
g317
atp1687
Rp1688
sVthis
p1689
g237
((lp1690
V08205acab4fc4335b04c50e6117c8ca7
p1691
atp1692
Rp1693
sVth
p1694
g237
((lp1695
g317
atp1696
Rp1697
sVhis
p1698
g237
((lp1699
g317
atp1700
Rp1701
sVthi
p1702
g237
((lp1703
g317
atp1704
Rp1705
sVis
p1706
g237
((lp1707
g317
atp1708
Rp1709
sVpreprocessing
p1710
g237
((lp1711
V08205acab4fc4335b04c50e6117c8ca7
p1712
atp1713
Rp1714
sVreprocessing
p1715
g237
((lp1716
g317
atp1717
Rp1718
sVpre
p1719
g237
((lp1720
g317
atp1721
Rp1722
sVeprocessing
p1723
g237
((lp1724
g317
atp1725
Rp1726
sVprep
p1727
g237
((lp1728
g317
atp1729
Rp1730
sVprocessing
p1731
g237
((lp1732
g317
atp1733
Rp1734
sVprepr
p1735
g237
((lp1736
g317
atp1737
Rp1738
sVrocessing
p1739
g237
((lp1740
g317
atp1741
Rp1742
sVprepro
p1743
g237
((lp1744
g317
atp1745
Rp1746
sVocessing
p1747
g237
((lp1748
g317
atp1749
Rp1750
sVpreproc
p1751
g237
((lp1752
g317
atp1753
Rp1754
sVcessing
p1755
g237
((lp1756
g317
atp1757
Rp1758
sVpreproce
p1759
g237
((lp1760
g317
atp1761
Rp1762
sVessing
p1763
g237
((lp1764
g317
atp1765
Rp1766
sVpreproces
p1767
g237
((lp1768
g317
atp1769
Rp1770
sVssing
p1771
g237
((lp1772
g317
atp1773
Rp1774
sVpreprocess
p1775
g237
((lp1776
g317
atp1777
Rp1778
sVsing
p1779
g237
((lp1780
g317
atp1781
Rp1782
sVpreprocessi
p1783
g237
((lp1784
g317
atp1785
Rp1786
sVpreprocessin
p1787
g237
((lp1788
g317
atp1789
Rp1790
sVa2
p1791
g237
((lp1792
V08205acab4fc4335b04c50e6117c8ca7
p1793
atp1794
Rp1795
sV2
p1796
g237
((lp1797
g317
atp1798
Rp1799
sVmutation
p1800
g237
((lp1801
V08205acab4fc4335b04c50e6117c8ca7
p1802
atp1803
Rp1804
sVm
p1805
g237
((lp1806
g317
atp1807
Rp1808
sVmu
p1809
g237
((lp1810
g317
atp1811
Rp1812
sVutation
p1813
g237
((lp1814
g317
atp1815
Rp1816
sVmut
p1817
g237
((lp1818
g317
atp1819
Rp1820
sVtation
p1821
g237
((lp1822
g317
atp1823
Rp1824
sVmuta
p1825
g237
((lp1826
g317
atp1827
Rp1828
sVmutat
p1829
g237
((lp1830
g317
atp1831
Rp1832
sVmutati
p1833
g237
((lp1834
g317
atp1835
Rp1836
sVmutatio
p1837
g237
((lp1838
g317
atp1839
Rp1840
sVadded
p1841
g237
((lp1842
V08205acab4fc4335b04c50e6117c8ca7
p1843
atp1844
Rp1845
sVad
p1846
g237
((lp1847
g317
atp1848
Rp1849
sVdded
p1850
g237
((lp1851
g317
atp1852
Rp1853
sVadd
p1854
g237
((lp1855
g317
atp1856
Rp1857
sVded
p1858
g237
((lp1859
g317
atp1860
Rp1861
sVadde
p1862
g237
((lp1863
g317
atp1864
Rp1865
sVi
p1866
g237
((lp1867
g317
atp1868
Rp1869
sVfinal
p1870
g237
((lp1871
V08205acab4fc4335b04c50e6117c8ca7
p1872
atp1873
Rp1874
sVfi
p1875
g237
((lp1876
g317
atp1877
Rp1878
sVinal
p1879
g237
((lp1880
g317
atp1881
Rp1882
sVfin
p1883
g237
((lp1884
g317
atp1885
Rp1886
sVnal
p1887
g237
((lp1888
g317
atp1889
Rp1890
sVfina
p1891
g237
((lp1892
g317
atp1893
Rp1894
ssVmap_nodes_by_mid
p1895
(dp1896
Vf5a7d732d85f4688912fada5bf32c0f1
p1897
(dp1898
VMID
p1899
Vf5a7d732d85f4688912fada5bf32c0f1
p1900
sg259
g262
ssV08205acab4fc4335b04c50e6117c8ca7
p1901
(dp1902
g1899
V08205acab4fc4335b04c50e6117c8ca7
p1903
sg281
g283
sssbsVng_source_content
p1904
Nsg323
I00
sV_tx_attrs
p1905
NsV_tx_peg_rule
p1906
Nsb.