ccopy_reg
_reconstructor
p0
(cstrictdoc.backend.sdoc.models.document
SDocDocument
p1
c__builtin__
object
p2
Ntp3
Rp4
(dp5
Vmid
p6
NsVtitle
p7
VAgent Stack Requirements
p8
sVconfig
p9
g0
(cstrictdoc.backend.sdoc.models.document_config
DocumentConfig
p10
g2
Ntp11
Rp12
(dp13
Vuid
p14
VGHOST-REQ-AGENT-STACK
p15
sVversion
p16
V0.1-dummy
p17
sVdate
p18
NsVclassification
p19
NsVrequirement_prefix
p20
NsVroot
p21
NsVenable_mid
p22
NsVrelation_field
p23
NsVmarkup
p24
VText
p25
sVauto_levels
p26
I01
sVlayout
p27
NsVview_style_tag
p28
V
p29
sVrequirement_style
p30
NsVnode_in_toc_tag
p31
VNODE_IN_TOC
p32
sVrequirement_in_toc
p33
VTrue
p34
sVdefault_view
p35
NsVcustom_metadata
p36
NsV_tx_position
p37
I43
sV_tx_position_end
p38
I151
sVparent
p39
g4
sVng_auto_levels_specified
p40
I01
sVng_line_start
p41
I3
sVng_col_start
p42
I1
sbsVview
p43
g0
(cstrictdoc.backend.sdoc.models.document_view
DocumentView
p44
g2
Ntp45
Rp46
(dp47
g39
g4
sVviews
p48
(lp49
g0
(cstrictdoc.backend.sdoc.models.document_view
DefaultViewElement
p50
g2
Ntp51
Rp52
(dp53
g39
g46
sVview_id
p54
VNOT_RELEVANT
p55
sVtags
p56
(lp57
sVhidden_tags
p58
(lp59
sVname
p60
Nsbasg41
I31
sg42
I830
sbsVgrammar
p61
g0
(cstrictdoc.backend.sdoc.models.document_grammar
DocumentGrammar
p62
g2
Ntp63
Rp64
(dp65
g39
g4
sVelements
p66
(lp67
g0
(cstrictdoc.backend.sdoc.models.grammar_element
GrammarElement
p68
g2
Ntp69
Rp70
(dp71
g39
g64
sVtag
p72
VSECTION
p73
sVproperty_is_composite
p74
I01
sVproperty_prefix
p75
NsVproperty_view_style
p76
NsVproperty_view_style_lower
p77
NsVfields
p78
(lp79
g0
(cstrictdoc.backend.sdoc.models.grammar_element
GrammarElementFieldString
p80
g2
Ntp81
Rp82
(dp83
g7
VUID
p84
sVhuman_title
p85
NsVgef_type
p86
VString
p87
sVrequired
p88
I00
sg6
g0
(cstrictdoc.helpers.mid
MID
p89
c__builtin__
unicode
p90
V76f77f7ee2dc4ff6bc28be060e421788
p91
tp92
Rp93
sg39
Nsbag0
(g80
g2
Ntp94
Rp95
(dp96
g7
VLEVEL
p97
sg85
Nsg86
g87
sg88
I00
sg6
g0
(g89
g90
V8ad33d77aaf442fd8030dc7bf445c752
p98
tp99
Rp100
sg39
Nsbag0
(g80
g2
Ntp101
Rp102
(dp103
g7
VPREFIX
p104
sg85
Nsg86
g87
sg88
I00
sg6
g0
(g89
g90
V49f1663d125141e5964e2ddcd8e5aa53
p105
tp106
Rp107
sg39
Nsbag0
(g80
g2
Ntp108
Rp109
(dp110
g7
VTITLE
p111
sg85
Nsg86
g87
sg88
I01
sg6
g0
(g89
g90
V41b76c1b85de4bd4806df6d82902076f
p112
tp113
Rp114
sg39
NsbasVrelations
p115
(lp116
sVfields_map
p117
ccollections
OrderedDict
p118
(tRp119
g84
g82
sg97
g95
sg104
g102
sg111
g109
ssVfield_titles
p120
(lp121
g84
ag97
ag104
ag111
asVcontent_field
p122
(g29
I-1
tp123
sV_multiline_field_index
p124
I4
sg6
g0
(g89
g90
V9e3132bfd9764c65973f0961fd6f335b
p125
tp126
Rp127
sg41
Nsg42
Nsbag0
(g68
g2
Ntp128
Rp129
(dp130
g39
g64
sg72
VTEXT
p131
sg74
Nsg75
Nsg76
Nsg77
Nsg78
(lp132
g0
(g80
g2
Ntp133
Rp134
(dp135
g7
g84
sg85
Nsg86
g87
sg88
I00
sg6
g0
(g89
g90
V19b835c7a3b24e5db006f37c94eb5b2c
p136
tp137
Rp138
sg39
Nsbag0
(g80
g2
Ntp139
Rp140
(dp141
g7
VSTATEMENT
p142
sg85
Nsg86
g87
sg88
I01
sg6
g0
(g89
g90
V2c83425a62d345069f1dea3a4a6aab3a
p143
tp144
Rp145
sg39
Nsbasg115
(lp146
sg117
g118
(tRp147
g84
g134
sg142
g140
ssg120
(lp148
g84
ag142
asg122
(g142
I1
tp149
sg124
I1
sg6
g0
(g89
g90
V2a5e9a7d7b984c5d82d3a8a644d3b97a
p150
tp151
Rp152
sg41
Nsg42
Nsbag0
(g68
g2
Ntp153
Rp154
(dp155
g39
g64
sg72
VREQUIREMENT
p156
sg74
Nsg75
Nsg76
Nsg77
Nsg78
(lp157
g0
(g80
g2
Ntp158
Rp159
(dp160
g7
g84
sg85
Nsg86
g87
sg88
I00
sg6
g0
(g89
g90
Vdb08a58ec616445cb857390f0c84d53e
p161
tp162
Rp163
sg39
Nsbag0
(g80
g2
Ntp164
Rp165
(dp166
g7
g97
sg85
Nsg86
g87
sg88
I00
sg6
g0
(g89
g90
V81f354b978a64d5f89f90d6441a37640
p167
tp168
Rp169
sg39
Nsbag0
(g80
g2
Ntp170
Rp171
(dp172
g7
VSTATUS
p173
sg85
Nsg86
g87
sg88
I00
sg6
g0
(g89
g90
Vbcb65b48f8e0482bbdda416ff9b1b262
p174
tp175
Rp176
sg39
Nsbag0
(g80
g2
Ntp177
Rp178
(dp179
g7
VTAGS
p180
sg85
Nsg86
g87
sg88
I00
sg6
g0
(g89
g90
V17344adc1e824642902a611dfef4c83b
p181
tp182
Rp183
sg39
Nsbag0
(g80
g2
Ntp184
Rp185
(dp186
g7
g111
sg85
Nsg86
g87
sg88
I00
sg6
g0
(g89
g90
Va857b995bb47405395259e6938a9ac54
p187
tp188
Rp189
sg39
Nsbag0
(g80
g2
Ntp190
Rp191
(dp192
g7
g142
sg85
Nsg86
g87
sg88
I00
sg6
g0
(g89
g90
Vf26867c6ee94430dba44236ddfbcf8b7
p193
tp194
Rp195
sg39
Nsbag0
(g80
g2
Ntp196
Rp197
(dp198
g7
VRATIONALE
p199
sg85
Nsg86
g87
sg88
I00
sg6
g0
(g89
g90
V47aa6c77e92f40f893219c5c75ba2d0c
p200
tp201
Rp202
sg39
Nsbag0
(g80
g2
Ntp203
Rp204
(dp205
g7
VCOMMENT
p206
sg85
Nsg86
g87
sg88
I00
sg6
g0
(g89
g90
V2fdfcdcbcd8444dfbc3c9b3877014891
p207
tp208
Rp209
sg39
Nsbasg115
(lp210
g0
(cstrictdoc.backend.sdoc.models.grammar_element
GrammarElementRelationParent
p211
g2
Ntp212
Rp213
(dp214
g39
g154
sVrelation_type
p215
VParent
p216
sVrelation_role
p217
NsVreverse_relation_role
p218
Nsg6
g0
(g89
g90
V520c380827bf44d68f8b531c9586d4f9
p219
tp220
Rp221
sbag0
(cstrictdoc.backend.sdoc.models.grammar_element
GrammarElementRelationFile
p222
g2
Ntp223
Rp224
(dp225
g39
g154
sg215
VFile
p226
sg217
Nsg218
Nsg6
g0
(g89
g90
V3b81d59b4d3b42f49a70beb362d75e55
p227
tp228
Rp229
sbasg117
g118
(tRp230
g84
g159
sg97
g165
sg173
g171
sg180
g178
sg111
g185
sg142
g191
sg199
g197
sg206
g204
ssg120
(lp231
g84
ag97
ag173
ag180
ag111
ag142
ag199
ag206
asg122
(g142
I5
tp232
sg124
I5
sg6
g0
(g89
g90
V341841571ac94e93886fc9b96da6a97c
p233
tp234
Rp235
sg41
Nsg42
NsbasVregistered_elements
p236
c__builtin__
set
p237
((lp238
g73
ag156
ag131
atp239
Rp240
sVelements_by_type
p241
(dp242
g73
g70
sg131
g129
sg156
g154
ssVimport_from_file
p243
NsVis_default
p244
I01
sg41
Nsg42
NsbsVsection_contents
p245
(lp246
g0
(cstrictdoc.backend.sdoc.models.node
SDocCompositeNode
p247
g2
Ntp248
Rp249
(dp250
Vnode_type
p251
VSECTION
p252
sg78
(lp253
g0
(cstrictdoc.backend.sdoc.models.node
SDocNodeField
p254
g2
Ntp255
Rp256
(dp257
Vfield_name
p258
VTITLE
p259
sVparts
p260
(lp261
VPlaceholder
p262
asVmultiline__
p263
g29
sg37
I164
sg38
I183
sg39
g249
sVmultiline
p264
I00
sVorigin
p265
cstrictdoc.backend.sdoc.models.node
SDocNodeFieldOrigin
p266
(VDOCUMENT
p267
tp268
Rp269
sbasg115
(lp270
sg245
(lp271
g0
(cstrictdoc.backend.sdoc.models.node
SDocNode
p272
g2
Ntp273
Rp274
(dp275
g251
VTEXT
p276
sg78
(lp277
g0
(g254
g2
Ntp278
Rp279
(dp280
g258
VSTATEMENT
p281
sg260
(lp282
VThis is a placeholder child requirements document for the GHOST Agent Stack.\u000a\u000aPlanned scope:\u000a- AgentFactory\u000a- AgentPrompt\u000a- llm_client\u000a- JSON agent configuration\u000a- executable modes\u000a- aliases\u000a- model configuration\u000a- structured output parsing\u000a\u000aDetailed atomic requirements shall be added later after human approval.\u000a
p283
asg263
V>>>\u000a
p284
sg37
I191
sg38
I524
sg39
g274
sg264
I01
sg265
g269
sbasg115
(lp285
sg37
I184
sg38
I524
sg39
g249
sVis_composite
p286
I00
sg245
(lp287
sVhas_meta
p288
I00
sVfields_as_parsed
p289
g277
sVordered_fields_lookup
p290
g118
(tRp291
g281
(lp292
g279
assVng_document_reference
p293
g0
(cstrictdoc.backend.sdoc.document_reference
DocumentReference
p294
g2
Ntp295
Rp296
(dp297
V_document
p298
g4
sbsVng_including_document_reference
p299
g0
(g294
g2
Ntp300
Rp301
(dp302
g298
Nsbsg41
I13
sVng_line_end
p303
I29
sg42
I1
sVng_col_end
p304
I1
sVng_byte_start
p305
I184
sVng_byte_end
p306
I524
sVcontext
p307
g0
(cstrictdoc.backend.sdoc.models.node
SDocNodeContext
p308
g2
Ntp309
Rp310
(dp311
Vtitle_number_string
p312
g29
sVng_level
p313
I2
sbsVreserved_mid
p314
g0
(g89
g90
V8d57157a8189401297cb1433dcc8c8e1
p315
tp316
Rp317
sVmid_permanent
p318
I00
sVng_resolved_custom_level
p319
VNone
p320
sVcustom_level
p321
NsVng_has_requirements
p322
I00
sVautogen
p323
I00
sbasVnode_type_close
p324
VSECTION
p325
sg37
I152
sg38
I538
sg39
g4
sg286
I01
sg288
I00
sg289
g253
sg290
g118
(tRp326
g259
(lp327
g256
assg293
g296
sg299
g301
sg41
I10
sg303
I31
sg42
I1
sg304
I1
sg305
I152
sg306
I538
sg307
g0
(g308
g2
Ntp328
Rp329
(dp330
g312
V1
p331
sg313
I1
sbsg314
g0
(g89
g90
V770cc096cf344ef1bb02f6c19c60bee4
p332
tp333
Rp334
sg318
I00
sg319
Nsg321
Nsg322
I00
sg323
I00
sbasg37
I0
sg38
I538
sV_tx_filename
p335
V/home/rusbeh_ab/project/RAGstream/doc/01-Requirements/strictdoc/20_agent_stack.sdoc
p336
sV_tx_metamodel
p337
NsV_tx_model_params
p338
NsV_tx_parser
p339
NsVreserved_title
p340
g8
sVis_bundle_document
p341
I00
sVfragments_from_files
p342
(lp343
sg322
I00
sVmeta
p344
Nsg314
g0
(g89
g90
Vc96a6b272f80424e9342c555a28f1bab
p345
tp346
Rp347
sg318
I00
sVincluded_documents
p348
(lp349
sg307
g0
(g308
g2
Ntp350
Rp351
(dp352
g312
Nsg313
I0
sbsg299
g301
sVng_including_document_from_file
p353
NsVsearch_index
p354
g0
(cstrictdoc.backend.sdoc.models.document
SDocDocumentSearchIndex
p355
g2
Ntp356
Rp357
(dp358
Vdocument_index
p359
ccollections
defaultdict
p360
(g237
tp361
Rp362
Vplaceholder
p363
g237
((lp364
V8d57157a8189401297cb1433dcc8c8e1
p365
aV770cc096cf344ef1bb02f6c19c60bee4
p366
atp367
Rp368
sVp
p369
g237
((lp370
g317
ag334
atp371
Rp372
sVpl
p373
g237
((lp374
g317
ag334
atp375
Rp376
sVlaceholder
p377
g237
((lp378
g317
ag334
atp379
Rp380
sVpla
p381
g237
((lp382
g317
ag334
atp383
Rp384
sVaceholder
p385
g237
((lp386
g317
ag334
atp387
Rp388
sVplac
p389
g237
((lp390
g317
ag334
atp391
Rp392
sVceholder
p393
g237
((lp394
g317
ag334
atp395
Rp396
sVplace
p397
g237
((lp398
g317
ag334
atp399
Rp400
sVeholder
p401
g237
((lp402
g317
ag334
atp403
Rp404
sVplaceh
p405
g237
((lp406
g317
ag334
atp407
Rp408
sVholder
p409
g237
((lp410
g317
ag334
atp411
Rp412
sVplaceho
p413
g237
((lp414
g317
ag334
atp415
Rp416
sVolder
p417
g237
((lp418
g317
ag334
atp419
Rp420
sVplacehol
p421
g237
((lp422
g317
ag334
atp423
Rp424
sVlder
p425
g237
((lp426
g317
ag334
atp427
Rp428
sVplacehold
p429
g237
((lp430
g317
ag334
atp431
Rp432
sVder
p433
g237
((lp434
g317
ag334
atp435
Rp436
sVplaceholde
p437
g237
((lp438
g317
ag334
atp439
Rp440
sVer
p441
g237
((lp442
g317
ag334
atp443
Rp444
sVr
p445
g237
((lp446
g317
ag334
atp447
Rp448
sVrequirements
p449
g237
((lp450
V8d57157a8189401297cb1433dcc8c8e1
p451
atp452
Rp453
sVre
p454
g237
((lp455
g317
atp456
Rp457
sVequirements
p458
g237
((lp459
g317
atp460
Rp461
sVreq
p462
g237
((lp463
g317
atp464
Rp465
sVquirements
p466
g237
((lp467
g317
atp468
Rp469
sVrequ
p470
g237
((lp471
g317
atp472
Rp473
sVuirements
p474
g237
((lp475
g317
atp476
Rp477
sVrequi
p478
g237
((lp479
g317
atp480
Rp481
sVirements
p482
g237
((lp483
g317
atp484
Rp485
sVrequir
p486
g237
((lp487
g317
atp488
Rp489
sVrements
p490
g237
((lp491
g317
atp492
Rp493
sVrequire
p494
g237
((lp495
g317
atp496
Rp497
sVements
p498
g237
((lp499
g317
atp500
Rp501
sVrequirem
p502
g237
((lp503
g317
atp504
Rp505
sVments
p506
g237
((lp507
g317
atp508
Rp509
sVrequireme
p510
g237
((lp511
g317
atp512
Rp513
sVents
p514
g237
((lp515
g317
atp516
Rp517
sVrequiremen
p518
g237
((lp519
g317
atp520
Rp521
sVnts
p522
g237
((lp523
g317
atp524
Rp525
sVrequirement
p526
g237
((lp527
g317
atp528
Rp529
sVts
p530
g237
((lp531
g317
atp532
Rp533
sVs
p534
g237
((lp535
g317
atp536
Rp537
sVdocument
p538
g237
((lp539
V8d57157a8189401297cb1433dcc8c8e1
p540
atp541
Rp542
sVd
p543
g237
((lp544
g317
atp545
Rp546
sVdo
p547
g237
((lp548
g317
atp549
Rp550
sVocument
p551
g237
((lp552
g317
atp553
Rp554
sVdoc
p555
g237
((lp556
g317
atp557
Rp558
sVcument
p559
g237
((lp560
g317
atp561
Rp562
sVdocu
p563
g237
((lp564
g317
atp565
Rp566
sVument
p567
g237
((lp568
g317
atp569
Rp570
sVdocum
p571
g237
((lp572
g317
atp573
Rp574
sVment
p575
g237
((lp576
g317
atp577
Rp578
sVdocume
p579
g237
((lp580
g317
atp581
Rp582
sVent
p583
g237
((lp584
g317
atp585
Rp586
sVdocumen
p587
g237
((lp588
g317
atp589
Rp590
sVnt
p591
g237
((lp592
g317
atp593
Rp594
sVt
p595
g237
((lp596
g317
atp597
Rp598
sVghost
p599
g237
((lp600
V8d57157a8189401297cb1433dcc8c8e1
p601
atp602
Rp603
sVg
p604
g237
((lp605
g317
atp606
Rp607
sVgh
p608
g237
((lp609
g317
atp610
Rp611
sVhost
p612
g237
((lp613
g317
atp614
Rp615
sVgho
p616
g237
((lp617
g317
atp618
Rp619
sVost
p620
g237
((lp621
g317
atp622
Rp623
sVghos
p624
g237
((lp625
g317
atp626
Rp627
sVst
p628
g237
((lp629
g317
atp630
Rp631
sVstructured
p632
g237
((lp633
V8d57157a8189401297cb1433dcc8c8e1
p634
atp635
Rp636
sVtructured
p637
g237
((lp638
g317
atp639
Rp640
sVstr
p641
g237
((lp642
g317
atp643
Rp644
sVructured
p645
g237
((lp646
g317
atp647
Rp648
sVstru
p649
g237
((lp650
g317
atp651
Rp652
sVuctured
p653
g237
((lp654
g317
atp655
Rp656
sVstruc
p657
g237
((lp658
g317
atp659
Rp660
sVctured
p661
g237
((lp662
g317
atp663
Rp664
sVstruct
p665
g237
((lp666
g317
atp667
Rp668
sVtured
p669
g237
((lp670
g317
atp671
Rp672
sVstructu
p673
g237
((lp674
g317
atp675
Rp676
sVured
p677
g237
((lp678
g317
atp679
Rp680
sVstructur
p681
g237
((lp682
g317
atp683
Rp684
sVred
p685
g237
((lp686
g317
atp687
Rp688
sVstructure
p689
g237
((lp690
g317
atp691
Rp692
sVed
p693
g237
((lp694
g317
atp695
Rp696
sVchild
p697
g237
((lp698
V8d57157a8189401297cb1433dcc8c8e1
p699
atp700
Rp701
sVc
p702
g237
((lp703
g317
atp704
Rp705
sVch
p706
g237
((lp707
g317
atp708
Rp709
sVhild
p710
g237
((lp711
g317
atp712
Rp713
sVchi
p714
g237
((lp715
g317
atp716
Rp717
sVild
p718
g237
((lp719
g317
atp720
Rp721
sVchil
p722
g237
((lp723
g317
atp724
Rp725
sVld
p726
g237
((lp727
g317
atp728
Rp729
sVdetailed
p730
g237
((lp731
V8d57157a8189401297cb1433dcc8c8e1
p732
atp733
Rp734
sVde
p735
g237
((lp736
g317
atp737
Rp738
sVetailed
p739
g237
((lp740
g317
atp741
Rp742
sVdet
p743
g237
((lp744
g317
atp745
Rp746
sVtailed
p747
g237
((lp748
g317
atp749
Rp750
sVdeta
p751
g237
((lp752
g317
atp753
Rp754
sVailed
p755
g237
((lp756
g317
atp757
Rp758
sVdetai
p759
g237
((lp760
g317
atp761
Rp762
sViled
p763
g237
((lp764
g317
atp765
Rp766
sVdetail
p767
g237
((lp768
g317
atp769
Rp770
sVled
p771
g237
((lp772
g317
atp773
Rp774
sVdetaile
p775
g237
((lp776
g317
atp777
Rp778
sVplanned
p779
g237
((lp780
V8d57157a8189401297cb1433dcc8c8e1
p781
atp782
Rp783
sVlanned
p784
g237
((lp785
g317
atp786
Rp787
sVanned
p788
g237
((lp789
g317
atp790
Rp791
sVplan
p792
g237
((lp793
g317
atp794
Rp795
sVnned
p796
g237
((lp797
g317
atp798
Rp799
sVplann
p800
g237
((lp801
g317
atp802
Rp803
sVned
p804
g237
((lp805
g317
atp806
Rp807
sVplanne
p808
g237
((lp809
g317
atp810
Rp811
sVfor
p812
g237
((lp813
V8d57157a8189401297cb1433dcc8c8e1
p814
atp815
Rp816
sVf
p817
g237
((lp818
g317
atp819
Rp820
sVfo
p821
g237
((lp822
g317
atp823
Rp824
sVor
p825
g237
((lp826
g317
atp827
Rp828
sVjson
p829
g237
((lp830
V8d57157a8189401297cb1433dcc8c8e1
p831
atp832
Rp833
sVj
p834
g237
((lp835
g317
atp836
Rp837
sVjs
p838
g237
((lp839
g317
atp840
Rp841
sVson
p842
g237
((lp843
g317
atp844
Rp845
sVjso
p846
g237
((lp847
g317
atp848
Rp849
sVon
p850
g237
((lp851
g317
atp852
Rp853
sVn
p854
g237
((lp855
g317
atp856
Rp857
sVagent
p858
g237
((lp859
V8d57157a8189401297cb1433dcc8c8e1
p860
atp861
Rp862
sVa
p863
g237
((lp864
g317
atp865
Rp866
sVag
p867
g237
((lp868
g317
atp869
Rp870
sVgent
p871
g237
((lp872
g317
atp873
Rp874
sVage
p875
g237
((lp876
g317
atp877
Rp878
sVagen
p879
g237
((lp880
g317
atp881
Rp882
sVstack
p883
g237
((lp884
V8d57157a8189401297cb1433dcc8c8e1
p885
atp886
Rp887
sVtack
p888
g237
((lp889
g317
atp890
Rp891
sVsta
p892
g237
((lp893
g317
atp894
Rp895
sVack
p896
g237
((lp897
g317
atp898
Rp899
sVstac
p900
g237
((lp901
g317
atp902
Rp903
sVck
p904
g237
((lp905
g317
atp906
Rp907
sVk
p908
g237
((lp909
g317
atp910
Rp911
sVmodes
p912
g237
((lp913
V8d57157a8189401297cb1433dcc8c8e1
p914
atp915
Rp916
sVm
p917
g237
((lp918
g317
atp919
Rp920
sVmo
p921
g237
((lp922
g317
atp923
Rp924
sVodes
p925
g237
((lp926
g317
atp927
Rp928
sVmod
p929
g237
((lp930
g317
atp931
Rp932
sVdes
p933
g237
((lp934
g317
atp935
Rp936
sVmode
p937
g237
((lp938
g317
atp939
Rp940
sVes
p941
g237
((lp942
g317
atp943
Rp944
sVbe
p945
g237
((lp946
V8d57157a8189401297cb1433dcc8c8e1
p947
atp948
Rp949
sVb
p950
g237
((lp951
g317
atp952
Rp953
sVe
p954
g237
((lp955
g317
atp956
Rp957
sVllm_client
p958
g237
((lp959
V8d57157a8189401297cb1433dcc8c8e1
p960
atp961
Rp962
sVl
p963
g237
((lp964
g317
atp965
Rp966
sVll
p967
g237
((lp968
g317
atp969
Rp970
sVlm_client
p971
g237
((lp972
g317
atp973
Rp974
sVllm
p975
g237
((lp976
g317
atp977
Rp978
sVm_client
p979
g237
((lp980
g317
atp981
Rp982
sVllm_
p983
g237
((lp984
g317
atp985
Rp986
sV_client
p987
g237
((lp988
g317
atp989
Rp990
sVllm_c
p991
g237
((lp992
g317
atp993
Rp994
sVclient
p995
g237
((lp996
g317
atp997
Rp998
sVllm_cl
p999
g237
((lp1000
g317
atp1001
Rp1002
sVlient
p1003
g237
((lp1004
g317
atp1005
Rp1006
sVllm_cli
p1007
g237
((lp1008
g317
atp1009
Rp1010
sVient
p1011
g237
((lp1012
g317
atp1013
Rp1014
sVllm_clie
p1015
g237
((lp1016
g317
atp1017
Rp1018
sVllm_clien
p1019
g237
((lp1020
g317
atp1021
Rp1022
sVthe
p1023
g237
((lp1024
V8d57157a8189401297cb1433dcc8c8e1
p1025
atp1026
Rp1027
sVth
p1028
g237
((lp1029
g317
atp1030
Rp1031
sVhe
p1032
g237
((lp1033
g317
atp1034
Rp1035
sVscope
p1036
g237
((lp1037
V8d57157a8189401297cb1433dcc8c8e1
p1038
atp1039
Rp1040
sVsc
p1041
g237
((lp1042
g317
atp1043
Rp1044
sVcope
p1045
g237
((lp1046
g317
atp1047
Rp1048
sVsco
p1049
g237
((lp1050
g317
atp1051
Rp1052
sVope
p1053
g237
((lp1054
g317
atp1055
Rp1056
sVscop
p1057
g237
((lp1058
g317
atp1059
Rp1060
sVpe
p1061
g237
((lp1062
g317
atp1063
Rp1064
sVexecutable
p1065
g237
((lp1066
V8d57157a8189401297cb1433dcc8c8e1
p1067
atp1068
Rp1069
sVex
p1070
g237
((lp1071
g317
atp1072
Rp1073
sVxecutable
p1074
g237
((lp1075
g317
atp1076
Rp1077
sVexe
p1078
g237
((lp1079
g317
atp1080
Rp1081
sVecutable
p1082
g237
((lp1083
g317
atp1084
Rp1085
sVexec
p1086
g237
((lp1087
g317
atp1088
Rp1089
sVcutable
p1090
g237
((lp1091
g317
atp1092
Rp1093
sVexecu
p1094
g237
((lp1095
g317
atp1096
Rp1097
sVutable
p1098
g237
((lp1099
g317
atp1100
Rp1101
sVexecut
p1102
g237
((lp1103
g317
atp1104
Rp1105
sVtable
p1106
g237
((lp1107
g317
atp1108
Rp1109
sVexecuta
p1110
g237
((lp1111
g317
atp1112
Rp1113
sVable
p1114
g237
((lp1115
g317
atp1116
Rp1117
sVexecutab
p1118
g237
((lp1119
g317
atp1120
Rp1121
sVble
p1122
g237
((lp1123
g317
atp1124
Rp1125
sVexecutabl
p1126
g237
((lp1127
g317
atp1128
Rp1129
sVle
p1130
g237
((lp1131
g317
atp1132
Rp1133
sVoutput
p1134
g237
((lp1135
V8d57157a8189401297cb1433dcc8c8e1
p1136
atp1137
Rp1138
sVo
p1139
g237
((lp1140
g317
atp1141
Rp1142
sVou
p1143
g237
((lp1144
g317
atp1145
Rp1146
sVutput
p1147
g237
((lp1148
g317
atp1149
Rp1150
sVout
p1151
g237
((lp1152
g317
atp1153
Rp1154
sVtput
p1155
g237
((lp1156
g317
atp1157
Rp1158
sVoutp
p1159
g237
((lp1160
g317
atp1161
Rp1162
sVput
p1163
g237
((lp1164
g317
atp1165
Rp1166
sVoutpu
p1167
g237
((lp1168
g317
atp1169
Rp1170
sVut
p1171
g237
((lp1172
g317
atp1173
Rp1174
sVagentprompt
p1175
g237
((lp1176
V8d57157a8189401297cb1433dcc8c8e1
p1177
atp1178
Rp1179
sVgentprompt
p1180
g237
((lp1181
g317
atp1182
Rp1183
sVentprompt
p1184
g237
((lp1185
g317
atp1186
Rp1187
sVntprompt
p1188
g237
((lp1189
g317
atp1190
Rp1191
sVtprompt
p1192
g237
((lp1193
g317
atp1194
Rp1195
sVagentp
p1196
g237
((lp1197
g317
atp1198
Rp1199
sVprompt
p1200
g237
((lp1201
g317
atp1202
Rp1203
sVagentpr
p1204
g237
((lp1205
g317
atp1206
Rp1207
sVrompt
p1208
g237
((lp1209
g317
atp1210
Rp1211
sVagentpro
p1212
g237
((lp1213
g317
atp1214
Rp1215
sVompt
p1216
g237
((lp1217
g317
atp1218
Rp1219
sVagentprom
p1220
g237
((lp1221
g317
atp1222
Rp1223
sVmpt
p1224
g237
((lp1225
g317
atp1226
Rp1227
sVagentpromp
p1228
g237
((lp1229
g317
atp1230
Rp1231
sVpt
p1232
g237
((lp1233
g317
atp1234
Rp1235
sVshall
p1236
g237
((lp1237
V8d57157a8189401297cb1433dcc8c8e1
p1238
atp1239
Rp1240
sVsh
p1241
g237
((lp1242
g317
atp1243
Rp1244
sVhall
p1245
g237
((lp1246
g317
atp1247
Rp1248
sVsha
p1249
g237
((lp1250
g317
atp1251
Rp1252
sVall
p1253
g237
((lp1254
g317
atp1255
Rp1256
sVshal
p1257
g237
((lp1258
g317
atp1259
Rp1260
sVconfiguration
p1261
g237
((lp1262
V8d57157a8189401297cb1433dcc8c8e1
p1263
atp1264
Rp1265
sVco
p1266
g237
((lp1267
g317
atp1268
Rp1269
sVonfiguration
p1270
g237
((lp1271
g317
atp1272
Rp1273
sVcon
p1274
g237
((lp1275
g317
atp1276
Rp1277
sVnfiguration
p1278
g237
((lp1279
g317
atp1280
Rp1281
sVconf
p1282
g237
((lp1283
g317
atp1284
Rp1285
sVfiguration
p1286
g237
((lp1287
g317
atp1288
Rp1289
sVconfi
p1290
g237
((lp1291
g317
atp1292
Rp1293
sViguration
p1294
g237
((lp1295
g317
atp1296
Rp1297
sVconfig
p1298
g237
((lp1299
g317
atp1300
Rp1301
sVguration
p1302
g237
((lp1303
g317
atp1304
Rp1305
sVconfigu
p1306
g237
((lp1307
g317
atp1308
Rp1309
sVuration
p1310
g237
((lp1311
g317
atp1312
Rp1313
sVconfigur
p1314
g237
((lp1315
g317
atp1316
Rp1317
sVration
p1318
g237
((lp1319
g317
atp1320
Rp1321
sVconfigura
p1322
g237
((lp1323
g317
atp1324
Rp1325
sVation
p1326
g237
((lp1327
g317
atp1328
Rp1329
sVconfigurat
p1330
g237
((lp1331
g317
atp1332
Rp1333
sVtion
p1334
g237
((lp1335
g317
atp1336
Rp1337
sVconfigurati
p1338
g237
((lp1339
g317
atp1340
Rp1341
sVion
p1342
g237
((lp1343
g317
atp1344
Rp1345
sVconfiguratio
p1346
g237
((lp1347
g317
atp1348
Rp1349
sVatomic
p1350
g237
((lp1351
V8d57157a8189401297cb1433dcc8c8e1
p1352
atp1353
Rp1354
sVat
p1355
g237
((lp1356
g317
atp1357
Rp1358
sVtomic
p1359
g237
((lp1360
g317
atp1361
Rp1362
sVato
p1363
g237
((lp1364
g317
atp1365
Rp1366
sVomic
p1367
g237
((lp1368
g317
atp1369
Rp1370
sVatom
p1371
g237
((lp1372
g317
atp1373
Rp1374
sVmic
p1375
g237
((lp1376
g317
atp1377
Rp1378
sVatomi
p1379
g237
((lp1380
g317
atp1381
Rp1382
sVic
p1383
g237
((lp1384
g317
atp1385
Rp1386
sVhuman
p1387
g237
((lp1388
V8d57157a8189401297cb1433dcc8c8e1
p1389
atp1390
Rp1391
sVh
p1392
g237
((lp1393
g317
atp1394
Rp1395
sVhu
p1396
g237
((lp1397
g317
atp1398
Rp1399
sVuman
p1400
g237
((lp1401
g317
atp1402
Rp1403
sVhum
p1404
g237
((lp1405
g317
atp1406
Rp1407
sVman
p1408
g237
((lp1409
g317
atp1410
Rp1411
sVhuma
p1412
g237
((lp1413
g317
atp1414
Rp1415
sVan
p1416
g237
((lp1417
g317
atp1418
Rp1419
sVparsing
p1420
g237
((lp1421
V8d57157a8189401297cb1433dcc8c8e1
p1422
atp1423
Rp1424
sVpa
p1425
g237
((lp1426
g317
atp1427
Rp1428
sVarsing
p1429
g237
((lp1430
g317
atp1431
Rp1432
sVpar
p1433
g237
((lp1434
g317
atp1435
Rp1436
sVrsing
p1437
g237
((lp1438
g317
atp1439
Rp1440
sVpars
p1441
g237
((lp1442
g317
atp1443
Rp1444
sVsing
p1445
g237
((lp1446
g317
atp1447
Rp1448
sVparsi
p1449
g237
((lp1450
g317
atp1451
Rp1452
sVing
p1453
g237
((lp1454
g317
atp1455
Rp1456
sVparsin
p1457
g237
((lp1458
g317
atp1459
Rp1460
sVng
p1461
g237
((lp1462
g317
atp1463
Rp1464
sVafter
p1465
g237
((lp1466
V8d57157a8189401297cb1433dcc8c8e1
p1467
atp1468
Rp1469
sVaf
p1470
g237
((lp1471
g317
atp1472
Rp1473
sVfter
p1474
g237
((lp1475
g317
atp1476
Rp1477
sVaft
p1478
g237
((lp1479
g317
atp1480
Rp1481
sVter
p1482
g237
((lp1483
g317
atp1484
Rp1485
sVafte
p1486
g237
((lp1487
g317
atp1488
Rp1489
sVapproval
p1490
g237
((lp1491
V8d57157a8189401297cb1433dcc8c8e1
p1492
atp1493
Rp1494
sVap
p1495
g237
((lp1496
g317
atp1497
Rp1498
sVpproval
p1499
g237
((lp1500
g317
atp1501
Rp1502
sVapp
p1503
g237
((lp1504
g317
atp1505
Rp1506
sVproval
p1507
g237
((lp1508
g317
atp1509
Rp1510
sVappr
p1511
g237
((lp1512
g317
atp1513
Rp1514
sVroval
p1515
g237
((lp1516
g317
atp1517
Rp1518
sVappro
p1519
g237
((lp1520
g317
atp1521
Rp1522
sVoval
p1523
g237
((lp1524
g317
atp1525
Rp1526
sVapprov
p1527
g237
((lp1528
g317
atp1529
Rp1530
sVval
p1531
g237
((lp1532
g317
atp1533
Rp1534
sVapprova
p1535
g237
((lp1536
g317
atp1537
Rp1538
sVal
p1539
g237
((lp1540
g317
atp1541
Rp1542
sValiases
p1543
g237
((lp1544
V8d57157a8189401297cb1433dcc8c8e1
p1545
atp1546
Rp1547
sVliases
p1548
g237
((lp1549
g317
atp1550
Rp1551
sVali
p1552
g237
((lp1553
g317
atp1554
Rp1555
sViases
p1556
g237
((lp1557
g317
atp1558
Rp1559
sValia
p1560
g237
((lp1561
g317
atp1562
Rp1563
sVases
p1564
g237
((lp1565
g317
atp1566
Rp1567
sValias
p1568
g237
((lp1569
g317
atp1570
Rp1571
sVses
p1572
g237
((lp1573
g317
atp1574
Rp1575
sValiase
p1576
g237
((lp1577
g317
atp1578
Rp1579
sVlater
p1580
g237
((lp1581
V8d57157a8189401297cb1433dcc8c8e1
p1582
atp1583
Rp1584
sVla
p1585
g237
((lp1586
g317
atp1587
Rp1588
sVater
p1589
g237
((lp1590
g317
atp1591
Rp1592
sVlat
p1593
g237
((lp1594
g317
atp1595
Rp1596
sVlate
p1597
g237
((lp1598
g317
atp1599
Rp1600
sVthis
p1601
g237
((lp1602
V8d57157a8189401297cb1433dcc8c8e1
p1603
atp1604
Rp1605
sVhis
p1606
g237
((lp1607
g317
atp1608
Rp1609
sVthi
p1610
g237
((lp1611
g317
atp1612
Rp1613
sVis
p1614
g237
((lp1615
g317
atp1616
Rp1617
sVadded
p1618
g237
((lp1619
V8d57157a8189401297cb1433dcc8c8e1
p1620
atp1621
Rp1622
sVad
p1623
g237
((lp1624
g317
atp1625
Rp1626
sVdded
p1627
g237
((lp1628
g317
atp1629
Rp1630
sVadd
p1631
g237
((lp1632
g317
atp1633
Rp1634
sVded
p1635
g237
((lp1636
g317
atp1637
Rp1638
sVadde
p1639
g237
((lp1640
g317
atp1641
Rp1642
sVagentfactory
p1643
g237
((lp1644
V8d57157a8189401297cb1433dcc8c8e1
p1645
atp1646
Rp1647
sVgentfactory
p1648
g237
((lp1649
g317
atp1650
Rp1651
sVentfactory
p1652
g237
((lp1653
g317
atp1654
Rp1655
sVntfactory
p1656
g237
((lp1657
g317
atp1658
Rp1659
sVtfactory
p1660
g237
((lp1661
g317
atp1662
Rp1663
sVagentf
p1664
g237
((lp1665
g317
atp1666
Rp1667
sVfactory
p1668
g237
((lp1669
g317
atp1670
Rp1671
sVagentfa
p1672
g237
((lp1673
g317
atp1674
Rp1675
sVactory
p1676
g237
((lp1677
g317
atp1678
Rp1679
sVagentfac
p1680
g237
((lp1681
g317
atp1682
Rp1683
sVctory
p1684
g237
((lp1685
g317
atp1686
Rp1687
sVagentfact
p1688
g237
((lp1689
g317
atp1690
Rp1691
sVtory
p1692
g237
((lp1693
g317
atp1694
Rp1695
sVagentfacto
p1696
g237
((lp1697
g317
atp1698
Rp1699
sVory
p1700
g237
((lp1701
g317
atp1702
Rp1703
sVagentfactor
p1704
g237
((lp1705
g317
atp1706
Rp1707
sVry
p1708
g237
((lp1709
g317
atp1710
Rp1711
sVy
p1712
g237
((lp1713
g317
atp1714
Rp1715
sVmodel
p1716
g237
((lp1717
V8d57157a8189401297cb1433dcc8c8e1
p1718
atp1719
Rp1720
sVodel
p1721
g237
((lp1722
g317
atp1723
Rp1724
sVdel
p1725
g237
((lp1726
g317
atp1727
Rp1728
sVel
p1729
g237
((lp1730
g317
atp1731
Rp1732
sVi
p1733
g237
((lp1734
g317
atp1735
Rp1736
ssVmap_nodes_by_mid
p1737
(dp1738
V770cc096cf344ef1bb02f6c19c60bee4
p1739
(dp1740
VMID
p1741
V770cc096cf344ef1bb02f6c19c60bee4
p1742
sg259
g262
ssV8d57157a8189401297cb1433dcc8c8e1
p1743
(dp1744
g1741
V8d57157a8189401297cb1433dcc8c8e1
p1745
sg281
g283
sssbsVng_source_content
p1746
Nsg323
I00
sV_tx_attrs
p1747
NsV_tx_peg_rule
p1748
Nsb.