ccopy_reg
_reconstructor
p0
(cstrictdoc.backend.sdoc.models.document
SDocDocument
p1
c__builtin__
object
p2
Ntp3
Rp4
(dp5
Vmid
p6
NsVtitle
p7
VDocument Knowledge Requirements
p8
sVconfig
p9
g0
(cstrictdoc.backend.sdoc.models.document_config
DocumentConfig
p10
g2
Ntp11
Rp12
(dp13
Vuid
p14
VGHOST-REQ-DOCUMENT-KNOWLEDGE
p15
sVversion
p16
V0.1-dummy
p17
sVdate
p18
NsVclassification
p19
NsVrequirement_prefix
p20
NsVroot
p21
NsVenable_mid
p22
NsVrelation_field
p23
NsVmarkup
p24
VText
p25
sVauto_levels
p26
I01
sVlayout
p27
NsVview_style_tag
p28
V
p29
sVrequirement_style
p30
NsVnode_in_toc_tag
p31
VNODE_IN_TOC
p32
sVrequirement_in_toc
p33
VTrue
p34
sVdefault_view
p35
NsVcustom_metadata
p36
NsV_tx_position
p37
I50
sV_tx_position_end
p38
I165
sVparent
p39
g4
sVng_auto_levels_specified
p40
I01
sVng_line_start
p41
I3
sVng_col_start
p42
I1
sbsVview
p43
g0
(cstrictdoc.backend.sdoc.models.document_view
DocumentView
p44
g2
Ntp45
Rp46
(dp47
g39
g4
sVviews
p48
(lp49
g0
(cstrictdoc.backend.sdoc.models.document_view
DefaultViewElement
p50
g2
Ntp51
Rp52
(dp53
g39
g46
sVview_id
p54
VNOT_RELEVANT
p55
sVtags
p56
(lp57
sVhidden_tags
p58
(lp59
sVname
p60
Nsbasg41
I29
sg42
I770
sbsVgrammar
p61
g0
(cstrictdoc.backend.sdoc.models.document_grammar
DocumentGrammar
p62
g2
Ntp63
Rp64
(dp65
g39
g4
sVelements
p66
(lp67
g0
(cstrictdoc.backend.sdoc.models.grammar_element
GrammarElement
p68
g2
Ntp69
Rp70
(dp71
g39
g64
sVtag
p72
VSECTION
p73
sVproperty_is_composite
p74
I01
sVproperty_prefix
p75
NsVproperty_view_style
p76
NsVproperty_view_style_lower
p77
NsVfields
p78
(lp79
g0
(cstrictdoc.backend.sdoc.models.grammar_element
GrammarElementFieldString
p80
g2
Ntp81
Rp82
(dp83
g7
VUID
p84
sVhuman_title
p85
NsVgef_type
p86
VString
p87
sVrequired
p88
I00
sg6
g0
(cstrictdoc.helpers.mid
MID
p89
c__builtin__
unicode
p90
Vee67e214ffb74028b157c82c0b9fdee8
p91
tp92
Rp93
sg39
Nsbag0
(g80
g2
Ntp94
Rp95
(dp96
g7
VLEVEL
p97
sg85
Nsg86
g87
sg88
I00
sg6
g0
(g89
g90
V92db33224ac542bdafff5072abfd03a0
p98
tp99
Rp100
sg39
Nsbag0
(g80
g2
Ntp101
Rp102
(dp103
g7
VPREFIX
p104
sg85
Nsg86
g87
sg88
I00
sg6
g0
(g89
g90
V950c539502ec40d4a7165d023abe463d
p105
tp106
Rp107
sg39
Nsbag0
(g80
g2
Ntp108
Rp109
(dp110
g7
VTITLE
p111
sg85
Nsg86
g87
sg88
I01
sg6
g0
(g89
g90
V7add03ffe7fc4a428bec7ca8d0b8f4ac
p112
tp113
Rp114
sg39
NsbasVrelations
p115
(lp116
sVfields_map
p117
ccollections
OrderedDict
p118
(tRp119
g84
g82
sg97
g95
sg104
g102
sg111
g109
ssVfield_titles
p120
(lp121
g84
ag97
ag104
ag111
asVcontent_field
p122
(g29
I-1
tp123
sV_multiline_field_index
p124
I4
sg6
g0
(g89
g90
V37b7c9410a874d47a1e3236333d59ed1
p125
tp126
Rp127
sg41
Nsg42
Nsbag0
(g68
g2
Ntp128
Rp129
(dp130
g39
g64
sg72
VTEXT
p131
sg74
Nsg75
Nsg76
Nsg77
Nsg78
(lp132
g0
(g80
g2
Ntp133
Rp134
(dp135
g7
g84
sg85
Nsg86
g87
sg88
I00
sg6
g0
(g89
g90
V5dc9e3d8679d4426982336d633a211e7
p136
tp137
Rp138
sg39
Nsbag0
(g80
g2
Ntp139
Rp140
(dp141
g7
VSTATEMENT
p142
sg85
Nsg86
g87
sg88
I01
sg6
g0
(g89
g90
V623cb679d6da4696b134a29e636d6a48
p143
tp144
Rp145
sg39
Nsbasg115
(lp146
sg117
g118
(tRp147
g84
g134
sg142
g140
ssg120
(lp148
g84
ag142
asg122
(g142
I1
tp149
sg124
I1
sg6
g0
(g89
g90
V30ace6254a0e481cbcd6e0a6b20bd261
p150
tp151
Rp152
sg41
Nsg42
Nsbag0
(g68
g2
Ntp153
Rp154
(dp155
g39
g64
sg72
VREQUIREMENT
p156
sg74
Nsg75
Nsg76
Nsg77
Nsg78
(lp157
g0
(g80
g2
Ntp158
Rp159
(dp160
g7
g84
sg85
Nsg86
g87
sg88
I00
sg6
g0
(g89
g90
V2d4602417a6f4baaa14b4a09da0a967c
p161
tp162
Rp163
sg39
Nsbag0
(g80
g2
Ntp164
Rp165
(dp166
g7
g97
sg85
Nsg86
g87
sg88
I00
sg6
g0
(g89
g90
Veb3ddacc1e1f40a5bf2d54a2b31f59bf
p167
tp168
Rp169
sg39
Nsbag0
(g80
g2
Ntp170
Rp171
(dp172
g7
VSTATUS
p173
sg85
Nsg86
g87
sg88
I00
sg6
g0
(g89
g90
V096eaedc8e4847b0b5ee64ec3a6e7e84
p174
tp175
Rp176
sg39
Nsbag0
(g80
g2
Ntp177
Rp178
(dp179
g7
VTAGS
p180
sg85
Nsg86
g87
sg88
I00
sg6
g0
(g89
g90
Vaa6c4d5abedc4162a42557f6a7ef5b87
p181
tp182
Rp183
sg39
Nsbag0
(g80
g2
Ntp184
Rp185
(dp186
g7
g111
sg85
Nsg86
g87
sg88
I00
sg6
g0
(g89
g90
V7084dd0e0eca4331b3c337b751082109
p187
tp188
Rp189
sg39
Nsbag0
(g80
g2
Ntp190
Rp191
(dp192
g7
g142
sg85
Nsg86
g87
sg88
I00
sg6
g0
(g89
g90
Vaf99ce733c1d4d4da25c81044acdf283
p193
tp194
Rp195
sg39
Nsbag0
(g80
g2
Ntp196
Rp197
(dp198
g7
VRATIONALE
p199
sg85
Nsg86
g87
sg88
I00
sg6
g0
(g89
g90
V85c8e94593224ef0a63ecf94ee03959f
p200
tp201
Rp202
sg39
Nsbag0
(g80
g2
Ntp203
Rp204
(dp205
g7
VCOMMENT
p206
sg85
Nsg86
g87
sg88
I00
sg6
g0
(g89
g90
V6ac1541298cf49c5b6e172e301e6a923
p207
tp208
Rp209
sg39
Nsbasg115
(lp210
g0
(cstrictdoc.backend.sdoc.models.grammar_element
GrammarElementRelationParent
p211
g2
Ntp212
Rp213
(dp214
g39
g154
sVrelation_type
p215
VParent
p216
sVrelation_role
p217
NsVreverse_relation_role
p218
Nsg6
g0
(g89
g90
Vf0b518ebafd5411eb2d67330e89731e6
p219
tp220
Rp221
sbag0
(cstrictdoc.backend.sdoc.models.grammar_element
GrammarElementRelationFile
p222
g2
Ntp223
Rp224
(dp225
g39
g154
sg215
VFile
p226
sg217
Nsg218
Nsg6
g0
(g89
g90
V1a2629c5885a4bb39eed074caae1f877
p227
tp228
Rp229
sbasg117
g118
(tRp230
g84
g159
sg97
g165
sg173
g171
sg180
g178
sg111
g185
sg142
g191
sg199
g197
sg206
g204
ssg120
(lp231
g84
ag97
ag173
ag180
ag111
ag142
ag199
ag206
asg122
(g142
I5
tp232
sg124
I5
sg6
g0
(g89
g90
Vde188eda75b34661ac32388fccef5ac2
p233
tp234
Rp235
sg41
Nsg42
NsbasVregistered_elements
p236
c__builtin__
set
p237
((lp238
g73
ag156
ag131
atp239
Rp240
sVelements_by_type
p241
(dp242
g73
g70
sg131
g129
sg156
g154
ssVimport_from_file
p243
NsVis_default
p244
I01
sg41
Nsg42
NsbsVsection_contents
p245
(lp246
g0
(cstrictdoc.backend.sdoc.models.node
SDocCompositeNode
p247
g2
Ntp248
Rp249
(dp250
Vnode_type
p251
VSECTION
p252
sg78
(lp253
g0
(cstrictdoc.backend.sdoc.models.node
SDocNodeField
p254
g2
Ntp255
Rp256
(dp257
Vfield_name
p258
VTITLE
p259
sVparts
p260
(lp261
VPlaceholder
p262
asVmultiline__
p263
g29
sg37
I178
sg38
I197
sg39
g249
sVmultiline
p264
I00
sVorigin
p265
cstrictdoc.backend.sdoc.models.node
SDocNodeFieldOrigin
p266
(VDOCUMENT
p267
tp268
Rp269
sbasg115
(lp270
sg245
(lp271
g0
(cstrictdoc.backend.sdoc.models.node
SDocNode
p272
g2
Ntp273
Rp274
(dp275
g251
VTEXT
p276
sg78
(lp277
g0
(g254
g2
Ntp278
Rp279
(dp280
g258
VSTATEMENT
p281
sg260
(lp282
VThis is a placeholder parent child requirements document for GHOST document knowledge.\u000a\u000aPlanned scope:\u000a- document ingestion\u000a- document retrieval\u000a- evidence selection\u000a- condensation\u000a- document-only reranking boundary\u000a- document upload/import boundary\u000a\u000aDetailed atomic requirements shall be placed in this file or in its deeper child files after human approval.\u000a
p283
asg263
V>>>\u000a
p284
sg37
I205
sg38
I584
sg39
g274
sg264
I01
sg265
g269
sbasg115
(lp285
sg37
I198
sg38
I584
sg39
g249
sVis_composite
p286
I00
sg245
(lp287
sVhas_meta
p288
I00
sVfields_as_parsed
p289
g277
sVordered_fields_lookup
p290
g118
(tRp291
g281
(lp292
g279
assVng_document_reference
p293
g0
(cstrictdoc.backend.sdoc.document_reference
DocumentReference
p294
g2
Ntp295
Rp296
(dp297
V_document
p298
g4
sbsVng_including_document_reference
p299
g0
(g294
g2
Ntp300
Rp301
(dp302
g298
Nsbsg41
I13
sVng_line_end
p303
I27
sg42
I1
sVng_col_end
p304
I1
sVng_byte_start
p305
I198
sVng_byte_end
p306
I584
sVcontext
p307
g0
(cstrictdoc.backend.sdoc.models.node
SDocNodeContext
p308
g2
Ntp309
Rp310
(dp311
Vtitle_number_string
p312
g29
sVng_level
p313
I2
sbsVreserved_mid
p314
g0
(g89
g90
V92b96e9f538144ff95242a32491d3c06
p315
tp316
Rp317
sVmid_permanent
p318
I00
sVng_resolved_custom_level
p319
VNone
p320
sVcustom_level
p321
NsVng_has_requirements
p322
I00
sVautogen
p323
I00
sbasVnode_type_close
p324
VSECTION
p325
sg37
I166
sg38
I598
sg39
g4
sg286
I01
sg288
I00
sg289
g253
sg290
g118
(tRp326
g259
(lp327
g256
assg293
g296
sg299
g301
sg41
I10
sg303
I29
sg42
I1
sg304
I1
sg305
I166
sg306
I598
sg307
g0
(g308
g2
Ntp328
Rp329
(dp330
g312
V1
p331
sg313
I1
sbsg314
g0
(g89
g90
V9aa0d1a5c80c4ed5ac9de0627bedd7f7
p332
tp333
Rp334
sg318
I00
sg319
Nsg321
Nsg322
I00
sg323
I00
sbasg37
I0
sg38
I598
sV_tx_filename
p335
V/home/rusbeh_ab/project/RAGstream/doc/01-Requirements/strictdoc/30_document_knowledge.sdoc
p336
sV_tx_metamodel
p337
NsV_tx_model_params
p338
NsV_tx_parser
p339
NsVreserved_title
p340
g8
sVis_bundle_document
p341
I00
sVfragments_from_files
p342
(lp343
sg322
I00
sVmeta
p344
Nsg314
g0
(g89
g90
Vf09640a908f24d309313a124498fcf07
p345
tp346
Rp347
sg318
I00
sVincluded_documents
p348
(lp349
sg307
g0
(g308
g2
Ntp350
Rp351
(dp352
g312
Nsg313
I0
sbsg299
g301
sVng_including_document_from_file
p353
NsVsearch_index
p354
g0
(cstrictdoc.backend.sdoc.models.document
SDocDocumentSearchIndex
p355
g2
Ntp356
Rp357
(dp358
Vdocument_index
p359
ccollections
defaultdict
p360
(g237
tp361
Rp362
Vplaceholder
p363
g237
((lp364
V92b96e9f538144ff95242a32491d3c06
p365
aV9aa0d1a5c80c4ed5ac9de0627bedd7f7
p366
atp367
Rp368
sVp
p369
g237
((lp370
g317
ag334
atp371
Rp372
sVpl
p373
g237
((lp374
g317
ag334
atp375
Rp376
sVlaceholder
p377
g237
((lp378
g317
ag334
atp379
Rp380
sVpla
p381
g237
((lp382
g317
ag334
atp383
Rp384
sVaceholder
p385
g237
((lp386
g317
ag334
atp387
Rp388
sVplac
p389
g237
((lp390
g317
ag334
atp391
Rp392
sVceholder
p393
g237
((lp394
g317
ag334
atp395
Rp396
sVplace
p397
g237
((lp398
g317
ag334
atp399
Rp400
sVeholder
p401
g237
((lp402
g317
ag334
atp403
Rp404
sVplaceh
p405
g237
((lp406
g317
ag334
atp407
Rp408
sVholder
p409
g237
((lp410
g317
ag334
atp411
Rp412
sVplaceho
p413
g237
((lp414
g317
ag334
atp415
Rp416
sVolder
p417
g237
((lp418
g317
ag334
atp419
Rp420
sVplacehol
p421
g237
((lp422
g317
ag334
atp423
Rp424
sVlder
p425
g237
((lp426
g317
ag334
atp427
Rp428
sVplacehold
p429
g237
((lp430
g317
ag334
atp431
Rp432
sVder
p433
g237
((lp434
g317
ag334
atp435
Rp436
sVplaceholde
p437
g237
((lp438
g317
ag334
atp439
Rp440
sVer
p441
g237
((lp442
g317
ag334
atp443
Rp444
sVr
p445
g237
((lp446
g317
ag334
atp447
Rp448
sVrequirements
p449
g237
((lp450
V92b96e9f538144ff95242a32491d3c06
p451
atp452
Rp453
sVre
p454
g237
((lp455
g317
atp456
Rp457
sVequirements
p458
g237
((lp459
g317
atp460
Rp461
sVreq
p462
g237
((lp463
g317
atp464
Rp465
sVquirements
p466
g237
((lp467
g317
atp468
Rp469
sVrequ
p470
g237
((lp471
g317
atp472
Rp473
sVuirements
p474
g237
((lp475
g317
atp476
Rp477
sVrequi
p478
g237
((lp479
g317
atp480
Rp481
sVirements
p482
g237
((lp483
g317
atp484
Rp485
sVrequir
p486
g237
((lp487
g317
atp488
Rp489
sVrements
p490
g237
((lp491
g317
atp492
Rp493
sVrequire
p494
g237
((lp495
g317
atp496
Rp497
sVements
p498
g237
((lp499
g317
atp500
Rp501
sVrequirem
p502
g237
((lp503
g317
atp504
Rp505
sVments
p506
g237
((lp507
g317
atp508
Rp509
sVrequireme
p510
g237
((lp511
g317
atp512
Rp513
sVents
p514
g237
((lp515
g317
atp516
Rp517
sVrequiremen
p518
g237
((lp519
g317
atp520
Rp521
sVnts
p522
g237
((lp523
g317
atp524
Rp525
sVrequirement
p526
g237
((lp527
g317
atp528
Rp529
sVts
p530
g237
((lp531
g317
atp532
Rp533
sVs
p534
g237
((lp535
g317
atp536
Rp537
sVor
p538
g237
((lp539
V92b96e9f538144ff95242a32491d3c06
p540
atp541
Rp542
sVo
p543
g237
((lp544
g317
atp545
Rp546
sVdocument
p547
g237
((lp548
V92b96e9f538144ff95242a32491d3c06
p549
atp550
Rp551
sVd
p552
g237
((lp553
g317
atp554
Rp555
sVdo
p556
g237
((lp557
g317
atp558
Rp559
sVocument
p560
g237
((lp561
g317
atp562
Rp563
sVdoc
p564
g237
((lp565
g317
atp566
Rp567
sVcument
p568
g237
((lp569
g317
atp570
Rp571
sVdocu
p572
g237
((lp573
g317
atp574
Rp575
sVument
p576
g237
((lp577
g317
atp578
Rp579
sVdocum
p580
g237
((lp581
g317
atp582
Rp583
sVment
p584
g237
((lp585
g317
atp586
Rp587
sVdocume
p588
g237
((lp589
g317
atp590
Rp591
sVent
p592
g237
((lp593
g317
atp594
Rp595
sVdocumen
p596
g237
((lp597
g317
atp598
Rp599
sVnt
p600
g237
((lp601
g317
atp602
Rp603
sVt
p604
g237
((lp605
g317
atp606
Rp607
sVghost
p608
g237
((lp609
V92b96e9f538144ff95242a32491d3c06
p610
atp611
Rp612
sVg
p613
g237
((lp614
g317
atp615
Rp616
sVgh
p617
g237
((lp618
g317
atp619
Rp620
sVhost
p621
g237
((lp622
g317
atp623
Rp624
sVgho
p625
g237
((lp626
g317
atp627
Rp628
sVost
p629
g237
((lp630
g317
atp631
Rp632
sVghos
p633
g237
((lp634
g317
atp635
Rp636
sVst
p637
g237
((lp638
g317
atp639
Rp640
sVchild
p641
g237
((lp642
V92b96e9f538144ff95242a32491d3c06
p643
atp644
Rp645
sVc
p646
g237
((lp647
g317
atp648
Rp649
sVch
p650
g237
((lp651
g317
atp652
Rp653
sVhild
p654
g237
((lp655
g317
atp656
Rp657
sVchi
p658
g237
((lp659
g317
atp660
Rp661
sVild
p662
g237
((lp663
g317
atp664
Rp665
sVchil
p666
g237
((lp667
g317
atp668
Rp669
sVld
p670
g237
((lp671
g317
atp672
Rp673
sVplaced
p674
g237
((lp675
V92b96e9f538144ff95242a32491d3c06
p676
atp677
Rp678
sVlaced
p679
g237
((lp680
g317
atp681
Rp682
sVaced
p683
g237
((lp684
g317
atp685
Rp686
sVced
p687
g237
((lp688
g317
atp689
Rp690
sVed
p691
g237
((lp692
g317
atp693
Rp694
sVdetailed
p695
g237
((lp696
V92b96e9f538144ff95242a32491d3c06
p697
atp698
Rp699
sVde
p700
g237
((lp701
g317
atp702
Rp703
sVetailed
p704
g237
((lp705
g317
atp706
Rp707
sVdet
p708
g237
((lp709
g317
atp710
Rp711
sVtailed
p712
g237
((lp713
g317
atp714
Rp715
sVdeta
p716
g237
((lp717
g317
atp718
Rp719
sVailed
p720
g237
((lp721
g317
atp722
Rp723
sVdetai
p724
g237
((lp725
g317
atp726
Rp727
sViled
p728
g237
((lp729
g317
atp730
Rp731
sVdetail
p732
g237
((lp733
g317
atp734
Rp735
sVled
p736
g237
((lp737
g317
atp738
Rp739
sVdetaile
p740
g237
((lp741
g317
atp742
Rp743
sVplanned
p744
g237
((lp745
V92b96e9f538144ff95242a32491d3c06
p746
atp747
Rp748
sVlanned
p749
g237
((lp750
g317
atp751
Rp752
sVanned
p753
g237
((lp754
g317
atp755
Rp756
sVplan
p757
g237
((lp758
g317
atp759
Rp760
sVnned
p761
g237
((lp762
g317
atp763
Rp764
sVplann
p765
g237
((lp766
g317
atp767
Rp768
sVned
p769
g237
((lp770
g317
atp771
Rp772
sVplanne
p773
g237
((lp774
g317
atp775
Rp776
sVfor
p777
g237
((lp778
V92b96e9f538144ff95242a32491d3c06
p779
atp780
Rp781
sVf
p782
g237
((lp783
g317
atp784
Rp785
sVfo
p786
g237
((lp787
g317
atp788
Rp789
sVbe
p790
g237
((lp791
V92b96e9f538144ff95242a32491d3c06
p792
atp793
Rp794
sVb
p795
g237
((lp796
g317
atp797
Rp798
sVe
p799
g237
((lp800
g317
atp801
Rp802
sVcondensation
p803
g237
((lp804
V92b96e9f538144ff95242a32491d3c06
p805
atp806
Rp807
sVco
p808
g237
((lp809
g317
atp810
Rp811
sVondensation
p812
g237
((lp813
g317
atp814
Rp815
sVcon
p816
g237
((lp817
g317
atp818
Rp819
sVndensation
p820
g237
((lp821
g317
atp822
Rp823
sVcond
p824
g237
((lp825
g317
atp826
Rp827
sVdensation
p828
g237
((lp829
g317
atp830
Rp831
sVconde
p832
g237
((lp833
g317
atp834
Rp835
sVensation
p836
g237
((lp837
g317
atp838
Rp839
sVconden
p840
g237
((lp841
g317
atp842
Rp843
sVnsation
p844
g237
((lp845
g317
atp846
Rp847
sVcondens
p848
g237
((lp849
g317
atp850
Rp851
sVsation
p852
g237
((lp853
g317
atp854
Rp855
sVcondensa
p856
g237
((lp857
g317
atp858
Rp859
sVation
p860
g237
((lp861
g317
atp862
Rp863
sVcondensat
p864
g237
((lp865
g317
atp866
Rp867
sVtion
p868
g237
((lp869
g317
atp870
Rp871
sVcondensati
p872
g237
((lp873
g317
atp874
Rp875
sVion
p876
g237
((lp877
g317
atp878
Rp879
sVcondensatio
p880
g237
((lp881
g317
atp882
Rp883
sVon
p884
g237
((lp885
g317
atp886
Rp887
sVn
p888
g237
((lp889
g317
atp890
Rp891
sVparent
p892
g237
((lp893
V92b96e9f538144ff95242a32491d3c06
p894
atp895
Rp896
sVpa
p897
g237
((lp898
g317
atp899
Rp900
sVarent
p901
g237
((lp902
g317
atp903
Rp904
sVpar
p905
g237
((lp906
g317
atp907
Rp908
sVrent
p909
g237
((lp910
g317
atp911
Rp912
sVpare
p913
g237
((lp914
g317
atp915
Rp916
sVparen
p917
g237
((lp918
g317
atp919
Rp920
sVfiles
p921
g237
((lp922
V92b96e9f538144ff95242a32491d3c06
p923
atp924
Rp925
sVfi
p926
g237
((lp927
g317
atp928
Rp929
sViles
p930
g237
((lp931
g317
atp932
Rp933
sVfil
p934
g237
((lp935
g317
atp936
Rp937
sVles
p938
g237
((lp939
g317
atp940
Rp941
sVfile
p942
g237
((lp943
g317
atp944
Rp945
sVes
p946
g237
((lp947
g317
atp948
Rp949
sVscope
p950
g237
((lp951
V92b96e9f538144ff95242a32491d3c06
p952
atp953
Rp954
sVsc
p955
g237
((lp956
g317
atp957
Rp958
sVcope
p959
g237
((lp960
g317
atp961
Rp962
sVsco
p963
g237
((lp964
g317
atp965
Rp966
sVope
p967
g237
((lp968
g317
atp969
Rp970
sVscop
p971
g237
((lp972
g317
atp973
Rp974
sVpe
p975
g237
((lp976
g317
atp977
Rp978
sVreranking
p979
g237
((lp980
V92b96e9f538144ff95242a32491d3c06
p981
atp982
Rp983
sVeranking
p984
g237
((lp985
g317
atp986
Rp987
sVrer
p988
g237
((lp989
g317
atp990
Rp991
sVranking
p992
g237
((lp993
g317
atp994
Rp995
sVrera
p996
g237
((lp997
g317
atp998
Rp999
sVanking
p1000
g237
((lp1001
g317
atp1002
Rp1003
sVreran
p1004
g237
((lp1005
g317
atp1006
Rp1007
sVnking
p1008
g237
((lp1009
g317
atp1010
Rp1011
sVrerank
p1012
g237
((lp1013
g317
atp1014
Rp1015
sVking
p1016
g237
((lp1017
g317
atp1018
Rp1019
sVreranki
p1020
g237
((lp1021
g317
atp1022
Rp1023
sVing
p1024
g237
((lp1025
g317
atp1026
Rp1027
sVrerankin
p1028
g237
((lp1029
g317
atp1030
Rp1031
sVng
p1032
g237
((lp1033
g317
atp1034
Rp1035
sVevidence
p1036
g237
((lp1037
V92b96e9f538144ff95242a32491d3c06
p1038
atp1039
Rp1040
sVev
p1041
g237
((lp1042
g317
atp1043
Rp1044
sVvidence
p1045
g237
((lp1046
g317
atp1047
Rp1048
sVevi
p1049
g237
((lp1050
g317
atp1051
Rp1052
sVidence
p1053
g237
((lp1054
g317
atp1055
Rp1056
sVevid
p1057
g237
((lp1058
g317
atp1059
Rp1060
sVdence
p1061
g237
((lp1062
g317
atp1063
Rp1064
sVevide
p1065
g237
((lp1066
g317
atp1067
Rp1068
sVence
p1069
g237
((lp1070
g317
atp1071
Rp1072
sVeviden
p1073
g237
((lp1074
g317
atp1075
Rp1076
sVnce
p1077
g237
((lp1078
g317
atp1079
Rp1080
sVevidenc
p1081
g237
((lp1082
g317
atp1083
Rp1084
sVce
p1085
g237
((lp1086
g317
atp1087
Rp1088
sVshall
p1089
g237
((lp1090
V92b96e9f538144ff95242a32491d3c06
p1091
atp1092
Rp1093
sVsh
p1094
g237
((lp1095
g317
atp1096
Rp1097
sVhall
p1098
g237
((lp1099
g317
atp1100
Rp1101
sVsha
p1102
g237
((lp1103
g317
atp1104
Rp1105
sVall
p1106
g237
((lp1107
g317
atp1108
Rp1109
sVshal
p1110
g237
((lp1111
g317
atp1112
Rp1113
sVll
p1114
g237
((lp1115
g317
atp1116
Rp1117
sVl
p1118
g237
((lp1119
g317
atp1120
Rp1121
sVatomic
p1122
g237
((lp1123
V92b96e9f538144ff95242a32491d3c06
p1124
atp1125
Rp1126
sVa
p1127
g237
((lp1128
g317
atp1129
Rp1130
sVat
p1131
g237
((lp1132
g317
atp1133
Rp1134
sVtomic
p1135
g237
((lp1136
g317
atp1137
Rp1138
sVato
p1139
g237
((lp1140
g317
atp1141
Rp1142
sVomic
p1143
g237
((lp1144
g317
atp1145
Rp1146
sVatom
p1147
g237
((lp1148
g317
atp1149
Rp1150
sVmic
p1151
g237
((lp1152
g317
atp1153
Rp1154
sVatomi
p1155
g237
((lp1156
g317
atp1157
Rp1158
sVic
p1159
g237
((lp1160
g317
atp1161
Rp1162
sVhuman
p1163
g237
((lp1164
V92b96e9f538144ff95242a32491d3c06
p1165
atp1166
Rp1167
sVh
p1168
g237
((lp1169
g317
atp1170
Rp1171
sVhu
p1172
g237
((lp1173
g317
atp1174
Rp1175
sVuman
p1176
g237
((lp1177
g317
atp1178
Rp1179
sVhum
p1180
g237
((lp1181
g317
atp1182
Rp1183
sVman
p1184
g237
((lp1185
g317
atp1186
Rp1187
sVhuma
p1188
g237
((lp1189
g317
atp1190
Rp1191
sVan
p1192
g237
((lp1193
g317
atp1194
Rp1195
sVafter
p1196
g237
((lp1197
V92b96e9f538144ff95242a32491d3c06
p1198
atp1199
Rp1200
sVaf
p1201
g237
((lp1202
g317
atp1203
Rp1204
sVfter
p1205
g237
((lp1206
g317
atp1207
Rp1208
sVaft
p1209
g237
((lp1210
g317
atp1211
Rp1212
sVter
p1213
g237
((lp1214
g317
atp1215
Rp1216
sVafte
p1217
g237
((lp1218
g317
atp1219
Rp1220
sVin
p1221
g237
((lp1222
V92b96e9f538144ff95242a32491d3c06
p1223
atp1224
Rp1225
sVi
p1226
g237
((lp1227
g317
atp1228
Rp1229
sVapproval
p1230
g237
((lp1231
V92b96e9f538144ff95242a32491d3c06
p1232
atp1233
Rp1234
sVap
p1235
g237
((lp1236
g317
atp1237
Rp1238
sVpproval
p1239
g237
((lp1240
g317
atp1241
Rp1242
sVapp
p1243
g237
((lp1244
g317
atp1245
Rp1246
sVproval
p1247
g237
((lp1248
g317
atp1249
Rp1250
sVappr
p1251
g237
((lp1252
g317
atp1253
Rp1254
sVroval
p1255
g237
((lp1256
g317
atp1257
Rp1258
sVappro
p1259
g237
((lp1260
g317
atp1261
Rp1262
sVoval
p1263
g237
((lp1264
g317
atp1265
Rp1266
sVapprov
p1267
g237
((lp1268
g317
atp1269
Rp1270
sVval
p1271
g237
((lp1272
g317
atp1273
Rp1274
sVapprova
p1275
g237
((lp1276
g317
atp1277
Rp1278
sVal
p1279
g237
((lp1280
g317
atp1281
Rp1282
sVdocument-only
p1283
g237
((lp1284
V92b96e9f538144ff95242a32491d3c06
p1285
atp1286
Rp1287
sVocument-only
p1288
g237
((lp1289
g317
atp1290
Rp1291
sVcument-only
p1292
g237
((lp1293
g317
atp1294
Rp1295
sVument-only
p1296
g237
((lp1297
g317
atp1298
Rp1299
sVment-only
p1300
g237
((lp1301
g317
atp1302
Rp1303
sVent-only
p1304
g237
((lp1305
g317
atp1306
Rp1307
sVnt-only
p1308
g237
((lp1309
g317
atp1310
Rp1311
sVt-only
p1312
g237
((lp1313
g317
atp1314
Rp1315
sVdocument-
p1316
g237
((lp1317
g317
atp1318
Rp1319
sV-only
p1320
g237
((lp1321
g317
atp1322
Rp1323
sVdocument-o
p1324
g237
((lp1325
g317
atp1326
Rp1327
sVonly
p1328
g237
((lp1329
g317
atp1330
Rp1331
sVdocument-on
p1332
g237
((lp1333
g317
atp1334
Rp1335
sVnly
p1336
g237
((lp1337
g317
atp1338
Rp1339
sVdocument-onl
p1340
g237
((lp1341
g317
atp1342
Rp1343
sVly
p1344
g237
((lp1345
g317
atp1346
Rp1347
sVy
p1348
g237
((lp1349
g317
atp1350
Rp1351
sVknowledge
p1352
g237
((lp1353
V92b96e9f538144ff95242a32491d3c06
p1354
atp1355
Rp1356
sVk
p1357
g237
((lp1358
g317
atp1359
Rp1360
sVkn
p1361
g237
((lp1362
g317
atp1363
Rp1364
sVnowledge
p1365
g237
((lp1366
g317
atp1367
Rp1368
sVkno
p1369
g237
((lp1370
g317
atp1371
Rp1372
sVowledge
p1373
g237
((lp1374
g317
atp1375
Rp1376
sVknow
p1377
g237
((lp1378
g317
atp1379
Rp1380
sVwledge
p1381
g237
((lp1382
g317
atp1383
Rp1384
sVknowl
p1385
g237
((lp1386
g317
atp1387
Rp1388
sVledge
p1389
g237
((lp1390
g317
atp1391
Rp1392
sVknowle
p1393
g237
((lp1394
g317
atp1395
Rp1396
sVedge
p1397
g237
((lp1398
g317
atp1399
Rp1400
sVknowled
p1401
g237
((lp1402
g317
atp1403
Rp1404
sVdge
p1405
g237
((lp1406
g317
atp1407
Rp1408
sVknowledg
p1409
g237
((lp1410
g317
atp1411
Rp1412
sVge
p1413
g237
((lp1414
g317
atp1415
Rp1416
sVboundary
p1417
g237
((lp1418
V92b96e9f538144ff95242a32491d3c06
p1419
atp1420
Rp1421
sVbo
p1422
g237
((lp1423
g317
atp1424
Rp1425
sVoundary
p1426
g237
((lp1427
g317
atp1428
Rp1429
sVbou
p1430
g237
((lp1431
g317
atp1432
Rp1433
sVundary
p1434
g237
((lp1435
g317
atp1436
Rp1437
sVboun
p1438
g237
((lp1439
g317
atp1440
Rp1441
sVndary
p1442
g237
((lp1443
g317
atp1444
Rp1445
sVbound
p1446
g237
((lp1447
g317
atp1448
Rp1449
sVdary
p1450
g237
((lp1451
g317
atp1452
Rp1453
sVbounda
p1454
g237
((lp1455
g317
atp1456
Rp1457
sVary
p1458
g237
((lp1459
g317
atp1460
Rp1461
sVboundar
p1462
g237
((lp1463
g317
atp1464
Rp1465
sVry
p1466
g237
((lp1467
g317
atp1468
Rp1469
sVretrieval
p1470
g237
((lp1471
V92b96e9f538144ff95242a32491d3c06
p1472
atp1473
Rp1474
sVetrieval
p1475
g237
((lp1476
g317
atp1477
Rp1478
sVret
p1479
g237
((lp1480
g317
atp1481
Rp1482
sVtrieval
p1483
g237
((lp1484
g317
atp1485
Rp1486
sVretr
p1487
g237
((lp1488
g317
atp1489
Rp1490
sVrieval
p1491
g237
((lp1492
g317
atp1493
Rp1494
sVretri
p1495
g237
((lp1496
g317
atp1497
Rp1498
sVieval
p1499
g237
((lp1500
g317
atp1501
Rp1502
sVretrie
p1503
g237
((lp1504
g317
atp1505
Rp1506
sVeval
p1507
g237
((lp1508
g317
atp1509
Rp1510
sVretriev
p1511
g237
((lp1512
g317
atp1513
Rp1514
sVretrieva
p1515
g237
((lp1516
g317
atp1517
Rp1518
sVupload/import
p1519
g237
((lp1520
V92b96e9f538144ff95242a32491d3c06
p1521
atp1522
Rp1523
sVu
p1524
g237
((lp1525
g317
atp1526
Rp1527
sVup
p1528
g237
((lp1529
g317
atp1530
Rp1531
sVpload/import
p1532
g237
((lp1533
g317
atp1534
Rp1535
sVupl
p1536
g237
((lp1537
g317
atp1538
Rp1539
sVload/import
p1540
g237
((lp1541
g317
atp1542
Rp1543
sVuplo
p1544
g237
((lp1545
g317
atp1546
Rp1547
sVoad/import
p1548
g237
((lp1549
g317
atp1550
Rp1551
sVuploa
p1552
g237
((lp1553
g317
atp1554
Rp1555
sVad/import
p1556
g237
((lp1557
g317
atp1558
Rp1559
sVupload
p1560
g237
((lp1561
g317
atp1562
Rp1563
sVd/import
p1564
g237
((lp1565
g317
atp1566
Rp1567
sVupload/
p1568
g237
((lp1569
g317
atp1570
Rp1571
sV/import
p1572
g237
((lp1573
g317
atp1574
Rp1575
sVupload/i
p1576
g237
((lp1577
g317
atp1578
Rp1579
sVimport
p1580
g237
((lp1581
g317
atp1582
Rp1583
sVupload/im
p1584
g237
((lp1585
g317
atp1586
Rp1587
sVmport
p1588
g237
((lp1589
g317
atp1590
Rp1591
sVupload/imp
p1592
g237
((lp1593
g317
atp1594
Rp1595
sVport
p1596
g237
((lp1597
g317
atp1598
Rp1599
sVupload/impo
p1600
g237
((lp1601
g317
atp1602
Rp1603
sVort
p1604
g237
((lp1605
g317
atp1606
Rp1607
sVupload/impor
p1608
g237
((lp1609
g317
atp1610
Rp1611
sVrt
p1612
g237
((lp1613
g317
atp1614
Rp1615
sVthis
p1616
g237
((lp1617
V92b96e9f538144ff95242a32491d3c06
p1618
atp1619
Rp1620
sVth
p1621
g237
((lp1622
g317
atp1623
Rp1624
sVhis
p1625
g237
((lp1626
g317
atp1627
Rp1628
sVthi
p1629
g237
((lp1630
g317
atp1631
Rp1632
sVis
p1633
g237
((lp1634
g317
atp1635
Rp1636
sVselection
p1637
g237
((lp1638
V92b96e9f538144ff95242a32491d3c06
p1639
atp1640
Rp1641
sVse
p1642
g237
((lp1643
g317
atp1644
Rp1645
sVelection
p1646
g237
((lp1647
g317
atp1648
Rp1649
sVsel
p1650
g237
((lp1651
g317
atp1652
Rp1653
sVlection
p1654
g237
((lp1655
g317
atp1656
Rp1657
sVsele
p1658
g237
((lp1659
g317
atp1660
Rp1661
sVection
p1662
g237
((lp1663
g317
atp1664
Rp1665
sVselec
p1666
g237
((lp1667
g317
atp1668
Rp1669
sVction
p1670
g237
((lp1671
g317
atp1672
Rp1673
sVselect
p1674
g237
((lp1675
g317
atp1676
Rp1677
sVselecti
p1678
g237
((lp1679
g317
atp1680
Rp1681
sVselectio
p1682
g237
((lp1683
g317
atp1684
Rp1685
sVingestion
p1686
g237
((lp1687
V92b96e9f538144ff95242a32491d3c06
p1688
atp1689
Rp1690
sVngestion
p1691
g237
((lp1692
g317
atp1693
Rp1694
sVgestion
p1695
g237
((lp1696
g317
atp1697
Rp1698
sVinge
p1699
g237
((lp1700
g317
atp1701
Rp1702
sVestion
p1703
g237
((lp1704
g317
atp1705
Rp1706
sVinges
p1707
g237
((lp1708
g317
atp1709
Rp1710
sVstion
p1711
g237
((lp1712
g317
atp1713
Rp1714
sVingest
p1715
g237
((lp1716
g317
atp1717
Rp1718
sVingesti
p1719
g237
((lp1720
g317
atp1721
Rp1722
sVingestio
p1723
g237
((lp1724
g317
atp1725
Rp1726
sVile
p1727
g237
((lp1728
g317
atp1729
Rp1730
sVle
p1731
g237
((lp1732
g317
atp1733
Rp1734
sVits
p1735
g237
((lp1736
V92b96e9f538144ff95242a32491d3c06
p1737
atp1738
Rp1739
sVit
p1740
g237
((lp1741
g317
atp1742
Rp1743
sVdeeper
p1744
g237
((lp1745
V92b96e9f538144ff95242a32491d3c06
p1746
atp1747
Rp1748
sVeeper
p1749
g237
((lp1750
g317
atp1751
Rp1752
sVdee
p1753
g237
((lp1754
g317
atp1755
Rp1756
sVeper
p1757
g237
((lp1758
g317
atp1759
Rp1760
sVdeep
p1761
g237
((lp1762
g317
atp1763
Rp1764
sVper
p1765
g237
((lp1766
g317
atp1767
Rp1768
sVdeepe
p1769
g237
((lp1770
g317
atp1771
Rp1772
ssVmap_nodes_by_mid
p1773
(dp1774
V9aa0d1a5c80c4ed5ac9de0627bedd7f7
p1775
(dp1776
VMID
p1777
V9aa0d1a5c80c4ed5ac9de0627bedd7f7
p1778
sg259
g262
ssV92b96e9f538144ff95242a32491d3c06
p1779
(dp1780
g1777
V92b96e9f538144ff95242a32491d3c06
p1781
sg281
g283
sssbsVng_source_content
p1782
Nsg323
I00
sV_tx_attrs
p1783
NsV_tx_peg_rule
p1784
Nsb.