ccopy_reg
_reconstructor
p0
(cstrictdoc.backend.sdoc.models.document
SDocDocument
p1
c__builtin__
object
p2
Ntp3
Rp4
(dp5
Vmid
p6
NsVtitle
p7
VDocument Ingestion Requirements
p8
sVconfig
p9
g0
(cstrictdoc.backend.sdoc.models.document_config
DocumentConfig
p10
g2
Ntp11
Rp12
(dp13
Vuid
p14
VGHOST-REQ-DOCUMENT-INGESTION
p15
sVversion
p16
V0.1-dummy
p17
sVdate
p18
NsVclassification
p19
NsVrequirement_prefix
p20
NsVroot
p21
NsVenable_mid
p22
NsVrelation_field
p23
NsVmarkup
p24
VText
p25
sVauto_levels
p26
I01
sVlayout
p27
NsVview_style_tag
p28
V
p29
sVrequirement_style
p30
NsVnode_in_toc_tag
p31
VNODE_IN_TOC
p32
sVrequirement_in_toc
p33
VTrue
p34
sVdefault_view
p35
NsVcustom_metadata
p36
NsV_tx_position
p37
I50
sV_tx_position_end
p38
I165
sVparent
p39
g4
sVng_auto_levels_specified
p40
I01
sVng_line_start
p41
I3
sVng_col_start
p42
I1
sbsVview
p43
g0
(cstrictdoc.backend.sdoc.models.document_view
DocumentView
p44
g2
Ntp45
Rp46
(dp47
g39
g4
sVviews
p48
(lp49
g0
(cstrictdoc.backend.sdoc.models.document_view
DefaultViewElement
p50
g2
Ntp51
Rp52
(dp53
g39
g46
sVview_id
p54
VNOT_RELEVANT
p55
sVtags
p56
(lp57
sVhidden_tags
p58
(lp59
sVname
p60
Nsbasg41
I31
sg42
I798
sbsVgrammar
p61
g0
(cstrictdoc.backend.sdoc.models.document_grammar
DocumentGrammar
p62
g2
Ntp63
Rp64
(dp65
g39
g4
sVelements
p66
(lp67
g0
(cstrictdoc.backend.sdoc.models.grammar_element
GrammarElement
p68
g2
Ntp69
Rp70
(dp71
g39
g64
sVtag
p72
VSECTION
p73
sVproperty_is_composite
p74
I01
sVproperty_prefix
p75
NsVproperty_view_style
p76
NsVproperty_view_style_lower
p77
NsVfields
p78
(lp79
g0
(cstrictdoc.backend.sdoc.models.grammar_element
GrammarElementFieldString
p80
g2
Ntp81
Rp82
(dp83
g7
VUID
p84
sVhuman_title
p85
NsVgef_type
p86
VString
p87
sVrequired
p88
I00
sg6
g0
(cstrictdoc.helpers.mid
MID
p89
c__builtin__
unicode
p90
Vf2efcad54bbe430eb66aca9f361c912d
p91
tp92
Rp93
sg39
Nsbag0
(g80
g2
Ntp94
Rp95
(dp96
g7
VLEVEL
p97
sg85
Nsg86
g87
sg88
I00
sg6
g0
(g89
g90
V28601c4dec5249c7ae1575acdc30977c
p98
tp99
Rp100
sg39
Nsbag0
(g80
g2
Ntp101
Rp102
(dp103
g7
VPREFIX
p104
sg85
Nsg86
g87
sg88
I00
sg6
g0
(g89
g90
V0558e2dbbd1b4b1d954fe337b752b05b
p105
tp106
Rp107
sg39
Nsbag0
(g80
g2
Ntp108
Rp109
(dp110
g7
VTITLE
p111
sg85
Nsg86
g87
sg88
I01
sg6
g0
(g89
g90
Vec0a564ae24d473d997933c10fd89df2
p112
tp113
Rp114
sg39
NsbasVrelations
p115
(lp116
sVfields_map
p117
ccollections
OrderedDict
p118
(tRp119
g84
g82
sg97
g95
sg104
g102
sg111
g109
ssVfield_titles
p120
(lp121
g84
ag97
ag104
ag111
asVcontent_field
p122
(g29
I-1
tp123
sV_multiline_field_index
p124
I4
sg6
g0
(g89
g90
Vd2234a704bbe4eaf997addbc3534a978
p125
tp126
Rp127
sg41
Nsg42
Nsbag0
(g68
g2
Ntp128
Rp129
(dp130
g39
g64
sg72
VTEXT
p131
sg74
Nsg75
Nsg76
Nsg77
Nsg78
(lp132
g0
(g80
g2
Ntp133
Rp134
(dp135
g7
g84
sg85
Nsg86
g87
sg88
I00
sg6
g0
(g89
g90
Va64a3e32b22b457f8850e80d57bedf11
p136
tp137
Rp138
sg39
Nsbag0
(g80
g2
Ntp139
Rp140
(dp141
g7
VSTATEMENT
p142
sg85
Nsg86
g87
sg88
I01
sg6
g0
(g89
g90
V8b299dcf4ee94474923ce6ca6c5ac5fd
p143
tp144
Rp145
sg39
Nsbasg115
(lp146
sg117
g118
(tRp147
g84
g134
sg142
g140
ssg120
(lp148
g84
ag142
asg122
(g142
I1
tp149
sg124
I1
sg6
g0
(g89
g90
Vb02bb4935dd4409f935717ab596a3a8d
p150
tp151
Rp152
sg41
Nsg42
Nsbag0
(g68
g2
Ntp153
Rp154
(dp155
g39
g64
sg72
VREQUIREMENT
p156
sg74
Nsg75
Nsg76
Nsg77
Nsg78
(lp157
g0
(g80
g2
Ntp158
Rp159
(dp160
g7
g84
sg85
Nsg86
g87
sg88
I00
sg6
g0
(g89
g90
V1501434b1f6e4956a913007d5285bc56
p161
tp162
Rp163
sg39
Nsbag0
(g80
g2
Ntp164
Rp165
(dp166
g7
g97
sg85
Nsg86
g87
sg88
I00
sg6
g0
(g89
g90
Vb08aa8f124a247609ee3ae5326383282
p167
tp168
Rp169
sg39
Nsbag0
(g80
g2
Ntp170
Rp171
(dp172
g7
VSTATUS
p173
sg85
Nsg86
g87
sg88
I00
sg6
g0
(g89
g90
Vaf0a81302e4144eab6c82e801668a443
p174
tp175
Rp176
sg39
Nsbag0
(g80
g2
Ntp177
Rp178
(dp179
g7
VTAGS
p180
sg85
Nsg86
g87
sg88
I00
sg6
g0
(g89
g90
V5f1edb33d3ff4fd88dd253f75e7d7611
p181
tp182
Rp183
sg39
Nsbag0
(g80
g2
Ntp184
Rp185
(dp186
g7
g111
sg85
Nsg86
g87
sg88
I00
sg6
g0
(g89
g90
Va53c6ef0e82649c988daaf7d8782e742
p187
tp188
Rp189
sg39
Nsbag0
(g80
g2
Ntp190
Rp191
(dp192
g7
g142
sg85
Nsg86
g87
sg88
I00
sg6
g0
(g89
g90
Vd0473acf96204ecd8eab88167ff4ce52
p193
tp194
Rp195
sg39
Nsbag0
(g80
g2
Ntp196
Rp197
(dp198
g7
VRATIONALE
p199
sg85
Nsg86
g87
sg88
I00
sg6
g0
(g89
g90
V225fd851ae1245cbbacbcb99365ee25c
p200
tp201
Rp202
sg39
Nsbag0
(g80
g2
Ntp203
Rp204
(dp205
g7
VCOMMENT
p206
sg85
Nsg86
g87
sg88
I00
sg6
g0
(g89
g90
V5cad7b1e8a26456293ed106e5a46bc2f
p207
tp208
Rp209
sg39
Nsbasg115
(lp210
g0
(cstrictdoc.backend.sdoc.models.grammar_element
GrammarElementRelationParent
p211
g2
Ntp212
Rp213
(dp214
g39
g154
sVrelation_type
p215
VParent
p216
sVrelation_role
p217
NsVreverse_relation_role
p218
Nsg6
g0
(g89
g90
V52f0493da81f4095926487f6abc50b14
p219
tp220
Rp221
sbag0
(cstrictdoc.backend.sdoc.models.grammar_element
GrammarElementRelationFile
p222
g2
Ntp223
Rp224
(dp225
g39
g154
sg215
VFile
p226
sg217
Nsg218
Nsg6
g0
(g89
g90
V3a446370a03b4c1dbcb3da6a99fbf65c
p227
tp228
Rp229
sbasg117
g118
(tRp230
g84
g159
sg97
g165
sg173
g171
sg180
g178
sg111
g185
sg142
g191
sg199
g197
sg206
g204
ssg120
(lp231
g84
ag97
ag173
ag180
ag111
ag142
ag199
ag206
asg122
(g142
I5
tp232
sg124
I5
sg6
g0
(g89
g90
Vfbace301a9cc4b5aaedc3633c8109ff1
p233
tp234
Rp235
sg41
Nsg42
NsbasVregistered_elements
p236
c__builtin__
set
p237
((lp238
g73
ag156
ag131
atp239
Rp240
sVelements_by_type
p241
(dp242
g73
g70
sg131
g129
sg156
g154
ssVimport_from_file
p243
NsVis_default
p244
I01
sg41
Nsg42
NsbsVsection_contents
p245
(lp246
g0
(cstrictdoc.backend.sdoc.models.node
SDocCompositeNode
p247
g2
Ntp248
Rp249
(dp250
Vnode_type
p251
VSECTION
p252
sg78
(lp253
g0
(cstrictdoc.backend.sdoc.models.node
SDocNodeField
p254
g2
Ntp255
Rp256
(dp257
Vfield_name
p258
VTITLE
p259
sVparts
p260
(lp261
VPlaceholder
p262
asVmultiline__
p263
g29
sg37
I178
sg38
I197
sg39
g249
sVmultiline
p264
I00
sVorigin
p265
cstrictdoc.backend.sdoc.models.node
SDocNodeFieldOrigin
p266
(VDOCUMENT
p267
tp268
Rp269
sbasg115
(lp270
sg245
(lp271
g0
(cstrictdoc.backend.sdoc.models.node
SDocNode
p272
g2
Ntp273
Rp274
(dp275
g251
VTEXT
p276
sg78
(lp277
g0
(g254
g2
Ntp278
Rp279
(dp280
g258
VSTATEMENT
p281
sg260
(lp282
VThis is a placeholder child requirements document for GHOST document ingestion.\u000a\u000aPlanned scope:\u000a- project-scoped ingestion\u000a- chunking\u000a- metadata\u000a- embeddings\u000a- optional sparse representations\u000a- stable chunk IDs\u000a- file manifests\u000a- supported file-type boundary\u000a\u000aDetailed atomic requirements shall be added later after human approval.\u000a
p283
asg263
V>>>\u000a
p284
sg37
I205
sg38
I556
sg39
g274
sg264
I01
sg265
g269
sbasg115
(lp285
sg37
I198
sg38
I556
sg39
g249
sVis_composite
p286
I00
sg245
(lp287
sVhas_meta
p288
I00
sVfields_as_parsed
p289
g277
sVordered_fields_lookup
p290
g118
(tRp291
g281
(lp292
g279
assVng_document_reference
p293
g0
(cstrictdoc.backend.sdoc.document_reference
DocumentReference
p294
g2
Ntp295
Rp296
(dp297
V_document
p298
g4
sbsVng_including_document_reference
p299
g0
(g294
g2
Ntp300
Rp301
(dp302
g298
Nsbsg41
I13
sVng_line_end
p303
I29
sg42
I1
sVng_col_end
p304
I1
sVng_byte_start
p305
I198
sVng_byte_end
p306
I556
sVcontext
p307
g0
(cstrictdoc.backend.sdoc.models.node
SDocNodeContext
p308
g2
Ntp309
Rp310
(dp311
Vtitle_number_string
p312
g29
sVng_level
p313
I2
sbsVreserved_mid
p314
g0
(g89
g90
V4e28f511c2974fdbbe79440faef2ad8e
p315
tp316
Rp317
sVmid_permanent
p318
I00
sVng_resolved_custom_level
p319
VNone
p320
sVcustom_level
p321
NsVng_has_requirements
p322
I00
sVautogen
p323
I00
sbasVnode_type_close
p324
VSECTION
p325
sg37
I166
sg38
I570
sg39
g4
sg286
I01
sg288
I00
sg289
g253
sg290
g118
(tRp326
g259
(lp327
g256
assg293
g296
sg299
g301
sg41
I10
sg303
I31
sg42
I1
sg304
I1
sg305
I166
sg306
I570
sg307
g0
(g308
g2
Ntp328
Rp329
(dp330
g312
V1
p331
sg313
I1
sbsg314
g0
(g89
g90
Vaee27f995db546a4867014fd4e9c17df
p332
tp333
Rp334
sg318
I00
sg319
Nsg321
Nsg322
I00
sg323
I00
sbasg37
I0
sg38
I570
sV_tx_filename
p335
V/home/rusbeh_ab/project/RAGstream/doc/01-Requirements/strictdoc/31_document_ingestion.sdoc
p336
sV_tx_metamodel
p337
NsV_tx_model_params
p338
NsV_tx_parser
p339
NsVreserved_title
p340
g8
sVis_bundle_document
p341
I00
sVfragments_from_files
p342
(lp343
sg322
I00
sVmeta
p344
Nsg314
g0
(g89
g90
Vfb119ba335d045ffacfa8969452d8d41
p345
tp346
Rp347
sg318
I00
sVincluded_documents
p348
(lp349
sg307
g0
(g308
g2
Ntp350
Rp351
(dp352
g312
Nsg313
I0
sbsg299
g301
sVng_including_document_from_file
p353
NsVsearch_index
p354
g0
(cstrictdoc.backend.sdoc.models.document
SDocDocumentSearchIndex
p355
g2
Ntp356
Rp357
(dp358
Vdocument_index
p359
ccollections
defaultdict
p360
(g237
tp361
Rp362
Vplaceholder
p363
g237
((lp364
Vaee27f995db546a4867014fd4e9c17df
p365
aV4e28f511c2974fdbbe79440faef2ad8e
p366
atp367
Rp368
sVp
p369
g237
((lp370
g334
ag317
atp371
Rp372
sVpl
p373
g237
((lp374
g334
ag317
atp375
Rp376
sVlaceholder
p377
g237
((lp378
g334
ag317
atp379
Rp380
sVpla
p381
g237
((lp382
g334
ag317
atp383
Rp384
sVaceholder
p385
g237
((lp386
g334
ag317
atp387
Rp388
sVplac
p389
g237
((lp390
g334
ag317
atp391
Rp392
sVceholder
p393
g237
((lp394
g334
ag317
atp395
Rp396
sVplace
p397
g237
((lp398
g334
ag317
atp399
Rp400
sVeholder
p401
g237
((lp402
g334
ag317
atp403
Rp404
sVplaceh
p405
g237
((lp406
g334
ag317
atp407
Rp408
sVholder
p409
g237
((lp410
g334
ag317
atp411
Rp412
sVplaceho
p413
g237
((lp414
g334
ag317
atp415
Rp416
sVolder
p417
g237
((lp418
g334
ag317
atp419
Rp420
sVplacehol
p421
g237
((lp422
g334
ag317
atp423
Rp424
sVlder
p425
g237
((lp426
g334
ag317
atp427
Rp428
sVplacehold
p429
g237
((lp430
g334
ag317
atp431
Rp432
sVder
p433
g237
((lp434
g334
ag317
atp435
Rp436
sVplaceholde
p437
g237
((lp438
g334
ag317
atp439
Rp440
sVer
p441
g237
((lp442
g334
ag317
atp443
Rp444
sVr
p445
g237
((lp446
g334
ag317
atp447
Rp448
sVrequirements
p449
g237
((lp450
V4e28f511c2974fdbbe79440faef2ad8e
p451
atp452
Rp453
sVre
p454
g237
((lp455
g317
atp456
Rp457
sVequirements
p458
g237
((lp459
g317
atp460
Rp461
sVreq
p462
g237
((lp463
g317
atp464
Rp465
sVquirements
p466
g237
((lp467
g317
atp468
Rp469
sVrequ
p470
g237
((lp471
g317
atp472
Rp473
sVuirements
p474
g237
((lp475
g317
atp476
Rp477
sVrequi
p478
g237
((lp479
g317
atp480
Rp481
sVirements
p482
g237
((lp483
g317
atp484
Rp485
sVrequir
p486
g237
((lp487
g317
atp488
Rp489
sVrements
p490
g237
((lp491
g317
atp492
Rp493
sVrequire
p494
g237
((lp495
g317
atp496
Rp497
sVements
p498
g237
((lp499
g317
atp500
Rp501
sVrequirem
p502
g237
((lp503
g317
atp504
Rp505
sVments
p506
g237
((lp507
g317
atp508
Rp509
sVrequireme
p510
g237
((lp511
g317
atp512
Rp513
sVents
p514
g237
((lp515
g317
atp516
Rp517
sVrequiremen
p518
g237
((lp519
g317
atp520
Rp521
sVnts
p522
g237
((lp523
g317
atp524
Rp525
sVrequirement
p526
g237
((lp527
g317
atp528
Rp529
sVts
p530
g237
((lp531
g317
atp532
Rp533
sVs
p534
g237
((lp535
g317
atp536
Rp537
sVdocument
p538
g237
((lp539
V4e28f511c2974fdbbe79440faef2ad8e
p540
atp541
Rp542
sVd
p543
g237
((lp544
g317
atp545
Rp546
sVdo
p547
g237
((lp548
g317
atp549
Rp550
sVocument
p551
g237
((lp552
g317
atp553
Rp554
sVdoc
p555
g237
((lp556
g317
atp557
Rp558
sVcument
p559
g237
((lp560
g317
atp561
Rp562
sVdocu
p563
g237
((lp564
g317
atp565
Rp566
sVument
p567
g237
((lp568
g317
atp569
Rp570
sVdocum
p571
g237
((lp572
g317
atp573
Rp574
sVment
p575
g237
((lp576
g317
atp577
Rp578
sVdocume
p579
g237
((lp580
g317
atp581
Rp582
sVent
p583
g237
((lp584
g317
atp585
Rp586
sVdocumen
p587
g237
((lp588
g317
atp589
Rp590
sVnt
p591
g237
((lp592
g317
atp593
Rp594
sVt
p595
g237
((lp596
g317
atp597
Rp598
sVproject-scoped
p599
g237
((lp600
V4e28f511c2974fdbbe79440faef2ad8e
p601
atp602
Rp603
sVpr
p604
g237
((lp605
g317
atp606
Rp607
sVroject-scoped
p608
g237
((lp609
g317
atp610
Rp611
sVpro
p612
g237
((lp613
g317
atp614
Rp615
sVoject-scoped
p616
g237
((lp617
g317
atp618
Rp619
sVproj
p620
g237
((lp621
g317
atp622
Rp623
sVject-scoped
p624
g237
((lp625
g317
atp626
Rp627
sVproje
p628
g237
((lp629
g317
atp630
Rp631
sVect-scoped
p632
g237
((lp633
g317
atp634
Rp635
sVprojec
p636
g237
((lp637
g317
atp638
Rp639
sVct-scoped
p640
g237
((lp641
g317
atp642
Rp643
sVproject
p644
g237
((lp645
g317
atp646
Rp647
sVt-scoped
p648
g237
((lp649
g317
atp650
Rp651
sVproject-
p652
g237
((lp653
g317
atp654
Rp655
sV-scoped
p656
g237
((lp657
g317
atp658
Rp659
sVproject-s
p660
g237
((lp661
g317
atp662
Rp663
sVscoped
p664
g237
((lp665
g317
atp666
Rp667
sVproject-sc
p668
g237
((lp669
g317
atp670
Rp671
sVcoped
p672
g237
((lp673
g317
atp674
Rp675
sVproject-sco
p676
g237
((lp677
g317
atp678
Rp679
sVoped
p680
g237
((lp681
g317
atp682
Rp683
sVproject-scop
p684
g237
((lp685
g317
atp686
Rp687
sVped
p688
g237
((lp689
g317
atp690
Rp691
sVproject-scope
p692
g237
((lp693
g317
atp694
Rp695
sVed
p696
g237
((lp697
g317
atp698
Rp699
sVghost
p700
g237
((lp701
V4e28f511c2974fdbbe79440faef2ad8e
p702
atp703
Rp704
sVg
p705
g237
((lp706
g317
atp707
Rp708
sVgh
p709
g237
((lp710
g317
atp711
Rp712
sVhost
p713
g237
((lp714
g317
atp715
Rp716
sVgho
p717
g237
((lp718
g317
atp719
Rp720
sVost
p721
g237
((lp722
g317
atp723
Rp724
sVghos
p725
g237
((lp726
g317
atp727
Rp728
sVst
p729
g237
((lp730
g317
atp731
Rp732
sVsupported
p733
g237
((lp734
V4e28f511c2974fdbbe79440faef2ad8e
p735
atp736
Rp737
sVsu
p738
g237
((lp739
g317
atp740
Rp741
sVupported
p742
g237
((lp743
g317
atp744
Rp745
sVsup
p746
g237
((lp747
g317
atp748
Rp749
sVpported
p750
g237
((lp751
g317
atp752
Rp753
sVsupp
p754
g237
((lp755
g317
atp756
Rp757
sVported
p758
g237
((lp759
g317
atp760
Rp761
sVsuppo
p762
g237
((lp763
g317
atp764
Rp765
sVorted
p766
g237
((lp767
g317
atp768
Rp769
sVsuppor
p770
g237
((lp771
g317
atp772
Rp773
sVrted
p774
g237
((lp775
g317
atp776
Rp777
sVsupport
p778
g237
((lp779
g317
atp780
Rp781
sVted
p782
g237
((lp783
g317
atp784
Rp785
sVsupporte
p786
g237
((lp787
g317
atp788
Rp789
sVsparse
p790
g237
((lp791
V4e28f511c2974fdbbe79440faef2ad8e
p792
atp793
Rp794
sVsp
p795
g237
((lp796
g317
atp797
Rp798
sVparse
p799
g237
((lp800
g317
atp801
Rp802
sVspa
p803
g237
((lp804
g317
atp805
Rp806
sVarse
p807
g237
((lp808
g317
atp809
Rp810
sVspar
p811
g237
((lp812
g317
atp813
Rp814
sVrse
p815
g237
((lp816
g317
atp817
Rp818
sVspars
p819
g237
((lp820
g317
atp821
Rp822
sVse
p823
g237
((lp824
g317
atp825
Rp826
sVe
p827
g237
((lp828
g317
atp829
Rp830
sVchild
p831
g237
((lp832
V4e28f511c2974fdbbe79440faef2ad8e
p833
atp834
Rp835
sVc
p836
g237
((lp837
g317
atp838
Rp839
sVch
p840
g237
((lp841
g317
atp842
Rp843
sVhild
p844
g237
((lp845
g317
atp846
Rp847
sVchi
p848
g237
((lp849
g317
atp850
Rp851
sVild
p852
g237
((lp853
g317
atp854
Rp855
sVchil
p856
g237
((lp857
g317
atp858
Rp859
sVld
p860
g237
((lp861
g317
atp862
Rp863
sVdetailed
p864
g237
((lp865
V4e28f511c2974fdbbe79440faef2ad8e
p866
atp867
Rp868
sVde
p869
g237
((lp870
g317
atp871
Rp872
sVetailed
p873
g237
((lp874
g317
atp875
Rp876
sVdet
p877
g237
((lp878
g317
atp879
Rp880
sVtailed
p881
g237
((lp882
g317
atp883
Rp884
sVdeta
p885
g237
((lp886
g317
atp887
Rp888
sVailed
p889
g237
((lp890
g317
atp891
Rp892
sVdetai
p893
g237
((lp894
g317
atp895
Rp896
sViled
p897
g237
((lp898
g317
atp899
Rp900
sVdetail
p901
g237
((lp902
g317
atp903
Rp904
sVled
p905
g237
((lp906
g317
atp907
Rp908
sVdetaile
p909
g237
((lp910
g317
atp911
Rp912
sVplanned
p913
g237
((lp914
V4e28f511c2974fdbbe79440faef2ad8e
p915
atp916
Rp917
sVlanned
p918
g237
((lp919
g317
atp920
Rp921
sVanned
p922
g237
((lp923
g317
atp924
Rp925
sVplan
p926
g237
((lp927
g317
atp928
Rp929
sVnned
p930
g237
((lp931
g317
atp932
Rp933
sVplann
p934
g237
((lp935
g317
atp936
Rp937
sVned
p938
g237
((lp939
g317
atp940
Rp941
sVplanne
p942
g237
((lp943
g317
atp944
Rp945
sVfor
p946
g237
((lp947
V4e28f511c2974fdbbe79440faef2ad8e
p948
atp949
Rp950
sVf
p951
g237
((lp952
g317
atp953
Rp954
sVfo
p955
g237
((lp956
g317
atp957
Rp958
sVor
p959
g237
((lp960
g317
atp961
Rp962
sVchunking
p963
g237
((lp964
V4e28f511c2974fdbbe79440faef2ad8e
p965
atp966
Rp967
sVhunking
p968
g237
((lp969
g317
atp970
Rp971
sVchu
p972
g237
((lp973
g317
atp974
Rp975
sVunking
p976
g237
((lp977
g317
atp978
Rp979
sVchun
p980
g237
((lp981
g317
atp982
Rp983
sVnking
p984
g237
((lp985
g317
atp986
Rp987
sVchunk
p988
g237
((lp989
g317
atp990
Rp991
sVking
p992
g237
((lp993
g317
atp994
Rp995
sVchunki
p996
g237
((lp997
g317
atp998
Rp999
sVing
p1000
g237
((lp1001
g317
atp1002
Rp1003
sVchunkin
p1004
g237
((lp1005
g317
atp1006
Rp1007
sVng
p1008
g237
((lp1009
g317
atp1010
Rp1011
sVbe
p1012
g237
((lp1013
V4e28f511c2974fdbbe79440faef2ad8e
p1014
atp1015
Rp1016
sVb
p1017
g237
((lp1018
g317
atp1019
Rp1020
sVfile-type
p1021
g237
((lp1022
V4e28f511c2974fdbbe79440faef2ad8e
p1023
atp1024
Rp1025
sVfi
p1026
g237
((lp1027
g317
atp1028
Rp1029
sVile-type
p1030
g237
((lp1031
g317
atp1032
Rp1033
sVfil
p1034
g237
((lp1035
g317
atp1036
Rp1037
sVle-type
p1038
g237
((lp1039
g317
atp1040
Rp1041
sVfile
p1042
g237
((lp1043
g317
atp1044
Rp1045
sVe-type
p1046
g237
((lp1047
g317
atp1048
Rp1049
sVfile-
p1050
g237
((lp1051
g317
atp1052
Rp1053
sV-type
p1054
g237
((lp1055
g317
atp1056
Rp1057
sVfile-t
p1058
g237
((lp1059
g317
atp1060
Rp1061
sVtype
p1062
g237
((lp1063
g317
atp1064
Rp1065
sVfile-ty
p1066
g237
((lp1067
g317
atp1068
Rp1069
sVype
p1070
g237
((lp1071
g317
atp1072
Rp1073
sVfile-typ
p1074
g237
((lp1075
g317
atp1076
Rp1077
sVpe
p1078
g237
((lp1079
g317
atp1080
Rp1081
sVscope
p1082
g237
((lp1083
V4e28f511c2974fdbbe79440faef2ad8e
p1084
atp1085
Rp1086
sVsc
p1087
g237
((lp1088
g317
atp1089
Rp1090
sVcope
p1091
g237
((lp1092
g317
atp1093
Rp1094
sVsco
p1095
g237
((lp1096
g317
atp1097
Rp1098
sVope
p1099
g237
((lp1100
g317
atp1101
Rp1102
sVscop
p1103
g237
((lp1104
g317
atp1105
Rp1106
sVembeddings
p1107
g237
((lp1108
V4e28f511c2974fdbbe79440faef2ad8e
p1109
atp1110
Rp1111
sVem
p1112
g237
((lp1113
g317
atp1114
Rp1115
sVmbeddings
p1116
g237
((lp1117
g317
atp1118
Rp1119
sVemb
p1120
g237
((lp1121
g317
atp1122
Rp1123
sVbeddings
p1124
g237
((lp1125
g317
atp1126
Rp1127
sVembe
p1128
g237
((lp1129
g317
atp1130
Rp1131
sVeddings
p1132
g237
((lp1133
g317
atp1134
Rp1135
sVembed
p1136
g237
((lp1137
g317
atp1138
Rp1139
sVddings
p1140
g237
((lp1141
g317
atp1142
Rp1143
sVembedd
p1144
g237
((lp1145
g317
atp1146
Rp1147
sVdings
p1148
g237
((lp1149
g317
atp1150
Rp1151
sVembeddi
p1152
g237
((lp1153
g317
atp1154
Rp1155
sVings
p1156
g237
((lp1157
g317
atp1158
Rp1159
sVembeddin
p1160
g237
((lp1161
g317
atp1162
Rp1163
sVngs
p1164
g237
((lp1165
g317
atp1166
Rp1167
sVembedding
p1168
g237
((lp1169
g317
atp1170
Rp1171
sVgs
p1172
g237
((lp1173
g317
atp1174
Rp1175
sVoptional
p1176
g237
((lp1177
V4e28f511c2974fdbbe79440faef2ad8e
p1178
atp1179
Rp1180
sVo
p1181
g237
((lp1182
g317
atp1183
Rp1184
sVop
p1185
g237
((lp1186
g317
atp1187
Rp1188
sVptional
p1189
g237
((lp1190
g317
atp1191
Rp1192
sVopt
p1193
g237
((lp1194
g317
atp1195
Rp1196
sVtional
p1197
g237
((lp1198
g317
atp1199
Rp1200
sVopti
p1201
g237
((lp1202
g317
atp1203
Rp1204
sVional
p1205
g237
((lp1206
g317
atp1207
Rp1208
sVoptio
p1209
g237
((lp1210
g317
atp1211
Rp1212
sVonal
p1213
g237
((lp1214
g317
atp1215
Rp1216
sVoption
p1217
g237
((lp1218
g317
atp1219
Rp1220
sVnal
p1221
g237
((lp1222
g317
atp1223
Rp1224
sVoptiona
p1225
g237
((lp1226
g317
atp1227
Rp1228
sVal
p1229
g237
((lp1230
g317
atp1231
Rp1232
sVl
p1233
g237
((lp1234
g317
atp1235
Rp1236
sVmanifests
p1237
g237
((lp1238
V4e28f511c2974fdbbe79440faef2ad8e
p1239
atp1240
Rp1241
sVm
p1242
g237
((lp1243
g317
atp1244
Rp1245
sVma
p1246
g237
((lp1247
g317
atp1248
Rp1249
sVanifests
p1250
g237
((lp1251
g317
atp1252
Rp1253
sVman
p1254
g237
((lp1255
g317
atp1256
Rp1257
sVnifests
p1258
g237
((lp1259
g317
atp1260
Rp1261
sVmani
p1262
g237
((lp1263
g317
atp1264
Rp1265
sVifests
p1266
g237
((lp1267
g317
atp1268
Rp1269
sVmanif
p1270
g237
((lp1271
g317
atp1272
Rp1273
sVfests
p1274
g237
((lp1275
g317
atp1276
Rp1277
sVmanife
p1278
g237
((lp1279
g317
atp1280
Rp1281
sVests
p1282
g237
((lp1283
g317
atp1284
Rp1285
sVmanifes
p1286
g237
((lp1287
g317
atp1288
Rp1289
sVsts
p1290
g237
((lp1291
g317
atp1292
Rp1293
sVmanifest
p1294
g237
((lp1295
g317
atp1296
Rp1297
sVshall
p1298
g237
((lp1299
V4e28f511c2974fdbbe79440faef2ad8e
p1300
atp1301
Rp1302
sVsh
p1303
g237
((lp1304
g317
atp1305
Rp1306
sVhall
p1307
g237
((lp1308
g317
atp1309
Rp1310
sVsha
p1311
g237
((lp1312
g317
atp1313
Rp1314
sVall
p1315
g237
((lp1316
g317
atp1317
Rp1318
sVshal
p1319
g237
((lp1320
g317
atp1321
Rp1322
sVll
p1323
g237
((lp1324
g317
atp1325
Rp1326
sVrepresentations
p1327
g237
((lp1328
V4e28f511c2974fdbbe79440faef2ad8e
p1329
atp1330
Rp1331
sVepresentations
p1332
g237
((lp1333
g317
atp1334
Rp1335
sVrep
p1336
g237
((lp1337
g317
atp1338
Rp1339
sVpresentations
p1340
g237
((lp1341
g317
atp1342
Rp1343
sVrepr
p1344
g237
((lp1345
g317
atp1346
Rp1347
sVresentations
p1348
g237
((lp1349
g317
atp1350
Rp1351
sVrepre
p1352
g237
((lp1353
g317
atp1354
Rp1355
sVesentations
p1356
g237
((lp1357
g317
atp1358
Rp1359
sVrepres
p1360
g237
((lp1361
g317
atp1362
Rp1363
sVsentations
p1364
g237
((lp1365
g317
atp1366
Rp1367
sVreprese
p1368
g237
((lp1369
g317
atp1370
Rp1371
sVentations
p1372
g237
((lp1373
g317
atp1374
Rp1375
sVrepresen
p1376
g237
((lp1377
g317
atp1378
Rp1379
sVntations
p1380
g237
((lp1381
g317
atp1382
Rp1383
sVrepresent
p1384
g237
((lp1385
g317
atp1386
Rp1387
sVtations
p1388
g237
((lp1389
g317
atp1390
Rp1391
sVrepresenta
p1392
g237
((lp1393
g317
atp1394
Rp1395
sVations
p1396
g237
((lp1397
g317
atp1398
Rp1399
sVrepresentat
p1400
g237
((lp1401
g317
atp1402
Rp1403
sVtions
p1404
g237
((lp1405
g317
atp1406
Rp1407
sVrepresentati
p1408
g237
((lp1409
g317
atp1410
Rp1411
sVions
p1412
g237
((lp1413
g317
atp1414
Rp1415
sVrepresentatio
p1416
g237
((lp1417
g317
atp1418
Rp1419
sVons
p1420
g237
((lp1421
g317
atp1422
Rp1423
sVrepresentation
p1424
g237
((lp1425
g317
atp1426
Rp1427
sVns
p1428
g237
((lp1429
g317
atp1430
Rp1431
sVhunk
p1432
g237
((lp1433
g317
atp1434
Rp1435
sVunk
p1436
g237
((lp1437
g317
atp1438
Rp1439
sVnk
p1440
g237
((lp1441
g317
atp1442
Rp1443
sVk
p1444
g237
((lp1445
g317
atp1446
Rp1447
sVatomic
p1448
g237
((lp1449
V4e28f511c2974fdbbe79440faef2ad8e
p1450
atp1451
Rp1452
sVa
p1453
g237
((lp1454
g317
atp1455
Rp1456
sVat
p1457
g237
((lp1458
g317
atp1459
Rp1460
sVtomic
p1461
g237
((lp1462
g317
atp1463
Rp1464
sVato
p1465
g237
((lp1466
g317
atp1467
Rp1468
sVomic
p1469
g237
((lp1470
g317
atp1471
Rp1472
sVatom
p1473
g237
((lp1474
g317
atp1475
Rp1476
sVmic
p1477
g237
((lp1478
g317
atp1479
Rp1480
sVatomi
p1481
g237
((lp1482
g317
atp1483
Rp1484
sVic
p1485
g237
((lp1486
g317
atp1487
Rp1488
sVhuman
p1489
g237
((lp1490
V4e28f511c2974fdbbe79440faef2ad8e
p1491
atp1492
Rp1493
sVh
p1494
g237
((lp1495
g317
atp1496
Rp1497
sVhu
p1498
g237
((lp1499
g317
atp1500
Rp1501
sVuman
p1502
g237
((lp1503
g317
atp1504
Rp1505
sVhum
p1506
g237
((lp1507
g317
atp1508
Rp1509
sVhuma
p1510
g237
((lp1511
g317
atp1512
Rp1513
sVan
p1514
g237
((lp1515
g317
atp1516
Rp1517
sVn
p1518
g237
((lp1519
g317
atp1520
Rp1521
sVstable
p1522
g237
((lp1523
V4e28f511c2974fdbbe79440faef2ad8e
p1524
atp1525
Rp1526
sVtable
p1527
g237
((lp1528
g317
atp1529
Rp1530
sVsta
p1531
g237
((lp1532
g317
atp1533
Rp1534
sVable
p1535
g237
((lp1536
g317
atp1537
Rp1538
sVstab
p1539
g237
((lp1540
g317
atp1541
Rp1542
sVble
p1543
g237
((lp1544
g317
atp1545
Rp1546
sVstabl
p1547
g237
((lp1548
g317
atp1549
Rp1550
sVle
p1551
g237
((lp1552
g317
atp1553
Rp1554
sVafter
p1555
g237
((lp1556
V4e28f511c2974fdbbe79440faef2ad8e
p1557
atp1558
Rp1559
sVaf
p1560
g237
((lp1561
g317
atp1562
Rp1563
sVfter
p1564
g237
((lp1565
g317
atp1566
Rp1567
sVaft
p1568
g237
((lp1569
g317
atp1570
Rp1571
sVter
p1572
g237
((lp1573
g317
atp1574
Rp1575
sVafte
p1576
g237
((lp1577
g317
atp1578
Rp1579
sVapproval
p1580
g237
((lp1581
V4e28f511c2974fdbbe79440faef2ad8e
p1582
atp1583
Rp1584
sVap
p1585
g237
((lp1586
g317
atp1587
Rp1588
sVpproval
p1589
g237
((lp1590
g317
atp1591
Rp1592
sVapp
p1593
g237
((lp1594
g317
atp1595
Rp1596
sVproval
p1597
g237
((lp1598
g317
atp1599
Rp1600
sVappr
p1601
g237
((lp1602
g317
atp1603
Rp1604
sVroval
p1605
g237
((lp1606
g317
atp1607
Rp1608
sVappro
p1609
g237
((lp1610
g317
atp1611
Rp1612
sVoval
p1613
g237
((lp1614
g317
atp1615
Rp1616
sVapprov
p1617
g237
((lp1618
g317
atp1619
Rp1620
sVval
p1621
g237
((lp1622
g317
atp1623
Rp1624
sVapprova
p1625
g237
((lp1626
g317
atp1627
Rp1628
sVboundary
p1629
g237
((lp1630
V4e28f511c2974fdbbe79440faef2ad8e
p1631
atp1632
Rp1633
sVbo
p1634
g237
((lp1635
g317
atp1636
Rp1637
sVoundary
p1638
g237
((lp1639
g317
atp1640
Rp1641
sVbou
p1642
g237
((lp1643
g317
atp1644
Rp1645
sVundary
p1646
g237
((lp1647
g317
atp1648
Rp1649
sVboun
p1650
g237
((lp1651
g317
atp1652
Rp1653
sVndary
p1654
g237
((lp1655
g317
atp1656
Rp1657
sVbound
p1658
g237
((lp1659
g317
atp1660
Rp1661
sVdary
p1662
g237
((lp1663
g317
atp1664
Rp1665
sVbounda
p1666
g237
((lp1667
g317
atp1668
Rp1669
sVary
p1670
g237
((lp1671
g317
atp1672
Rp1673
sVboundar
p1674
g237
((lp1675
g317
atp1676
Rp1677
sVry
p1678
g237
((lp1679
g317
atp1680
Rp1681
sVy
p1682
g237
((lp1683
g317
atp1684
Rp1685
sVids
p1686
g237
((lp1687
V4e28f511c2974fdbbe79440faef2ad8e
p1688
atp1689
Rp1690
sVi
p1691
g237
((lp1692
g317
atp1693
Rp1694
sVid
p1695
g237
((lp1696
g317
atp1697
Rp1698
sVds
p1699
g237
((lp1700
g317
atp1701
Rp1702
sVlater
p1703
g237
((lp1704
V4e28f511c2974fdbbe79440faef2ad8e
p1705
atp1706
Rp1707
sVla
p1708
g237
((lp1709
g317
atp1710
Rp1711
sVater
p1712
g237
((lp1713
g317
atp1714
Rp1715
sVlat
p1716
g237
((lp1717
g317
atp1718
Rp1719
sVlate
p1720
g237
((lp1721
g317
atp1722
Rp1723
sVthis
p1724
g237
((lp1725
V4e28f511c2974fdbbe79440faef2ad8e
p1726
atp1727
Rp1728
sVth
p1729
g237
((lp1730
g317
atp1731
Rp1732
sVhis
p1733
g237
((lp1734
g317
atp1735
Rp1736
sVthi
p1737
g237
((lp1738
g317
atp1739
Rp1740
sVis
p1741
g237
((lp1742
g317
atp1743
Rp1744
sVadded
p1745
g237
((lp1746
V4e28f511c2974fdbbe79440faef2ad8e
p1747
atp1748
Rp1749
sVad
p1750
g237
((lp1751
g317
atp1752
Rp1753
sVdded
p1754
g237
((lp1755
g317
atp1756
Rp1757
sVadd
p1758
g237
((lp1759
g317
atp1760
Rp1761
sVded
p1762
g237
((lp1763
g317
atp1764
Rp1765
sVadde
p1766
g237
((lp1767
g317
atp1768
Rp1769
sVingestion
p1770
g237
((lp1771
V4e28f511c2974fdbbe79440faef2ad8e
p1772
atp1773
Rp1774
sVin
p1775
g237
((lp1776
g317
atp1777
Rp1778
sVngestion
p1779
g237
((lp1780
g317
atp1781
Rp1782
sVgestion
p1783
g237
((lp1784
g317
atp1785
Rp1786
sVinge
p1787
g237
((lp1788
g317
atp1789
Rp1790
sVestion
p1791
g237
((lp1792
g317
atp1793
Rp1794
sVinges
p1795
g237
((lp1796
g317
atp1797
Rp1798
sVstion
p1799
g237
((lp1800
g317
atp1801
Rp1802
sVingest
p1803
g237
((lp1804
g317
atp1805
Rp1806
sVtion
p1807
g237
((lp1808
g317
atp1809
Rp1810
sVingesti
p1811
g237
((lp1812
g317
atp1813
Rp1814
sVion
p1815
g237
((lp1816
g317
atp1817
Rp1818
sVingestio
p1819
g237
((lp1820
g317
atp1821
Rp1822
sVon
p1823
g237
((lp1824
g317
atp1825
Rp1826
sVile
p1827
g237
((lp1828
g317
atp1829
Rp1830
sVmetadata
p1831
g237
((lp1832
V4e28f511c2974fdbbe79440faef2ad8e
p1833
atp1834
Rp1835
sVme
p1836
g237
((lp1837
g317
atp1838
Rp1839
sVetadata
p1840
g237
((lp1841
g317
atp1842
Rp1843
sVmet
p1844
g237
((lp1845
g317
atp1846
Rp1847
sVtadata
p1848
g237
((lp1849
g317
atp1850
Rp1851
sVmeta
p1852
g237
((lp1853
g317
atp1854
Rp1855
sVadata
p1856
g237
((lp1857
g317
atp1858
Rp1859
sVmetad
p1860
g237
((lp1861
g317
atp1862
Rp1863
sVdata
p1864
g237
((lp1865
g317
atp1866
Rp1867
sVmetada
p1868
g237
((lp1869
g317
atp1870
Rp1871
sVata
p1872
g237
((lp1873
g317
atp1874
Rp1875
sVmetadat
p1876
g237
((lp1877
g317
atp1878
Rp1879
sVta
p1880
g237
((lp1881
g317
atp1882
Rp1883
ssVmap_nodes_by_mid
p1884
(dp1885
Vaee27f995db546a4867014fd4e9c17df
p1886
(dp1887
VMID
p1888
Vaee27f995db546a4867014fd4e9c17df
p1889
sg259
g262
ssV4e28f511c2974fdbbe79440faef2ad8e
p1890
(dp1891
g1888
V4e28f511c2974fdbbe79440faef2ad8e
p1892
sg281
g283
sssbsVng_source_content
p1893
Nsg323
I00
sV_tx_attrs
p1894
NsV_tx_peg_rule
p1895
Nsb.