ccopy_reg
_reconstructor
p0
(cstrictdoc.backend.sdoc.models.document
SDocDocument
p1
c__builtin__
object
p2
Ntp3
Rp4
(dp5
Vmid
p6
NsVtitle
p7
VDocument Retrieval Requirements
p8
sVconfig
p9
g0
(cstrictdoc.backend.sdoc.models.document_config
DocumentConfig
p10
g2
Ntp11
Rp12
(dp13
Vuid
p14
VGHOST-REQ-DOCUMENT-RETRIEVAL
p15
sVversion
p16
V0.1-dummy
p17
sVdate
p18
NsVclassification
p19
NsVrequirement_prefix
p20
NsVroot
p21
NsVenable_mid
p22
NsVrelation_field
p23
NsVmarkup
p24
VText
p25
sVauto_levels
p26
I01
sVlayout
p27
NsVview_style_tag
p28
V
p29
sVrequirement_style
p30
NsVnode_in_toc_tag
p31
VNODE_IN_TOC
p32
sVrequirement_in_toc
p33
VTrue
p34
sVdefault_view
p35
NsVcustom_metadata
p36
NsV_tx_position
p37
I50
sV_tx_position_end
p38
I165
sVparent
p39
g4
sVng_auto_levels_specified
p40
I01
sVng_line_start
p41
I3
sVng_col_start
p42
I1
sbsVview
p43
g0
(cstrictdoc.backend.sdoc.models.document_view
DocumentView
p44
g2
Ntp45
Rp46
(dp47
g39
g4
sVviews
p48
(lp49
g0
(cstrictdoc.backend.sdoc.models.document_view
DefaultViewElement
p50
g2
Ntp51
Rp52
(dp53
g39
g46
sVview_id
p54
VNOT_RELEVANT
p55
sVtags
p56
(lp57
sVhidden_tags
p58
(lp59
sVname
p60
Nsbasg41
I29
sg42
I802
sbsVgrammar
p61
g0
(cstrictdoc.backend.sdoc.models.document_grammar
DocumentGrammar
p62
g2
Ntp63
Rp64
(dp65
g39
g4
sVelements
p66
(lp67
g0
(cstrictdoc.backend.sdoc.models.grammar_element
GrammarElement
p68
g2
Ntp69
Rp70
(dp71
g39
g64
sVtag
p72
VSECTION
p73
sVproperty_is_composite
p74
I01
sVproperty_prefix
p75
NsVproperty_view_style
p76
NsVproperty_view_style_lower
p77
NsVfields
p78
(lp79
g0
(cstrictdoc.backend.sdoc.models.grammar_element
GrammarElementFieldString
p80
g2
Ntp81
Rp82
(dp83
g7
VUID
p84
sVhuman_title
p85
NsVgef_type
p86
VString
p87
sVrequired
p88
I00
sg6
g0
(cstrictdoc.helpers.mid
MID
p89
c__builtin__
unicode
p90
Vdb8505f9b207418193554e38226170e5
p91
tp92
Rp93
sg39
Nsbag0
(g80
g2
Ntp94
Rp95
(dp96
g7
VLEVEL
p97
sg85
Nsg86
g87
sg88
I00
sg6
g0
(g89
g90
Vecb2b49940be41529126f1d71d0a1db1
p98
tp99
Rp100
sg39
Nsbag0
(g80
g2
Ntp101
Rp102
(dp103
g7
VPREFIX
p104
sg85
Nsg86
g87
sg88
I00
sg6
g0
(g89
g90
V42a80b8589d94b42bee57746fe3c9914
p105
tp106
Rp107
sg39
Nsbag0
(g80
g2
Ntp108
Rp109
(dp110
g7
VTITLE
p111
sg85
Nsg86
g87
sg88
I01
sg6
g0
(g89
g90
V99516b62528d4c0793e9d76cbee294e4
p112
tp113
Rp114
sg39
NsbasVrelations
p115
(lp116
sVfields_map
p117
ccollections
OrderedDict
p118
(tRp119
g84
g82
sg97
g95
sg104
g102
sg111
g109
ssVfield_titles
p120
(lp121
g84
ag97
ag104
ag111
asVcontent_field
p122
(g29
I-1
tp123
sV_multiline_field_index
p124
I4
sg6
g0
(g89
g90
V4c5c51682817459db9e6621ef6f50957
p125
tp126
Rp127
sg41
Nsg42
Nsbag0
(g68
g2
Ntp128
Rp129
(dp130
g39
g64
sg72
VTEXT
p131
sg74
Nsg75
Nsg76
Nsg77
Nsg78
(lp132
g0
(g80
g2
Ntp133
Rp134
(dp135
g7
g84
sg85
Nsg86
g87
sg88
I00
sg6
g0
(g89
g90
Vd6b22ef6517244f6825e6a8311a12492
p136
tp137
Rp138
sg39
Nsbag0
(g80
g2
Ntp139
Rp140
(dp141
g7
VSTATEMENT
p142
sg85
Nsg86
g87
sg88
I01
sg6
g0
(g89
g90
V5b04cb11a1984db1856298ad397697c9
p143
tp144
Rp145
sg39
Nsbasg115
(lp146
sg117
g118
(tRp147
g84
g134
sg142
g140
ssg120
(lp148
g84
ag142
asg122
(g142
I1
tp149
sg124
I1
sg6
g0
(g89
g90
V1abf3389670447a7870ccc06287f671a
p150
tp151
Rp152
sg41
Nsg42
Nsbag0
(g68
g2
Ntp153
Rp154
(dp155
g39
g64
sg72
VREQUIREMENT
p156
sg74
Nsg75
Nsg76
Nsg77
Nsg78
(lp157
g0
(g80
g2
Ntp158
Rp159
(dp160
g7
g84
sg85
Nsg86
g87
sg88
I00
sg6
g0
(g89
g90
V4645b1b8c5644e579ca5034266782eab
p161
tp162
Rp163
sg39
Nsbag0
(g80
g2
Ntp164
Rp165
(dp166
g7
g97
sg85
Nsg86
g87
sg88
I00
sg6
g0
(g89
g90
Vabc87ec365b8482a9cdc1bfe92ee5d05
p167
tp168
Rp169
sg39
Nsbag0
(g80
g2
Ntp170
Rp171
(dp172
g7
VSTATUS
p173
sg85
Nsg86
g87
sg88
I00
sg6
g0
(g89
g90
Vc950d24bc208402c9963048324dca961
p174
tp175
Rp176
sg39
Nsbag0
(g80
g2
Ntp177
Rp178
(dp179
g7
VTAGS
p180
sg85
Nsg86
g87
sg88
I00
sg6
g0
(g89
g90
V179597fa55e14b2bb6146fb5e5b47b38
p181
tp182
Rp183
sg39
Nsbag0
(g80
g2
Ntp184
Rp185
(dp186
g7
g111
sg85
Nsg86
g87
sg88
I00
sg6
g0
(g89
g90
V280efb4a343e4902abf338f317fb8143
p187
tp188
Rp189
sg39
Nsbag0
(g80
g2
Ntp190
Rp191
(dp192
g7
g142
sg85
Nsg86
g87
sg88
I00
sg6
g0
(g89
g90
Vf9a6a100a7944bbc88c3de7da9dc9e78
p193
tp194
Rp195
sg39
Nsbag0
(g80
g2
Ntp196
Rp197
(dp198
g7
VRATIONALE
p199
sg85
Nsg86
g87
sg88
I00
sg6
g0
(g89
g90
V14c1bc17f8e948eb92a71626e1dc7c50
p200
tp201
Rp202
sg39
Nsbag0
(g80
g2
Ntp203
Rp204
(dp205
g7
VCOMMENT
p206
sg85
Nsg86
g87
sg88
I00
sg6
g0
(g89
g90
V3dbfdb7a20364f6489577c2883bd24ce
p207
tp208
Rp209
sg39
Nsbasg115
(lp210
g0
(cstrictdoc.backend.sdoc.models.grammar_element
GrammarElementRelationParent
p211
g2
Ntp212
Rp213
(dp214
g39
g154
sVrelation_type
p215
VParent
p216
sVrelation_role
p217
NsVreverse_relation_role
p218
Nsg6
g0
(g89
g90
Vbad36a3823c3484bbe145cbb525517c6
p219
tp220
Rp221
sbag0
(cstrictdoc.backend.sdoc.models.grammar_element
GrammarElementRelationFile
p222
g2
Ntp223
Rp224
(dp225
g39
g154
sg215
VFile
p226
sg217
Nsg218
Nsg6
g0
(g89
g90
V63706f65fe4f406ab42019c82491d133
p227
tp228
Rp229
sbasg117
g118
(tRp230
g84
g159
sg97
g165
sg173
g171
sg180
g178
sg111
g185
sg142
g191
sg199
g197
sg206
g204
ssg120
(lp231
g84
ag97
ag173
ag180
ag111
ag142
ag199
ag206
asg122
(g142
I5
tp232
sg124
I5
sg6
g0
(g89
g90
V078ba6a30e754a15b2c143e0d8790840
p233
tp234
Rp235
sg41
Nsg42
NsbasVregistered_elements
p236
c__builtin__
set
p237
((lp238
g73
ag156
ag131
atp239
Rp240
sVelements_by_type
p241
(dp242
g73
g70
sg131
g129
sg156
g154
ssVimport_from_file
p243
NsVis_default
p244
I01
sg41
Nsg42
NsbsVsection_contents
p245
(lp246
g0
(cstrictdoc.backend.sdoc.models.node
SDocCompositeNode
p247
g2
Ntp248
Rp249
(dp250
Vnode_type
p251
VSECTION
p252
sg78
(lp253
g0
(cstrictdoc.backend.sdoc.models.node
SDocNodeField
p254
g2
Ntp255
Rp256
(dp257
Vfield_name
p258
VTITLE
p259
sVparts
p260
(lp261
VPlaceholder
p262
asVmultiline__
p263
g29
sg37
I178
sg38
I197
sg39
g249
sVmultiline
p264
I00
sVorigin
p265
cstrictdoc.backend.sdoc.models.node
SDocNodeFieldOrigin
p266
(VDOCUMENT
p267
tp268
Rp269
sbasg115
(lp270
sg245
(lp271
g0
(cstrictdoc.backend.sdoc.models.node
SDocNode
p272
g2
Ntp273
Rp274
(dp275
g251
VTEXT
p276
sg78
(lp277
g0
(g254
g2
Ntp278
Rp279
(dp280
g258
VSTATEMENT
p281
sg260
(lp282
VThis is a placeholder child requirements document for GHOST document retrieval.\u000a\u000aPlanned scope:\u000a- project-aware retrieval\u000a- dense retrieval\u000a- SPLADE sparse retrieval where enabled\u000a- hybrid scoring\u000a- retrieval candidates\u000a- document-only retrieval boundary\u000a\u000aDetailed atomic requirements shall be added later after human approval.\u000a
p283
asg263
V>>>\u000a
p284
sg37
I205
sg38
I552
sg39
g274
sg264
I01
sg265
g269
sbasg115
(lp285
sg37
I198
sg38
I552
sg39
g249
sVis_composite
p286
I00
sg245
(lp287
sVhas_meta
p288
I00
sVfields_as_parsed
p289
g277
sVordered_fields_lookup
p290
g118
(tRp291
g281
(lp292
g279
assVng_document_reference
p293
g0
(cstrictdoc.backend.sdoc.document_reference
DocumentReference
p294
g2
Ntp295
Rp296
(dp297
V_document
p298
g4
sbsVng_including_document_reference
p299
g0
(g294
g2
Ntp300
Rp301
(dp302
g298
Nsbsg41
I13
sVng_line_end
p303
I27
sg42
I1
sVng_col_end
p304
I1
sVng_byte_start
p305
I198
sVng_byte_end
p306
I552
sVcontext
p307
g0
(cstrictdoc.backend.sdoc.models.node
SDocNodeContext
p308
g2
Ntp309
Rp310
(dp311
Vtitle_number_string
p312
g29
sVng_level
p313
I2
sbsVreserved_mid
p314
g0
(g89
g90
V9ce7cb999bec49aab7c79a951a56910a
p315
tp316
Rp317
sVmid_permanent
p318
I00
sVng_resolved_custom_level
p319
VNone
p320
sVcustom_level
p321
NsVng_has_requirements
p322
I00
sVautogen
p323
I00
sbasVnode_type_close
p324
VSECTION
p325
sg37
I166
sg38
I566
sg39
g4
sg286
I01
sg288
I00
sg289
g253
sg290
g118
(tRp326
g259
(lp327
g256
assg293
g296
sg299
g301
sg41
I10
sg303
I29
sg42
I1
sg304
I1
sg305
I166
sg306
I566
sg307
g0
(g308
g2
Ntp328
Rp329
(dp330
g312
V1
p331
sg313
I1
sbsg314
g0
(g89
g90
V98aefb7febb24ac1a8fc2e4d2a9c5abe
p332
tp333
Rp334
sg318
I00
sg319
Nsg321
Nsg322
I00
sg323
I00
sbasg37
I0
sg38
I566
sV_tx_filename
p335
V/home/rusbeh_ab/project/RAGstream/doc/01-Requirements/strictdoc/32_document_retrieval.sdoc
p336
sV_tx_metamodel
p337
NsV_tx_model_params
p338
NsV_tx_parser
p339
NsVreserved_title
p340
g8
sVis_bundle_document
p341
I00
sVfragments_from_files
p342
(lp343
sg322
I00
sVmeta
p344
Nsg314
g0
(g89
g90
V635663f3dfa34ec287a081575fd4452f
p345
tp346
Rp347
sg318
I00
sVincluded_documents
p348
(lp349
sg307
g0
(g308
g2
Ntp350
Rp351
(dp352
g312
Nsg313
I0
sbsg299
g301
sVng_including_document_from_file
p353
NsVsearch_index
p354
g0
(cstrictdoc.backend.sdoc.models.document
SDocDocumentSearchIndex
p355
g2
Ntp356
Rp357
(dp358
Vdocument_index
p359
ccollections
defaultdict
p360
(g237
tp361
Rp362
Vplaceholder
p363
g237
((lp364
V98aefb7febb24ac1a8fc2e4d2a9c5abe
p365
aV9ce7cb999bec49aab7c79a951a56910a
p366
atp367
Rp368
sVp
p369
g237
((lp370
g334
ag317
atp371
Rp372
sVpl
p373
g237
((lp374
g334
ag317
atp375
Rp376
sVlaceholder
p377
g237
((lp378
g334
ag317
atp379
Rp380
sVpla
p381
g237
((lp382
g334
ag317
atp383
Rp384
sVaceholder
p385
g237
((lp386
g334
ag317
atp387
Rp388
sVplac
p389
g237
((lp390
g334
ag317
atp391
Rp392
sVceholder
p393
g237
((lp394
g334
ag317
atp395
Rp396
sVplace
p397
g237
((lp398
g334
ag317
atp399
Rp400
sVeholder
p401
g237
((lp402
g334
ag317
atp403
Rp404
sVplaceh
p405
g237
((lp406
g334
ag317
atp407
Rp408
sVholder
p409
g237
((lp410
g334
ag317
atp411
Rp412
sVplaceho
p413
g237
((lp414
g334
ag317
atp415
Rp416
sVolder
p417
g237
((lp418
g334
ag317
atp419
Rp420
sVplacehol
p421
g237
((lp422
g334
ag317
atp423
Rp424
sVlder
p425
g237
((lp426
g334
ag317
atp427
Rp428
sVplacehold
p429
g237
((lp430
g334
ag317
atp431
Rp432
sVder
p433
g237
((lp434
g334
ag317
atp435
Rp436
sVplaceholde
p437
g237
((lp438
g334
ag317
atp439
Rp440
sVer
p441
g237
((lp442
g334
ag317
atp443
Rp444
sVr
p445
g237
((lp446
g334
ag317
atp447
Rp448
sVrequirements
p449
g237
((lp450
V9ce7cb999bec49aab7c79a951a56910a
p451
atp452
Rp453
sVre
p454
g237
((lp455
g317
atp456
Rp457
sVequirements
p458
g237
((lp459
g317
atp460
Rp461
sVreq
p462
g237
((lp463
g317
atp464
Rp465
sVquirements
p466
g237
((lp467
g317
atp468
Rp469
sVrequ
p470
g237
((lp471
g317
atp472
Rp473
sVuirements
p474
g237
((lp475
g317
atp476
Rp477
sVrequi
p478
g237
((lp479
g317
atp480
Rp481
sVirements
p482
g237
((lp483
g317
atp484
Rp485
sVrequir
p486
g237
((lp487
g317
atp488
Rp489
sVrements
p490
g237
((lp491
g317
atp492
Rp493
sVrequire
p494
g237
((lp495
g317
atp496
Rp497
sVements
p498
g237
((lp499
g317
atp500
Rp501
sVrequirem
p502
g237
((lp503
g317
atp504
Rp505
sVments
p506
g237
((lp507
g317
atp508
Rp509
sVrequireme
p510
g237
((lp511
g317
atp512
Rp513
sVents
p514
g237
((lp515
g317
atp516
Rp517
sVrequiremen
p518
g237
((lp519
g317
atp520
Rp521
sVnts
p522
g237
((lp523
g317
atp524
Rp525
sVrequirement
p526
g237
((lp527
g317
atp528
Rp529
sVts
p530
g237
((lp531
g317
atp532
Rp533
sVs
p534
g237
((lp535
g317
atp536
Rp537
sVdocument
p538
g237
((lp539
V9ce7cb999bec49aab7c79a951a56910a
p540
atp541
Rp542
sVd
p543
g237
((lp544
g317
atp545
Rp546
sVdo
p547
g237
((lp548
g317
atp549
Rp550
sVocument
p551
g237
((lp552
g317
atp553
Rp554
sVdoc
p555
g237
((lp556
g317
atp557
Rp558
sVcument
p559
g237
((lp560
g317
atp561
Rp562
sVdocu
p563
g237
((lp564
g317
atp565
Rp566
sVument
p567
g237
((lp568
g317
atp569
Rp570
sVdocum
p571
g237
((lp572
g317
atp573
Rp574
sVment
p575
g237
((lp576
g317
atp577
Rp578
sVdocume
p579
g237
((lp580
g317
atp581
Rp582
sVent
p583
g237
((lp584
g317
atp585
Rp586
sVdocumen
p587
g237
((lp588
g317
atp589
Rp590
sVnt
p591
g237
((lp592
g317
atp593
Rp594
sVt
p595
g237
((lp596
g317
atp597
Rp598
sVdense
p599
g237
((lp600
V9ce7cb999bec49aab7c79a951a56910a
p601
atp602
Rp603
sVde
p604
g237
((lp605
g317
atp606
Rp607
sVense
p608
g237
((lp609
g317
atp610
Rp611
sVden
p612
g237
((lp613
g317
atp614
Rp615
sVnse
p616
g237
((lp617
g317
atp618
Rp619
sVdens
p620
g237
((lp621
g317
atp622
Rp623
sVse
p624
g237
((lp625
g317
atp626
Rp627
sVe
p628
g237
((lp629
g317
atp630
Rp631
sVghost
p632
g237
((lp633
V9ce7cb999bec49aab7c79a951a56910a
p634
atp635
Rp636
sVg
p637
g237
((lp638
g317
atp639
Rp640
sVgh
p641
g237
((lp642
g317
atp643
Rp644
sVhost
p645
g237
((lp646
g317
atp647
Rp648
sVgho
p649
g237
((lp650
g317
atp651
Rp652
sVost
p653
g237
((lp654
g317
atp655
Rp656
sVghos
p657
g237
((lp658
g317
atp659
Rp660
sVst
p661
g237
((lp662
g317
atp663
Rp664
sVproject-aware
p665
g237
((lp666
V9ce7cb999bec49aab7c79a951a56910a
p667
atp668
Rp669
sVpr
p670
g237
((lp671
g317
atp672
Rp673
sVroject-aware
p674
g237
((lp675
g317
atp676
Rp677
sVpro
p678
g237
((lp679
g317
atp680
Rp681
sVoject-aware
p682
g237
((lp683
g317
atp684
Rp685
sVproj
p686
g237
((lp687
g317
atp688
Rp689
sVject-aware
p690
g237
((lp691
g317
atp692
Rp693
sVproje
p694
g237
((lp695
g317
atp696
Rp697
sVect-aware
p698
g237
((lp699
g317
atp700
Rp701
sVprojec
p702
g237
((lp703
g317
atp704
Rp705
sVct-aware
p706
g237
((lp707
g317
atp708
Rp709
sVproject
p710
g237
((lp711
g317
atp712
Rp713
sVt-aware
p714
g237
((lp715
g317
atp716
Rp717
sVproject-
p718
g237
((lp719
g317
atp720
Rp721
sV-aware
p722
g237
((lp723
g317
atp724
Rp725
sVproject-a
p726
g237
((lp727
g317
atp728
Rp729
sVaware
p730
g237
((lp731
g317
atp732
Rp733
sVproject-aw
p734
g237
((lp735
g317
atp736
Rp737
sVware
p738
g237
((lp739
g317
atp740
Rp741
sVproject-awa
p742
g237
((lp743
g317
atp744
Rp745
sVare
p746
g237
((lp747
g317
atp748
Rp749
sVproject-awar
p750
g237
((lp751
g317
atp752
Rp753
sVenabled
p754
g237
((lp755
V9ce7cb999bec49aab7c79a951a56910a
p756
atp757
Rp758
sVen
p759
g237
((lp760
g317
atp761
Rp762
sVnabled
p763
g237
((lp764
g317
atp765
Rp766
sVena
p767
g237
((lp768
g317
atp769
Rp770
sVabled
p771
g237
((lp772
g317
atp773
Rp774
sVenab
p775
g237
((lp776
g317
atp777
Rp778
sVbled
p779
g237
((lp780
g317
atp781
Rp782
sVenabl
p783
g237
((lp784
g317
atp785
Rp786
sVled
p787
g237
((lp788
g317
atp789
Rp790
sVenable
p791
g237
((lp792
g317
atp793
Rp794
sVed
p795
g237
((lp796
g317
atp797
Rp798
sVsparse
p799
g237
((lp800
V9ce7cb999bec49aab7c79a951a56910a
p801
atp802
Rp803
sVsp
p804
g237
((lp805
g317
atp806
Rp807
sVparse
p808
g237
((lp809
g317
atp810
Rp811
sVspa
p812
g237
((lp813
g317
atp814
Rp815
sVarse
p816
g237
((lp817
g317
atp818
Rp819
sVspar
p820
g237
((lp821
g317
atp822
Rp823
sVrse
p824
g237
((lp825
g317
atp826
Rp827
sVspars
p828
g237
((lp829
g317
atp830
Rp831
sVchild
p832
g237
((lp833
V9ce7cb999bec49aab7c79a951a56910a
p834
atp835
Rp836
sVc
p837
g237
((lp838
g317
atp839
Rp840
sVch
p841
g237
((lp842
g317
atp843
Rp844
sVhild
p845
g237
((lp846
g317
atp847
Rp848
sVchi
p849
g237
((lp850
g317
atp851
Rp852
sVild
p853
g237
((lp854
g317
atp855
Rp856
sVchil
p857
g237
((lp858
g317
atp859
Rp860
sVld
p861
g237
((lp862
g317
atp863
Rp864
sVdetailed
p865
g237
((lp866
V9ce7cb999bec49aab7c79a951a56910a
p867
atp868
Rp869
sVetailed
p870
g237
((lp871
g317
atp872
Rp873
sVdet
p874
g237
((lp875
g317
atp876
Rp877
sVtailed
p878
g237
((lp879
g317
atp880
Rp881
sVdeta
p882
g237
((lp883
g317
atp884
Rp885
sVailed
p886
g237
((lp887
g317
atp888
Rp889
sVdetai
p890
g237
((lp891
g317
atp892
Rp893
sViled
p894
g237
((lp895
g317
atp896
Rp897
sVdetail
p898
g237
((lp899
g317
atp900
Rp901
sVdetaile
p902
g237
((lp903
g317
atp904
Rp905
sVplanned
p906
g237
((lp907
V9ce7cb999bec49aab7c79a951a56910a
p908
atp909
Rp910
sVlanned
p911
g237
((lp912
g317
atp913
Rp914
sVanned
p915
g237
((lp916
g317
atp917
Rp918
sVplan
p919
g237
((lp920
g317
atp921
Rp922
sVnned
p923
g237
((lp924
g317
atp925
Rp926
sVplann
p927
g237
((lp928
g317
atp929
Rp930
sVned
p931
g237
((lp932
g317
atp933
Rp934
sVplanne
p935
g237
((lp936
g317
atp937
Rp938
sVfor
p939
g237
((lp940
V9ce7cb999bec49aab7c79a951a56910a
p941
atp942
Rp943
sVf
p944
g237
((lp945
g317
atp946
Rp947
sVfo
p948
g237
((lp949
g317
atp950
Rp951
sVor
p952
g237
((lp953
g317
atp954
Rp955
sVbe
p956
g237
((lp957
V9ce7cb999bec49aab7c79a951a56910a
p958
atp959
Rp960
sVb
p961
g237
((lp962
g317
atp963
Rp964
sVscope
p965
g237
((lp966
V9ce7cb999bec49aab7c79a951a56910a
p967
atp968
Rp969
sVsc
p970
g237
((lp971
g317
atp972
Rp973
sVcope
p974
g237
((lp975
g317
atp976
Rp977
sVsco
p978
g237
((lp979
g317
atp980
Rp981
sVope
p982
g237
((lp983
g317
atp984
Rp985
sVscop
p986
g237
((lp987
g317
atp988
Rp989
sVpe
p990
g237
((lp991
g317
atp992
Rp993
sVsplade
p994
g237
((lp995
V9ce7cb999bec49aab7c79a951a56910a
p996
atp997
Rp998
sVplade
p999
g237
((lp1000
g317
atp1001
Rp1002
sVspl
p1003
g237
((lp1004
g317
atp1005
Rp1006
sVlade
p1007
g237
((lp1008
g317
atp1009
Rp1010
sVspla
p1011
g237
((lp1012
g317
atp1013
Rp1014
sVade
p1015
g237
((lp1016
g317
atp1017
Rp1018
sVsplad
p1019
g237
((lp1020
g317
atp1021
Rp1022
sVhybrid
p1023
g237
((lp1024
V9ce7cb999bec49aab7c79a951a56910a
p1025
atp1026
Rp1027
sVh
p1028
g237
((lp1029
g317
atp1030
Rp1031
sVhy
p1032
g237
((lp1033
g317
atp1034
Rp1035
sVybrid
p1036
g237
((lp1037
g317
atp1038
Rp1039
sVhyb
p1040
g237
((lp1041
g317
atp1042
Rp1043
sVbrid
p1044
g237
((lp1045
g317
atp1046
Rp1047
sVhybr
p1048
g237
((lp1049
g317
atp1050
Rp1051
sVrid
p1052
g237
((lp1053
g317
atp1054
Rp1055
sVhybri
p1056
g237
((lp1057
g317
atp1058
Rp1059
sVid
p1060
g237
((lp1061
g317
atp1062
Rp1063
sVscoring
p1064
g237
((lp1065
V9ce7cb999bec49aab7c79a951a56910a
p1066
atp1067
Rp1068
sVcoring
p1069
g237
((lp1070
g317
atp1071
Rp1072
sVoring
p1073
g237
((lp1074
g317
atp1075
Rp1076
sVscor
p1077
g237
((lp1078
g317
atp1079
Rp1080
sVring
p1081
g237
((lp1082
g317
atp1083
Rp1084
sVscori
p1085
g237
((lp1086
g317
atp1087
Rp1088
sVing
p1089
g237
((lp1090
g317
atp1091
Rp1092
sVscorin
p1093
g237
((lp1094
g317
atp1095
Rp1096
sVng
p1097
g237
((lp1098
g317
atp1099
Rp1100
sVshall
p1101
g237
((lp1102
V9ce7cb999bec49aab7c79a951a56910a
p1103
atp1104
Rp1105
sVsh
p1106
g237
((lp1107
g317
atp1108
Rp1109
sVhall
p1110
g237
((lp1111
g317
atp1112
Rp1113
sVsha
p1114
g237
((lp1115
g317
atp1116
Rp1117
sVall
p1118
g237
((lp1119
g317
atp1120
Rp1121
sVshal
p1122
g237
((lp1123
g317
atp1124
Rp1125
sVll
p1126
g237
((lp1127
g317
atp1128
Rp1129
sVl
p1130
g237
((lp1131
g317
atp1132
Rp1133
sVcandidates
p1134
g237
((lp1135
V9ce7cb999bec49aab7c79a951a56910a
p1136
atp1137
Rp1138
sVca
p1139
g237
((lp1140
g317
atp1141
Rp1142
sVandidates
p1143
g237
((lp1144
g317
atp1145
Rp1146
sVcan
p1147
g237
((lp1148
g317
atp1149
Rp1150
sVndidates
p1151
g237
((lp1152
g317
atp1153
Rp1154
sVcand
p1155
g237
((lp1156
g317
atp1157
Rp1158
sVdidates
p1159
g237
((lp1160
g317
atp1161
Rp1162
sVcandi
p1163
g237
((lp1164
g317
atp1165
Rp1166
sVidates
p1167
g237
((lp1168
g317
atp1169
Rp1170
sVcandid
p1171
g237
((lp1172
g317
atp1173
Rp1174
sVdates
p1175
g237
((lp1176
g317
atp1177
Rp1178
sVcandida
p1179
g237
((lp1180
g317
atp1181
Rp1182
sVates
p1183
g237
((lp1184
g317
atp1185
Rp1186
sVcandidat
p1187
g237
((lp1188
g317
atp1189
Rp1190
sVtes
p1191
g237
((lp1192
g317
atp1193
Rp1194
sVcandidate
p1195
g237
((lp1196
g317
atp1197
Rp1198
sVes
p1199
g237
((lp1200
g317
atp1201
Rp1202
sVatomic
p1203
g237
((lp1204
V9ce7cb999bec49aab7c79a951a56910a
p1205
atp1206
Rp1207
sVa
p1208
g237
((lp1209
g317
atp1210
Rp1211
sVat
p1212
g237
((lp1213
g317
atp1214
Rp1215
sVtomic
p1216
g237
((lp1217
g317
atp1218
Rp1219
sVato
p1220
g237
((lp1221
g317
atp1222
Rp1223
sVomic
p1224
g237
((lp1225
g317
atp1226
Rp1227
sVatom
p1228
g237
((lp1229
g317
atp1230
Rp1231
sVmic
p1232
g237
((lp1233
g317
atp1234
Rp1235
sVatomi
p1236
g237
((lp1237
g317
atp1238
Rp1239
sVic
p1240
g237
((lp1241
g317
atp1242
Rp1243
sVhuman
p1244
g237
((lp1245
V9ce7cb999bec49aab7c79a951a56910a
p1246
atp1247
Rp1248
sVhu
p1249
g237
((lp1250
g317
atp1251
Rp1252
sVuman
p1253
g237
((lp1254
g317
atp1255
Rp1256
sVhum
p1257
g237
((lp1258
g317
atp1259
Rp1260
sVman
p1261
g237
((lp1262
g317
atp1263
Rp1264
sVhuma
p1265
g237
((lp1266
g317
atp1267
Rp1268
sVan
p1269
g237
((lp1270
g317
atp1271
Rp1272
sVn
p1273
g237
((lp1274
g317
atp1275
Rp1276
sVafter
p1277
g237
((lp1278
V9ce7cb999bec49aab7c79a951a56910a
p1279
atp1280
Rp1281
sVaf
p1282
g237
((lp1283
g317
atp1284
Rp1285
sVfter
p1286
g237
((lp1287
g317
atp1288
Rp1289
sVaft
p1290
g237
((lp1291
g317
atp1292
Rp1293
sVter
p1294
g237
((lp1295
g317
atp1296
Rp1297
sVafte
p1298
g237
((lp1299
g317
atp1300
Rp1301
sVapproval
p1302
g237
((lp1303
V9ce7cb999bec49aab7c79a951a56910a
p1304
atp1305
Rp1306
sVap
p1307
g237
((lp1308
g317
atp1309
Rp1310
sVpproval
p1311
g237
((lp1312
g317
atp1313
Rp1314
sVapp
p1315
g237
((lp1316
g317
atp1317
Rp1318
sVproval
p1319
g237
((lp1320
g317
atp1321
Rp1322
sVappr
p1323
g237
((lp1324
g317
atp1325
Rp1326
sVroval
p1327
g237
((lp1328
g317
atp1329
Rp1330
sVappro
p1331
g237
((lp1332
g317
atp1333
Rp1334
sVoval
p1335
g237
((lp1336
g317
atp1337
Rp1338
sVapprov
p1339
g237
((lp1340
g317
atp1341
Rp1342
sVval
p1343
g237
((lp1344
g317
atp1345
Rp1346
sVapprova
p1347
g237
((lp1348
g317
atp1349
Rp1350
sVal
p1351
g237
((lp1352
g317
atp1353
Rp1354
sVdocument-only
p1355
g237
((lp1356
V9ce7cb999bec49aab7c79a951a56910a
p1357
atp1358
Rp1359
sVocument-only
p1360
g237
((lp1361
g317
atp1362
Rp1363
sVcument-only
p1364
g237
((lp1365
g317
atp1366
Rp1367
sVument-only
p1368
g237
((lp1369
g317
atp1370
Rp1371
sVment-only
p1372
g237
((lp1373
g317
atp1374
Rp1375
sVent-only
p1376
g237
((lp1377
g317
atp1378
Rp1379
sVnt-only
p1380
g237
((lp1381
g317
atp1382
Rp1383
sVt-only
p1384
g237
((lp1385
g317
atp1386
Rp1387
sVdocument-
p1388
g237
((lp1389
g317
atp1390
Rp1391
sV-only
p1392
g237
((lp1393
g317
atp1394
Rp1395
sVdocument-o
p1396
g237
((lp1397
g317
atp1398
Rp1399
sVonly
p1400
g237
((lp1401
g317
atp1402
Rp1403
sVdocument-on
p1404
g237
((lp1405
g317
atp1406
Rp1407
sVnly
p1408
g237
((lp1409
g317
atp1410
Rp1411
sVdocument-onl
p1412
g237
((lp1413
g317
atp1414
Rp1415
sVly
p1416
g237
((lp1417
g317
atp1418
Rp1419
sVy
p1420
g237
((lp1421
g317
atp1422
Rp1423
sVboundary
p1424
g237
((lp1425
V9ce7cb999bec49aab7c79a951a56910a
p1426
atp1427
Rp1428
sVbo
p1429
g237
((lp1430
g317
atp1431
Rp1432
sVoundary
p1433
g237
((lp1434
g317
atp1435
Rp1436
sVbou
p1437
g237
((lp1438
g317
atp1439
Rp1440
sVundary
p1441
g237
((lp1442
g317
atp1443
Rp1444
sVboun
p1445
g237
((lp1446
g317
atp1447
Rp1448
sVndary
p1449
g237
((lp1450
g317
atp1451
Rp1452
sVbound
p1453
g237
((lp1454
g317
atp1455
Rp1456
sVdary
p1457
g237
((lp1458
g317
atp1459
Rp1460
sVbounda
p1461
g237
((lp1462
g317
atp1463
Rp1464
sVary
p1465
g237
((lp1466
g317
atp1467
Rp1468
sVboundar
p1469
g237
((lp1470
g317
atp1471
Rp1472
sVry
p1473
g237
((lp1474
g317
atp1475
Rp1476
sVretrieval
p1477
g237
((lp1478
V9ce7cb999bec49aab7c79a951a56910a
p1479
atp1480
Rp1481
sVetrieval
p1482
g237
((lp1483
g317
atp1484
Rp1485
sVret
p1486
g237
((lp1487
g317
atp1488
Rp1489
sVtrieval
p1490
g237
((lp1491
g317
atp1492
Rp1493
sVretr
p1494
g237
((lp1495
g317
atp1496
Rp1497
sVrieval
p1498
g237
((lp1499
g317
atp1500
Rp1501
sVretri
p1502
g237
((lp1503
g317
atp1504
Rp1505
sVieval
p1506
g237
((lp1507
g317
atp1508
Rp1509
sVretrie
p1510
g237
((lp1511
g317
atp1512
Rp1513
sVeval
p1514
g237
((lp1515
g317
atp1516
Rp1517
sVretriev
p1518
g237
((lp1519
g317
atp1520
Rp1521
sVretrieva
p1522
g237
((lp1523
g317
atp1524
Rp1525
sVlater
p1526
g237
((lp1527
V9ce7cb999bec49aab7c79a951a56910a
p1528
atp1529
Rp1530
sVla
p1531
g237
((lp1532
g317
atp1533
Rp1534
sVater
p1535
g237
((lp1536
g317
atp1537
Rp1538
sVlat
p1539
g237
((lp1540
g317
atp1541
Rp1542
sVlate
p1543
g237
((lp1544
g317
atp1545
Rp1546
sVthis
p1547
g237
((lp1548
V9ce7cb999bec49aab7c79a951a56910a
p1549
atp1550
Rp1551
sVth
p1552
g237
((lp1553
g317
atp1554
Rp1555
sVhis
p1556
g237
((lp1557
g317
atp1558
Rp1559
sVthi
p1560
g237
((lp1561
g317
atp1562
Rp1563
sVis
p1564
g237
((lp1565
g317
atp1566
Rp1567
sVadded
p1568
g237
((lp1569
V9ce7cb999bec49aab7c79a951a56910a
p1570
atp1571
Rp1572
sVad
p1573
g237
((lp1574
g317
atp1575
Rp1576
sVdded
p1577
g237
((lp1578
g317
atp1579
Rp1580
sVadd
p1581
g237
((lp1582
g317
atp1583
Rp1584
sVded
p1585
g237
((lp1586
g317
atp1587
Rp1588
sVadde
p1589
g237
((lp1590
g317
atp1591
Rp1592
sVwhere
p1593
g237
((lp1594
V9ce7cb999bec49aab7c79a951a56910a
p1595
atp1596
Rp1597
sVw
p1598
g237
((lp1599
g317
atp1600
Rp1601
sVwh
p1602
g237
((lp1603
g317
atp1604
Rp1605
sVhere
p1606
g237
((lp1607
g317
atp1608
Rp1609
sVwhe
p1610
g237
((lp1611
g317
atp1612
Rp1613
sVere
p1614
g237
((lp1615
g317
atp1616
Rp1617
sVwher
p1618
g237
((lp1619
g317
atp1620
Rp1621
sVi
p1622
g237
((lp1623
g317
atp1624
Rp1625
ssVmap_nodes_by_mid
p1626
(dp1627
V98aefb7febb24ac1a8fc2e4d2a9c5abe
p1628
(dp1629
VMID
p1630
V98aefb7febb24ac1a8fc2e4d2a9c5abe
p1631
sg259
g262
ssV9ce7cb999bec49aab7c79a951a56910a
p1632
(dp1633
g1630
V9ce7cb999bec49aab7c79a951a56910a
p1634
sg281
g283
sssbsVng_source_content
p1635
Nsg323
I00
sV_tx_attrs
p1636
NsV_tx_peg_rule
p1637
Nsb.