ccopy_reg
_reconstructor
p0
(cstrictdoc.backend.sdoc.models.document
SDocDocument
p1
c__builtin__
object
p2
Ntp3
Rp4
(dp5
Vmid
p6
NsVtitle
p7
VEvidence Selection and Condensation Requirements
p8
sVconfig
p9
g0
(cstrictdoc.backend.sdoc.models.document_config
DocumentConfig
p10
g2
Ntp11
Rp12
(dp13
Vuid
p14
VGHOST-REQ-EVIDENCE-SELECTION-CONDENSATION
p15
sVversion
p16
V0.1-dummy
p17
sVdate
p18
NsVclassification
p19
NsVrequirement_prefix
p20
NsVroot
p21
NsVenable_mid
p22
NsVrelation_field
p23
NsVmarkup
p24
VText
p25
sVauto_levels
p26
I01
sVlayout
p27
NsVview_style_tag
p28
V
p29
sVrequirement_style
p30
NsVnode_in_toc_tag
p31
VNODE_IN_TOC
p32
sVrequirement_in_toc
p33
VTrue
p34
sVdefault_view
p35
NsVcustom_metadata
p36
NsV_tx_position
p37
I67
sV_tx_position_end
p38
I195
sVparent
p39
g4
sVng_auto_levels_specified
p40
I01
sVng_line_start
p41
I3
sVng_col_start
p42
I1
sbsVview
p43
g0
(cstrictdoc.backend.sdoc.models.document_view
DocumentView
p44
g2
Ntp45
Rp46
(dp47
g39
g4
sVviews
p48
(lp49
g0
(cstrictdoc.backend.sdoc.models.document_view
DefaultViewElement
p50
g2
Ntp51
Rp52
(dp53
g39
g46
sVview_id
p54
VNOT_RELEVANT
p55
sVtags
p56
(lp57
sVhidden_tags
p58
(lp59
sVname
p60
Nsbasg41
I29
sg42
I773
sbsVgrammar
p61
g0
(cstrictdoc.backend.sdoc.models.document_grammar
DocumentGrammar
p62
g2
Ntp63
Rp64
(dp65
g39
g4
sVelements
p66
(lp67
g0
(cstrictdoc.backend.sdoc.models.grammar_element
GrammarElement
p68
g2
Ntp69
Rp70
(dp71
g39
g64
sVtag
p72
VSECTION
p73
sVproperty_is_composite
p74
I01
sVproperty_prefix
p75
NsVproperty_view_style
p76
NsVproperty_view_style_lower
p77
NsVfields
p78
(lp79
g0
(cstrictdoc.backend.sdoc.models.grammar_element
GrammarElementFieldString
p80
g2
Ntp81
Rp82
(dp83
g7
VUID
p84
sVhuman_title
p85
NsVgef_type
p86
VString
p87
sVrequired
p88
I00
sg6
g0
(cstrictdoc.helpers.mid
MID
p89
c__builtin__
unicode
p90
V457f894d8d9a4676983038235f7462de
p91
tp92
Rp93
sg39
Nsbag0
(g80
g2
Ntp94
Rp95
(dp96
g7
VLEVEL
p97
sg85
Nsg86
g87
sg88
I00
sg6
g0
(g89
g90
Va0360fca168e4052ac1b6e3df7eeecf9
p98
tp99
Rp100
sg39
Nsbag0
(g80
g2
Ntp101
Rp102
(dp103
g7
VPREFIX
p104
sg85
Nsg86
g87
sg88
I00
sg6
g0
(g89
g90
V5cf745cee9b94c3fb98d8f9cc23f37be
p105
tp106
Rp107
sg39
Nsbag0
(g80
g2
Ntp108
Rp109
(dp110
g7
VTITLE
p111
sg85
Nsg86
g87
sg88
I01
sg6
g0
(g89
g90
V998c375ee6c54f929c08e20eacc785ed
p112
tp113
Rp114
sg39
NsbasVrelations
p115
(lp116
sVfields_map
p117
ccollections
OrderedDict
p118
(tRp119
g84
g82
sg97
g95
sg104
g102
sg111
g109
ssVfield_titles
p120
(lp121
g84
ag97
ag104
ag111
asVcontent_field
p122
(g29
I-1
tp123
sV_multiline_field_index
p124
I4
sg6
g0
(g89
g90
Vc3f903db4f3544d6b477837dce2767cd
p125
tp126
Rp127
sg41
Nsg42
Nsbag0
(g68
g2
Ntp128
Rp129
(dp130
g39
g64
sg72
VTEXT
p131
sg74
Nsg75
Nsg76
Nsg77
Nsg78
(lp132
g0
(g80
g2
Ntp133
Rp134
(dp135
g7
g84
sg85
Nsg86
g87
sg88
I00
sg6
g0
(g89
g90
V34ba785245f646fea00f7c62dabe92ab
p136
tp137
Rp138
sg39
Nsbag0
(g80
g2
Ntp139
Rp140
(dp141
g7
VSTATEMENT
p142
sg85
Nsg86
g87
sg88
I01
sg6
g0
(g89
g90
V8d4787109c7d4d1e9a4a096b1e035831
p143
tp144
Rp145
sg39
Nsbasg115
(lp146
sg117
g118
(tRp147
g84
g134
sg142
g140
ssg120
(lp148
g84
ag142
asg122
(g142
I1
tp149
sg124
I1
sg6
g0
(g89
g90
V20fc040ed3ac46db97efc375b886d930
p150
tp151
Rp152
sg41
Nsg42
Nsbag0
(g68
g2
Ntp153
Rp154
(dp155
g39
g64
sg72
VREQUIREMENT
p156
sg74
Nsg75
Nsg76
Nsg77
Nsg78
(lp157
g0
(g80
g2
Ntp158
Rp159
(dp160
g7
g84
sg85
Nsg86
g87
sg88
I00
sg6
g0
(g89
g90
V70a5447532154e74bbd6365da2050a8e
p161
tp162
Rp163
sg39
Nsbag0
(g80
g2
Ntp164
Rp165
(dp166
g7
g97
sg85
Nsg86
g87
sg88
I00
sg6
g0
(g89
g90
Vf2a8fe50959d474ea6998238de560307
p167
tp168
Rp169
sg39
Nsbag0
(g80
g2
Ntp170
Rp171
(dp172
g7
VSTATUS
p173
sg85
Nsg86
g87
sg88
I00
sg6
g0
(g89
g90
V3dce66713bd54285ae55e03937b077ae
p174
tp175
Rp176
sg39
Nsbag0
(g80
g2
Ntp177
Rp178
(dp179
g7
VTAGS
p180
sg85
Nsg86
g87
sg88
I00
sg6
g0
(g89
g90
Vc8cfd46f1f914b1492b033a7c39ffdaf
p181
tp182
Rp183
sg39
Nsbag0
(g80
g2
Ntp184
Rp185
(dp186
g7
g111
sg85
Nsg86
g87
sg88
I00
sg6
g0
(g89
g90
Veb4610ed90ce44e69a1589fdae89ce86
p187
tp188
Rp189
sg39
Nsbag0
(g80
g2
Ntp190
Rp191
(dp192
g7
g142
sg85
Nsg86
g87
sg88
I00
sg6
g0
(g89
g90
V78ba7ee3c7314beb9ce16a2119ee8a4f
p193
tp194
Rp195
sg39
Nsbag0
(g80
g2
Ntp196
Rp197
(dp198
g7
VRATIONALE
p199
sg85
Nsg86
g87
sg88
I00
sg6
g0
(g89
g90
V2fd21f50fe8b4347b43ffe5f583b5c9d
p200
tp201
Rp202
sg39
Nsbag0
(g80
g2
Ntp203
Rp204
(dp205
g7
VCOMMENT
p206
sg85
Nsg86
g87
sg88
I00
sg6
g0
(g89
g90
Vede1858ff77147f091bffb82dfbc15fb
p207
tp208
Rp209
sg39
Nsbasg115
(lp210
g0
(cstrictdoc.backend.sdoc.models.grammar_element
GrammarElementRelationParent
p211
g2
Ntp212
Rp213
(dp214
g39
g154
sVrelation_type
p215
VParent
p216
sVrelation_role
p217
NsVreverse_relation_role
p218
Nsg6
g0
(g89
g90
Ve24f7a84c38c498cb15d9e029cafcbea
p219
tp220
Rp221
sbag0
(cstrictdoc.backend.sdoc.models.grammar_element
GrammarElementRelationFile
p222
g2
Ntp223
Rp224
(dp225
g39
g154
sg215
VFile
p226
sg217
Nsg218
Nsg6
g0
(g89
g90
V6968547115de4c34974ed3aa74587d52
p227
tp228
Rp229
sbasg117
g118
(tRp230
g84
g159
sg97
g165
sg173
g171
sg180
g178
sg111
g185
sg142
g191
sg199
g197
sg206
g204
ssg120
(lp231
g84
ag97
ag173
ag180
ag111
ag142
ag199
ag206
asg122
(g142
I5
tp232
sg124
I5
sg6
g0
(g89
g90
Vc4e9de9ecf5848f8b938c58edcc9e15d
p233
tp234
Rp235
sg41
Nsg42
NsbasVregistered_elements
p236
c__builtin__
set
p237
((lp238
g73
ag156
ag131
atp239
Rp240
sVelements_by_type
p241
(dp242
g73
g70
sg131
g129
sg156
g154
ssVimport_from_file
p243
NsVis_default
p244
I01
sg41
Nsg42
NsbsVsection_contents
p245
(lp246
g0
(cstrictdoc.backend.sdoc.models.node
SDocCompositeNode
p247
g2
Ntp248
Rp249
(dp250
Vnode_type
p251
VSECTION
p252
sg78
(lp253
g0
(cstrictdoc.backend.sdoc.models.node
SDocNodeField
p254
g2
Ntp255
Rp256
(dp257
Vfield_name
p258
VTITLE
p259
sVparts
p260
(lp261
VPlaceholder
p262
asVmultiline__
p263
g29
sg37
I208
sg38
I227
sg39
g249
sVmultiline
p264
I00
sVorigin
p265
cstrictdoc.backend.sdoc.models.node
SDocNodeFieldOrigin
p266
(VDOCUMENT
p267
tp268
Rp269
sbasg115
(lp270
sg245
(lp271
g0
(cstrictdoc.backend.sdoc.models.node
SDocNode
p272
g2
Ntp273
Rp274
(dp275
g251
VTEXT
p276
sg78
(lp277
g0
(g254
g2
Ntp278
Rp279
(dp280
g258
VSTATEMENT
p281
sg260
(lp282
VThis is a placeholder child requirements document for GHOST evidence selection and condensation.\u000a\u000aPlanned scope:\u000a- ReRanker boundary\u000a- A3 usefulness gate\u000a- A4 condenser\u000a- final selection IDs\u000a- GUI-inspectable stage views\u000a- document evidence condensation\u000a\u000aDetailed atomic requirements shall be added later after human approval.\u000a
p283
asg263
V>>>\u000a
p284
sg37
I235
sg38
I581
sg39
g274
sg264
I01
sg265
g269
sbasg115
(lp285
sg37
I228
sg38
I581
sg39
g249
sVis_composite
p286
I00
sg245
(lp287
sVhas_meta
p288
I00
sVfields_as_parsed
p289
g277
sVordered_fields_lookup
p290
g118
(tRp291
g281
(lp292
g279
assVng_document_reference
p293
g0
(cstrictdoc.backend.sdoc.document_reference
DocumentReference
p294
g2
Ntp295
Rp296
(dp297
V_document
p298
g4
sbsVng_including_document_reference
p299
g0
(g294
g2
Ntp300
Rp301
(dp302
g298
Nsbsg41
I13
sVng_line_end
p303
I27
sg42
I1
sVng_col_end
p304
I1
sVng_byte_start
p305
I228
sVng_byte_end
p306
I581
sVcontext
p307
g0
(cstrictdoc.backend.sdoc.models.node
SDocNodeContext
p308
g2
Ntp309
Rp310
(dp311
Vtitle_number_string
p312
g29
sVng_level
p313
I2
sbsVreserved_mid
p314
g0
(g89
g90
V024996f8b76241aab0deabe443a2be1a
p315
tp316
Rp317
sVmid_permanent
p318
I00
sVng_resolved_custom_level
p319
VNone
p320
sVcustom_level
p321
NsVng_has_requirements
p322
I00
sVautogen
p323
I00
sbasVnode_type_close
p324
VSECTION
p325
sg37
I196
sg38
I595
sg39
g4
sg286
I01
sg288
I00
sg289
g253
sg290
g118
(tRp326
g259
(lp327
g256
assg293
g296
sg299
g301
sg41
I10
sg303
I29
sg42
I1
sg304
I1
sg305
I196
sg306
I595
sg307
g0
(g308
g2
Ntp328
Rp329
(dp330
g312
V1
p331
sg313
I1
sbsg314
g0
(g89
g90
V65e2008d42064fbda10552d13b49ccb2
p332
tp333
Rp334
sg318
I00
sg319
Nsg321
Nsg322
I00
sg323
I00
sbasg37
I0
sg38
I595
sV_tx_filename
p335
V/home/rusbeh_ab/project/RAGstream/doc/01-Requirements/strictdoc/33_evidence_selection_and_condensation.sdoc
p336
sV_tx_metamodel
p337
NsV_tx_model_params
p338
NsV_tx_parser
p339
NsVreserved_title
p340
g8
sVis_bundle_document
p341
I00
sVfragments_from_files
p342
(lp343
sg322
I00
sVmeta
p344
Nsg314
g0
(g89
g90
Vb3fd479c52704226b64fec448553a868
p345
tp346
Rp347
sg318
I00
sVincluded_documents
p348
(lp349
sg307
g0
(g308
g2
Ntp350
Rp351
(dp352
g312
Nsg313
I0
sbsg299
g301
sVng_including_document_from_file
p353
NsVsearch_index
p354
g0
(cstrictdoc.backend.sdoc.models.document
SDocDocumentSearchIndex
p355
g2
Ntp356
Rp357
(dp358
Vdocument_index
p359
ccollections
defaultdict
p360
(g237
tp361
Rp362
Vplaceholder
p363
g237
((lp364
V65e2008d42064fbda10552d13b49ccb2
p365
aV024996f8b76241aab0deabe443a2be1a
p366
atp367
Rp368
sVp
p369
g237
((lp370
g334
ag317
atp371
Rp372
sVpl
p373
g237
((lp374
g334
ag317
atp375
Rp376
sVlaceholder
p377
g237
((lp378
g334
ag317
atp379
Rp380
sVpla
p381
g237
((lp382
g334
ag317
atp383
Rp384
sVaceholder
p385
g237
((lp386
g334
ag317
atp387
Rp388
sVplac
p389
g237
((lp390
g334
ag317
atp391
Rp392
sVceholder
p393
g237
((lp394
g334
ag317
atp395
Rp396
sVplace
p397
g237
((lp398
g334
ag317
atp399
Rp400
sVeholder
p401
g237
((lp402
g334
ag317
atp403
Rp404
sVplaceh
p405
g237
((lp406
g334
ag317
atp407
Rp408
sVholder
p409
g237
((lp410
g334
ag317
atp411
Rp412
sVplaceho
p413
g237
((lp414
g334
ag317
atp415
Rp416
sVolder
p417
g237
((lp418
g334
ag317
atp419
Rp420
sVplacehol
p421
g237
((lp422
g334
ag317
atp423
Rp424
sVlder
p425
g237
((lp426
g334
ag317
atp427
Rp428
sVplacehold
p429
g237
((lp430
g334
ag317
atp431
Rp432
sVder
p433
g237
((lp434
g334
ag317
atp435
Rp436
sVplaceholde
p437
g237
((lp438
g334
ag317
atp439
Rp440
sVer
p441
g237
((lp442
g334
ag317
atp443
Rp444
sVr
p445
g237
((lp446
g334
ag317
atp447
Rp448
sVrequirements
p449
g237
((lp450
V024996f8b76241aab0deabe443a2be1a
p451
atp452
Rp453
sVre
p454
g237
((lp455
g317
atp456
Rp457
sVequirements
p458
g237
((lp459
g317
atp460
Rp461
sVreq
p462
g237
((lp463
g317
atp464
Rp465
sVquirements
p466
g237
((lp467
g317
atp468
Rp469
sVrequ
p470
g237
((lp471
g317
atp472
Rp473
sVuirements
p474
g237
((lp475
g317
atp476
Rp477
sVrequi
p478
g237
((lp479
g317
atp480
Rp481
sVirements
p482
g237
((lp483
g317
atp484
Rp485
sVrequir
p486
g237
((lp487
g317
atp488
Rp489
sVrements
p490
g237
((lp491
g317
atp492
Rp493
sVrequire
p494
g237
((lp495
g317
atp496
Rp497
sVements
p498
g237
((lp499
g317
atp500
Rp501
sVrequirem
p502
g237
((lp503
g317
atp504
Rp505
sVments
p506
g237
((lp507
g317
atp508
Rp509
sVrequireme
p510
g237
((lp511
g317
atp512
Rp513
sVents
p514
g237
((lp515
g317
atp516
Rp517
sVrequiremen
p518
g237
((lp519
g317
atp520
Rp521
sVnts
p522
g237
((lp523
g317
atp524
Rp525
sVrequirement
p526
g237
((lp527
g317
atp528
Rp529
sVts
p530
g237
((lp531
g317
atp532
Rp533
sVs
p534
g237
((lp535
g317
atp536
Rp537
sVdocument
p538
g237
((lp539
V024996f8b76241aab0deabe443a2be1a
p540
atp541
Rp542
sVd
p543
g237
((lp544
g317
atp545
Rp546
sVdo
p547
g237
((lp548
g317
atp549
Rp550
sVocument
p551
g237
((lp552
g317
atp553
Rp554
sVdoc
p555
g237
((lp556
g317
atp557
Rp558
sVcument
p559
g237
((lp560
g317
atp561
Rp562
sVdocu
p563
g237
((lp564
g317
atp565
Rp566
sVument
p567
g237
((lp568
g317
atp569
Rp570
sVdocum
p571
g237
((lp572
g317
atp573
Rp574
sVment
p575
g237
((lp576
g317
atp577
Rp578
sVdocume
p579
g237
((lp580
g317
atp581
Rp582
sVent
p583
g237
((lp584
g317
atp585
Rp586
sVdocumen
p587
g237
((lp588
g317
atp589
Rp590
sVnt
p591
g237
((lp592
g317
atp593
Rp594
sVt
p595
g237
((lp596
g317
atp597
Rp598
sVghost
p599
g237
((lp600
V024996f8b76241aab0deabe443a2be1a
p601
atp602
Rp603
sVg
p604
g237
((lp605
g317
atp606
Rp607
sVgh
p608
g237
((lp609
g317
atp610
Rp611
sVhost
p612
g237
((lp613
g317
atp614
Rp615
sVgho
p616
g237
((lp617
g317
atp618
Rp619
sVost
p620
g237
((lp621
g317
atp622
Rp623
sVghos
p624
g237
((lp625
g317
atp626
Rp627
sVst
p628
g237
((lp629
g317
atp630
Rp631
sVgui-inspectable
p632
g237
((lp633
V024996f8b76241aab0deabe443a2be1a
p634
atp635
Rp636
sVgu
p637
g237
((lp638
g317
atp639
Rp640
sVui-inspectable
p641
g237
((lp642
g317
atp643
Rp644
sVgui
p645
g237
((lp646
g317
atp647
Rp648
sVi-inspectable
p649
g237
((lp650
g317
atp651
Rp652
sVgui-
p653
g237
((lp654
g317
atp655
Rp656
sV-inspectable
p657
g237
((lp658
g317
atp659
Rp660
sVgui-i
p661
g237
((lp662
g317
atp663
Rp664
sVinspectable
p665
g237
((lp666
g317
atp667
Rp668
sVgui-in
p669
g237
((lp670
g317
atp671
Rp672
sVnspectable
p673
g237
((lp674
g317
atp675
Rp676
sVgui-ins
p677
g237
((lp678
g317
atp679
Rp680
sVspectable
p681
g237
((lp682
g317
atp683
Rp684
sVgui-insp
p685
g237
((lp686
g317
atp687
Rp688
sVpectable
p689
g237
((lp690
g317
atp691
Rp692
sVgui-inspe
p693
g237
((lp694
g317
atp695
Rp696
sVectable
p697
g237
((lp698
g317
atp699
Rp700
sVgui-inspec
p701
g237
((lp702
g317
atp703
Rp704
sVctable
p705
g237
((lp706
g317
atp707
Rp708
sVgui-inspect
p709
g237
((lp710
g317
atp711
Rp712
sVtable
p713
g237
((lp714
g317
atp715
Rp716
sVgui-inspecta
p717
g237
((lp718
g317
atp719
Rp720
sVable
p721
g237
((lp722
g317
atp723
Rp724
sVgui-inspectab
p725
g237
((lp726
g317
atp727
Rp728
sVble
p729
g237
((lp730
g317
atp731
Rp732
sVgui-inspectabl
p733
g237
((lp734
g317
atp735
Rp736
sVle
p737
g237
((lp738
g317
atp739
Rp740
sVe
p741
g237
((lp742
g317
atp743
Rp744
sVchild
p745
g237
((lp746
V024996f8b76241aab0deabe443a2be1a
p747
atp748
Rp749
sVc
p750
g237
((lp751
g317
atp752
Rp753
sVch
p754
g237
((lp755
g317
atp756
Rp757
sVhild
p758
g237
((lp759
g317
atp760
Rp761
sVchi
p762
g237
((lp763
g317
atp764
Rp765
sVild
p766
g237
((lp767
g317
atp768
Rp769
sVchil
p770
g237
((lp771
g317
atp772
Rp773
sVld
p774
g237
((lp775
g317
atp776
Rp777
sVdetailed
p778
g237
((lp779
V024996f8b76241aab0deabe443a2be1a
p780
atp781
Rp782
sVde
p783
g237
((lp784
g317
atp785
Rp786
sVetailed
p787
g237
((lp788
g317
atp789
Rp790
sVdet
p791
g237
((lp792
g317
atp793
Rp794
sVtailed
p795
g237
((lp796
g317
atp797
Rp798
sVdeta
p799
g237
((lp800
g317
atp801
Rp802
sVailed
p803
g237
((lp804
g317
atp805
Rp806
sVdetai
p807
g237
((lp808
g317
atp809
Rp810
sViled
p811
g237
((lp812
g317
atp813
Rp814
sVdetail
p815
g237
((lp816
g317
atp817
Rp818
sVled
p819
g237
((lp820
g317
atp821
Rp822
sVdetaile
p823
g237
((lp824
g317
atp825
Rp826
sVed
p827
g237
((lp828
g317
atp829
Rp830
sVplanned
p831
g237
((lp832
V024996f8b76241aab0deabe443a2be1a
p833
atp834
Rp835
sVlanned
p836
g237
((lp837
g317
atp838
Rp839
sVanned
p840
g237
((lp841
g317
atp842
Rp843
sVplan
p844
g237
((lp845
g317
atp846
Rp847
sVnned
p848
g237
((lp849
g317
atp850
Rp851
sVplann
p852
g237
((lp853
g317
atp854
Rp855
sVned
p856
g237
((lp857
g317
atp858
Rp859
sVplanne
p860
g237
((lp861
g317
atp862
Rp863
sVfor
p864
g237
((lp865
V024996f8b76241aab0deabe443a2be1a
p866
atp867
Rp868
sVf
p869
g237
((lp870
g317
atp871
Rp872
sVfo
p873
g237
((lp874
g317
atp875
Rp876
sVor
p877
g237
((lp878
g317
atp879
Rp880
sVbe
p881
g237
((lp882
V024996f8b76241aab0deabe443a2be1a
p883
atp884
Rp885
sVb
p886
g237
((lp887
g317
atp888
Rp889
sVcondensation
p890
g237
((lp891
V024996f8b76241aab0deabe443a2be1a
p892
atp893
Rp894
sVco
p895
g237
((lp896
g317
atp897
Rp898
sVondensation
p899
g237
((lp900
g317
atp901
Rp902
sVcon
p903
g237
((lp904
g317
atp905
Rp906
sVndensation
p907
g237
((lp908
g317
atp909
Rp910
sVcond
p911
g237
((lp912
g317
atp913
Rp914
sVdensation
p915
g237
((lp916
g317
atp917
Rp918
sVconde
p919
g237
((lp920
g317
atp921
Rp922
sVensation
p923
g237
((lp924
g317
atp925
Rp926
sVconden
p927
g237
((lp928
g317
atp929
Rp930
sVnsation
p931
g237
((lp932
g317
atp933
Rp934
sVcondens
p935
g237
((lp936
g317
atp937
Rp938
sVsation
p939
g237
((lp940
g317
atp941
Rp942
sVcondensa
p943
g237
((lp944
g317
atp945
Rp946
sVation
p947
g237
((lp948
g317
atp949
Rp950
sVcondensat
p951
g237
((lp952
g317
atp953
Rp954
sVtion
p955
g237
((lp956
g317
atp957
Rp958
sVcondensati
p959
g237
((lp960
g317
atp961
Rp962
sVion
p963
g237
((lp964
g317
atp965
Rp966
sVcondensatio
p967
g237
((lp968
g317
atp969
Rp970
sVon
p971
g237
((lp972
g317
atp973
Rp974
sVn
p975
g237
((lp976
g317
atp977
Rp978
sVscope
p979
g237
((lp980
V024996f8b76241aab0deabe443a2be1a
p981
atp982
Rp983
sVsc
p984
g237
((lp985
g317
atp986
Rp987
sVcope
p988
g237
((lp989
g317
atp990
Rp991
sVsco
p992
g237
((lp993
g317
atp994
Rp995
sVope
p996
g237
((lp997
g317
atp998
Rp999
sVscop
p1000
g237
((lp1001
g317
atp1002
Rp1003
sVpe
p1004
g237
((lp1005
g317
atp1006
Rp1007
sVcondenser
p1008
g237
((lp1009
V024996f8b76241aab0deabe443a2be1a
p1010
atp1011
Rp1012
sVondenser
p1013
g237
((lp1014
g317
atp1015
Rp1016
sVndenser
p1017
g237
((lp1018
g317
atp1019
Rp1020
sVdenser
p1021
g237
((lp1022
g317
atp1023
Rp1024
sVenser
p1025
g237
((lp1026
g317
atp1027
Rp1028
sVnser
p1029
g237
((lp1030
g317
atp1031
Rp1032
sVser
p1033
g237
((lp1034
g317
atp1035
Rp1036
sVcondense
p1037
g237
((lp1038
g317
atp1039
Rp1040
sVevidence
p1041
g237
((lp1042
V024996f8b76241aab0deabe443a2be1a
p1043
atp1044
Rp1045
sVev
p1046
g237
((lp1047
g317
atp1048
Rp1049
sVvidence
p1050
g237
((lp1051
g317
atp1052
Rp1053
sVevi
p1054
g237
((lp1055
g317
atp1056
Rp1057
sVidence
p1058
g237
((lp1059
g317
atp1060
Rp1061
sVevid
p1062
g237
((lp1063
g317
atp1064
Rp1065
sVdence
p1066
g237
((lp1067
g317
atp1068
Rp1069
sVevide
p1070
g237
((lp1071
g317
atp1072
Rp1073
sVence
p1074
g237
((lp1075
g317
atp1076
Rp1077
sVeviden
p1078
g237
((lp1079
g317
atp1080
Rp1081
sVnce
p1082
g237
((lp1083
g317
atp1084
Rp1085
sVevidenc
p1086
g237
((lp1087
g317
atp1088
Rp1089
sVce
p1090
g237
((lp1091
g317
atp1092
Rp1093
sVreranker
p1094
g237
((lp1095
V024996f8b76241aab0deabe443a2be1a
p1096
atp1097
Rp1098
sVeranker
p1099
g237
((lp1100
g317
atp1101
Rp1102
sVrer
p1103
g237
((lp1104
g317
atp1105
Rp1106
sVranker
p1107
g237
((lp1108
g317
atp1109
Rp1110
sVrera
p1111
g237
((lp1112
g317
atp1113
Rp1114
sVanker
p1115
g237
((lp1116
g317
atp1117
Rp1118
sVreran
p1119
g237
((lp1120
g317
atp1121
Rp1122
sVnker
p1123
g237
((lp1124
g317
atp1125
Rp1126
sVrerank
p1127
g237
((lp1128
g317
atp1129
Rp1130
sVker
p1131
g237
((lp1132
g317
atp1133
Rp1134
sVreranke
p1135
g237
((lp1136
g317
atp1137
Rp1138
sVshall
p1139
g237
((lp1140
V024996f8b76241aab0deabe443a2be1a
p1141
atp1142
Rp1143
sVsh
p1144
g237
((lp1145
g317
atp1146
Rp1147
sVhall
p1148
g237
((lp1149
g317
atp1150
Rp1151
sVsha
p1152
g237
((lp1153
g317
atp1154
Rp1155
sVall
p1156
g237
((lp1157
g317
atp1158
Rp1159
sVshal
p1160
g237
((lp1161
g317
atp1162
Rp1163
sVll
p1164
g237
((lp1165
g317
atp1166
Rp1167
sVl
p1168
g237
((lp1169
g317
atp1170
Rp1171
sVa3
p1172
g237
((lp1173
V024996f8b76241aab0deabe443a2be1a
p1174
atp1175
Rp1176
sVa
p1177
g237
((lp1178
g317
atp1179
Rp1180
sV3
p1181
g237
((lp1182
g317
atp1183
Rp1184
sVatomic
p1185
g237
((lp1186
V024996f8b76241aab0deabe443a2be1a
p1187
atp1188
Rp1189
sVat
p1190
g237
((lp1191
g317
atp1192
Rp1193
sVtomic
p1194
g237
((lp1195
g317
atp1196
Rp1197
sVato
p1198
g237
((lp1199
g317
atp1200
Rp1201
sVomic
p1202
g237
((lp1203
g317
atp1204
Rp1205
sVatom
p1206
g237
((lp1207
g317
atp1208
Rp1209
sVmic
p1210
g237
((lp1211
g317
atp1212
Rp1213
sVatomi
p1214
g237
((lp1215
g317
atp1216
Rp1217
sVic
p1218
g237
((lp1219
g317
atp1220
Rp1221
sVstage
p1222
g237
((lp1223
V024996f8b76241aab0deabe443a2be1a
p1224
atp1225
Rp1226
sVtage
p1227
g237
((lp1228
g317
atp1229
Rp1230
sVsta
p1231
g237
((lp1232
g317
atp1233
Rp1234
sVage
p1235
g237
((lp1236
g317
atp1237
Rp1238
sVstag
p1239
g237
((lp1240
g317
atp1241
Rp1242
sVge
p1243
g237
((lp1244
g317
atp1245
Rp1246
sVhuman
p1247
g237
((lp1248
V024996f8b76241aab0deabe443a2be1a
p1249
atp1250
Rp1251
sVh
p1252
g237
((lp1253
g317
atp1254
Rp1255
sVhu
p1256
g237
((lp1257
g317
atp1258
Rp1259
sVuman
p1260
g237
((lp1261
g317
atp1262
Rp1263
sVhum
p1264
g237
((lp1265
g317
atp1266
Rp1267
sVman
p1268
g237
((lp1269
g317
atp1270
Rp1271
sVhuma
p1272
g237
((lp1273
g317
atp1274
Rp1275
sVan
p1276
g237
((lp1277
g317
atp1278
Rp1279
sVafter
p1280
g237
((lp1281
V024996f8b76241aab0deabe443a2be1a
p1282
atp1283
Rp1284
sVaf
p1285
g237
((lp1286
g317
atp1287
Rp1288
sVfter
p1289
g237
((lp1290
g317
atp1291
Rp1292
sVaft
p1293
g237
((lp1294
g317
atp1295
Rp1296
sVter
p1297
g237
((lp1298
g317
atp1299
Rp1300
sVafte
p1301
g237
((lp1302
g317
atp1303
Rp1304
sVand
p1305
g237
((lp1306
V024996f8b76241aab0deabe443a2be1a
p1307
atp1308
Rp1309
sVnd
p1310
g237
((lp1311
g317
atp1312
Rp1313
sVa4
p1314
g237
((lp1315
V024996f8b76241aab0deabe443a2be1a
p1316
atp1317
Rp1318
sV4
p1319
g237
((lp1320
g317
atp1321
Rp1322
sVapproval
p1323
g237
((lp1324
V024996f8b76241aab0deabe443a2be1a
p1325
atp1326
Rp1327
sVap
p1328
g237
((lp1329
g317
atp1330
Rp1331
sVpproval
p1332
g237
((lp1333
g317
atp1334
Rp1335
sVapp
p1336
g237
((lp1337
g317
atp1338
Rp1339
sVproval
p1340
g237
((lp1341
g317
atp1342
Rp1343
sVappr
p1344
g237
((lp1345
g317
atp1346
Rp1347
sVroval
p1348
g237
((lp1349
g317
atp1350
Rp1351
sVappro
p1352
g237
((lp1353
g317
atp1354
Rp1355
sVoval
p1356
g237
((lp1357
g317
atp1358
Rp1359
sVapprov
p1360
g237
((lp1361
g317
atp1362
Rp1363
sVval
p1364
g237
((lp1365
g317
atp1366
Rp1367
sVapprova
p1368
g237
((lp1369
g317
atp1370
Rp1371
sVal
p1372
g237
((lp1373
g317
atp1374
Rp1375
sVboundary
p1376
g237
((lp1377
V024996f8b76241aab0deabe443a2be1a
p1378
atp1379
Rp1380
sVbo
p1381
g237
((lp1382
g317
atp1383
Rp1384
sVoundary
p1385
g237
((lp1386
g317
atp1387
Rp1388
sVbou
p1389
g237
((lp1390
g317
atp1391
Rp1392
sVundary
p1393
g237
((lp1394
g317
atp1395
Rp1396
sVboun
p1397
g237
((lp1398
g317
atp1399
Rp1400
sVndary
p1401
g237
((lp1402
g317
atp1403
Rp1404
sVbound
p1405
g237
((lp1406
g317
atp1407
Rp1408
sVdary
p1409
g237
((lp1410
g317
atp1411
Rp1412
sVbounda
p1413
g237
((lp1414
g317
atp1415
Rp1416
sVary
p1417
g237
((lp1418
g317
atp1419
Rp1420
sVboundar
p1421
g237
((lp1422
g317
atp1423
Rp1424
sVry
p1425
g237
((lp1426
g317
atp1427
Rp1428
sVy
p1429
g237
((lp1430
g317
atp1431
Rp1432
sVids
p1433
g237
((lp1434
V024996f8b76241aab0deabe443a2be1a
p1435
atp1436
Rp1437
sVi
p1438
g237
((lp1439
g317
atp1440
Rp1441
sVid
p1442
g237
((lp1443
g317
atp1444
Rp1445
sVds
p1446
g237
((lp1447
g317
atp1448
Rp1449
sVlater
p1450
g237
((lp1451
V024996f8b76241aab0deabe443a2be1a
p1452
atp1453
Rp1454
sVla
p1455
g237
((lp1456
g317
atp1457
Rp1458
sVater
p1459
g237
((lp1460
g317
atp1461
Rp1462
sVlat
p1463
g237
((lp1464
g317
atp1465
Rp1466
sVlate
p1467
g237
((lp1468
g317
atp1469
Rp1470
sVthis
p1471
g237
((lp1472
V024996f8b76241aab0deabe443a2be1a
p1473
atp1474
Rp1475
sVth
p1476
g237
((lp1477
g317
atp1478
Rp1479
sVhis
p1480
g237
((lp1481
g317
atp1482
Rp1483
sVthi
p1484
g237
((lp1485
g317
atp1486
Rp1487
sVis
p1488
g237
((lp1489
g317
atp1490
Rp1491
sVusefulness
p1492
g237
((lp1493
V024996f8b76241aab0deabe443a2be1a
p1494
atp1495
Rp1496
sVu
p1497
g237
((lp1498
g317
atp1499
Rp1500
sVus
p1501
g237
((lp1502
g317
atp1503
Rp1504
sVsefulness
p1505
g237
((lp1506
g317
atp1507
Rp1508
sVuse
p1509
g237
((lp1510
g317
atp1511
Rp1512
sVefulness
p1513
g237
((lp1514
g317
atp1515
Rp1516
sVusef
p1517
g237
((lp1518
g317
atp1519
Rp1520
sVfulness
p1521
g237
((lp1522
g317
atp1523
Rp1524
sVusefu
p1525
g237
((lp1526
g317
atp1527
Rp1528
sVulness
p1529
g237
((lp1530
g317
atp1531
Rp1532
sVuseful
p1533
g237
((lp1534
g317
atp1535
Rp1536
sVlness
p1537
g237
((lp1538
g317
atp1539
Rp1540
sVusefuln
p1541
g237
((lp1542
g317
atp1543
Rp1544
sVness
p1545
g237
((lp1546
g317
atp1547
Rp1548
sVusefulne
p1549
g237
((lp1550
g317
atp1551
Rp1552
sVess
p1553
g237
((lp1554
g317
atp1555
Rp1556
sVusefulnes
p1557
g237
((lp1558
g317
atp1559
Rp1560
sVss
p1561
g237
((lp1562
g317
atp1563
Rp1564
sVviews
p1565
g237
((lp1566
V024996f8b76241aab0deabe443a2be1a
p1567
atp1568
Rp1569
sVv
p1570
g237
((lp1571
g317
atp1572
Rp1573
sVvi
p1574
g237
((lp1575
g317
atp1576
Rp1577
sViews
p1578
g237
((lp1579
g317
atp1580
Rp1581
sVvie
p1582
g237
((lp1583
g317
atp1584
Rp1585
sVews
p1586
g237
((lp1587
g317
atp1588
Rp1589
sVview
p1590
g237
((lp1591
g317
atp1592
Rp1593
sVws
p1594
g237
((lp1595
g317
atp1596
Rp1597
sVselection
p1598
g237
((lp1599
V024996f8b76241aab0deabe443a2be1a
p1600
atp1601
Rp1602
sVse
p1603
g237
((lp1604
g317
atp1605
Rp1606
sVelection
p1607
g237
((lp1608
g317
atp1609
Rp1610
sVsel
p1611
g237
((lp1612
g317
atp1613
Rp1614
sVlection
p1615
g237
((lp1616
g317
atp1617
Rp1618
sVsele
p1619
g237
((lp1620
g317
atp1621
Rp1622
sVection
p1623
g237
((lp1624
g317
atp1625
Rp1626
sVselec
p1627
g237
((lp1628
g317
atp1629
Rp1630
sVction
p1631
g237
((lp1632
g317
atp1633
Rp1634
sVselect
p1635
g237
((lp1636
g317
atp1637
Rp1638
sVselecti
p1639
g237
((lp1640
g317
atp1641
Rp1642
sVselectio
p1643
g237
((lp1644
g317
atp1645
Rp1646
sVadded
p1647
g237
((lp1648
V024996f8b76241aab0deabe443a2be1a
p1649
atp1650
Rp1651
sVad
p1652
g237
((lp1653
g317
atp1654
Rp1655
sVdded
p1656
g237
((lp1657
g317
atp1658
Rp1659
sVadd
p1660
g237
((lp1661
g317
atp1662
Rp1663
sVded
p1664
g237
((lp1665
g317
atp1666
Rp1667
sVadde
p1668
g237
((lp1669
g317
atp1670
Rp1671
sVgate
p1672
g237
((lp1673
V024996f8b76241aab0deabe443a2be1a
p1674
atp1675
Rp1676
sVga
p1677
g237
((lp1678
g317
atp1679
Rp1680
sVate
p1681
g237
((lp1682
g317
atp1683
Rp1684
sVgat
p1685
g237
((lp1686
g317
atp1687
Rp1688
sVte
p1689
g237
((lp1690
g317
atp1691
Rp1692
sVfinal
p1693
g237
((lp1694
V024996f8b76241aab0deabe443a2be1a
p1695
atp1696
Rp1697
sVfi
p1698
g237
((lp1699
g317
atp1700
Rp1701
sVinal
p1702
g237
((lp1703
g317
atp1704
Rp1705
sVfin
p1706
g237
((lp1707
g317
atp1708
Rp1709
sVnal
p1710
g237
((lp1711
g317
atp1712
Rp1713
sVfina
p1714
g237
((lp1715
g317
atp1716
Rp1717
ssVmap_nodes_by_mid
p1718
(dp1719
V65e2008d42064fbda10552d13b49ccb2
p1720
(dp1721
VMID
p1722
V65e2008d42064fbda10552d13b49ccb2
p1723
sg259
g262
ssV024996f8b76241aab0deabe443a2be1a
p1724
(dp1725
g1722
V024996f8b76241aab0deabe443a2be1a
p1726
sg281
g283
sssbsVng_source_content
p1727
Nsg323
I00
sV_tx_attrs
p1728
NsV_tx_peg_rule
p1729
Nsb.