ccopy_reg
_reconstructor
p0
(cstrictdoc.backend.sdoc.models.document
SDocDocument
p1
c__builtin__
object
p2
Ntp3
Rp4
(dp5
Vmid
p6
NsVtitle
p7
VMemory System Requirements
p8
sVconfig
p9
g0
(cstrictdoc.backend.sdoc.models.document_config
DocumentConfig
p10
g2
Ntp11
Rp12
(dp13
Vuid
p14
VGHOST-REQ-MEMORY-SYSTEM
p15
sVversion
p16
V0.1-dummy
p17
sVdate
p18
NsVclassification
p19
NsVrequirement_prefix
p20
NsVroot
p21
NsVenable_mid
p22
NsVrelation_field
p23
NsVmarkup
p24
VText
p25
sVauto_levels
p26
I01
sVlayout
p27
NsVview_style_tag
p28
V
p29
sVrequirement_style
p30
NsVnode_in_toc_tag
p31
VNODE_IN_TOC
p32
sVrequirement_in_toc
p33
VTrue
p34
sVdefault_view
p35
NsVcustom_metadata
p36
NsV_tx_position
p37
I45
sV_tx_position_end
p38
I155
sVparent
p39
g4
sVng_auto_levels_specified
p40
I01
sVng_line_start
p41
I3
sVng_col_start
p42
I1
sbsVview
p43
g0
(cstrictdoc.backend.sdoc.models.document_view
DocumentView
p44
g2
Ntp45
Rp46
(dp47
g39
g4
sVviews
p48
(lp49
g0
(cstrictdoc.backend.sdoc.models.document_view
DefaultViewElement
p50
g2
Ntp51
Rp52
(dp53
g39
g46
sVview_id
p54
VNOT_RELEVANT
p55
sVtags
p56
(lp57
sVhidden_tags
p58
(lp59
sVname
p60
Nsbasg41
I31
sg42
I764
sbsVgrammar
p61
g0
(cstrictdoc.backend.sdoc.models.document_grammar
DocumentGrammar
p62
g2
Ntp63
Rp64
(dp65
g39
g4
sVelements
p66
(lp67
g0
(cstrictdoc.backend.sdoc.models.grammar_element
GrammarElement
p68
g2
Ntp69
Rp70
(dp71
g39
g64
sVtag
p72
VSECTION
p73
sVproperty_is_composite
p74
I01
sVproperty_prefix
p75
NsVproperty_view_style
p76
NsVproperty_view_style_lower
p77
NsVfields
p78
(lp79
g0
(cstrictdoc.backend.sdoc.models.grammar_element
GrammarElementFieldString
p80
g2
Ntp81
Rp82
(dp83
g7
VUID
p84
sVhuman_title
p85
NsVgef_type
p86
VString
p87
sVrequired
p88
I00
sg6
g0
(cstrictdoc.helpers.mid
MID
p89
c__builtin__
unicode
p90
V3c26126cf3b3402fb3fb012e415473de
p91
tp92
Rp93
sg39
Nsbag0
(g80
g2
Ntp94
Rp95
(dp96
g7
VLEVEL
p97
sg85
Nsg86
g87
sg88
I00
sg6
g0
(g89
g90
V3da08191b45b427da5d7e1feeac67d07
p98
tp99
Rp100
sg39
Nsbag0
(g80
g2
Ntp101
Rp102
(dp103
g7
VPREFIX
p104
sg85
Nsg86
g87
sg88
I00
sg6
g0
(g89
g90
Vd3b3d2b0dfe240ae86addf907eec557c
p105
tp106
Rp107
sg39
Nsbag0
(g80
g2
Ntp108
Rp109
(dp110
g7
VTITLE
p111
sg85
Nsg86
g87
sg88
I01
sg6
g0
(g89
g90
Vb01a2f6c558d4c89925dd7e34ab9c317
p112
tp113
Rp114
sg39
NsbasVrelations
p115
(lp116
sVfields_map
p117
ccollections
OrderedDict
p118
(tRp119
g84
g82
sg97
g95
sg104
g102
sg111
g109
ssVfield_titles
p120
(lp121
g84
ag97
ag104
ag111
asVcontent_field
p122
(g29
I-1
tp123
sV_multiline_field_index
p124
I4
sg6
g0
(g89
g90
Vdaf42caeec064c86b286208bf9d559f6
p125
tp126
Rp127
sg41
Nsg42
Nsbag0
(g68
g2
Ntp128
Rp129
(dp130
g39
g64
sg72
VTEXT
p131
sg74
Nsg75
Nsg76
Nsg77
Nsg78
(lp132
g0
(g80
g2
Ntp133
Rp134
(dp135
g7
g84
sg85
Nsg86
g87
sg88
I00
sg6
g0
(g89
g90
V8fffdc8709964ef0aa95178ac3a36539
p136
tp137
Rp138
sg39
Nsbag0
(g80
g2
Ntp139
Rp140
(dp141
g7
VSTATEMENT
p142
sg85
Nsg86
g87
sg88
I01
sg6
g0
(g89
g90
V00ff81402af84685a24a279d906180be
p143
tp144
Rp145
sg39
Nsbasg115
(lp146
sg117
g118
(tRp147
g84
g134
sg142
g140
ssg120
(lp148
g84
ag142
asg122
(g142
I1
tp149
sg124
I1
sg6
g0
(g89
g90
V7b5bbda83dde4db0987dbee1d53b29b1
p150
tp151
Rp152
sg41
Nsg42
Nsbag0
(g68
g2
Ntp153
Rp154
(dp155
g39
g64
sg72
VREQUIREMENT
p156
sg74
Nsg75
Nsg76
Nsg77
Nsg78
(lp157
g0
(g80
g2
Ntp158
Rp159
(dp160
g7
g84
sg85
Nsg86
g87
sg88
I00
sg6
g0
(g89
g90
V2a44a81bce714756b3de07dab2fec565
p161
tp162
Rp163
sg39
Nsbag0
(g80
g2
Ntp164
Rp165
(dp166
g7
g97
sg85
Nsg86
g87
sg88
I00
sg6
g0
(g89
g90
Vcd01a63823bd475b8c59cb9c4d641dd0
p167
tp168
Rp169
sg39
Nsbag0
(g80
g2
Ntp170
Rp171
(dp172
g7
VSTATUS
p173
sg85
Nsg86
g87
sg88
I00
sg6
g0
(g89
g90
Vb6b0aa9e67d7402abb2098f7318d937e
p174
tp175
Rp176
sg39
Nsbag0
(g80
g2
Ntp177
Rp178
(dp179
g7
VTAGS
p180
sg85
Nsg86
g87
sg88
I00
sg6
g0
(g89
g90
V14b08ce1c246484da8476e859f7491ed
p181
tp182
Rp183
sg39
Nsbag0
(g80
g2
Ntp184
Rp185
(dp186
g7
g111
sg85
Nsg86
g87
sg88
I00
sg6
g0
(g89
g90
V83f2407ef74543dfa912b19c580ba377
p187
tp188
Rp189
sg39
Nsbag0
(g80
g2
Ntp190
Rp191
(dp192
g7
g142
sg85
Nsg86
g87
sg88
I00
sg6
g0
(g89
g90
Ve9da9f9334b24bc8ae784caf7feaeb7b
p193
tp194
Rp195
sg39
Nsbag0
(g80
g2
Ntp196
Rp197
(dp198
g7
VRATIONALE
p199
sg85
Nsg86
g87
sg88
I00
sg6
g0
(g89
g90
Vc52edb7ab0f94fe394c0501becf748de
p200
tp201
Rp202
sg39
Nsbag0
(g80
g2
Ntp203
Rp204
(dp205
g7
VCOMMENT
p206
sg85
Nsg86
g87
sg88
I00
sg6
g0
(g89
g90
Vaeb33e3a606846eaac350811827117e3
p207
tp208
Rp209
sg39
Nsbasg115
(lp210
g0
(cstrictdoc.backend.sdoc.models.grammar_element
GrammarElementRelationParent
p211
g2
Ntp212
Rp213
(dp214
g39
g154
sVrelation_type
p215
VParent
p216
sVrelation_role
p217
NsVreverse_relation_role
p218
Nsg6
g0
(g89
g90
Vbd6da95a78c04b0a814d930e2001a573
p219
tp220
Rp221
sbag0
(cstrictdoc.backend.sdoc.models.grammar_element
GrammarElementRelationFile
p222
g2
Ntp223
Rp224
(dp225
g39
g154
sg215
VFile
p226
sg217
Nsg218
Nsg6
g0
(g89
g90
Vff46449108b8418c874bbc7c4f018e62
p227
tp228
Rp229
sbasg117
g118
(tRp230
g84
g159
sg97
g165
sg173
g171
sg180
g178
sg111
g185
sg142
g191
sg199
g197
sg206
g204
ssg120
(lp231
g84
ag97
ag173
ag180
ag111
ag142
ag199
ag206
asg122
(g142
I5
tp232
sg124
I5
sg6
g0
(g89
g90
V171d5820b19a4faab1c578bfe067949a
p233
tp234
Rp235
sg41
Nsg42
NsbasVregistered_elements
p236
c__builtin__
set
p237
((lp238
g73
ag156
ag131
atp239
Rp240
sVelements_by_type
p241
(dp242
g73
g70
sg131
g129
sg156
g154
ssVimport_from_file
p243
NsVis_default
p244
I01
sg41
Nsg42
NsbsVsection_contents
p245
(lp246
g0
(cstrictdoc.backend.sdoc.models.node
SDocCompositeNode
p247
g2
Ntp248
Rp249
(dp250
Vnode_type
p251
VSECTION
p252
sg78
(lp253
g0
(cstrictdoc.backend.sdoc.models.node
SDocNodeField
p254
g2
Ntp255
Rp256
(dp257
Vfield_name
p258
VTITLE
p259
sVparts
p260
(lp261
VPlaceholder
p262
asVmultiline__
p263
g29
sg37
I168
sg38
I187
sg39
g249
sVmultiline
p264
I00
sVorigin
p265
cstrictdoc.backend.sdoc.models.node
SDocNodeFieldOrigin
p266
(VDOCUMENT
p267
tp268
Rp269
sbasg115
(lp270
sg245
(lp271
g0
(cstrictdoc.backend.sdoc.models.node
SDocNode
p272
g2
Ntp273
Rp274
(dp275
g251
VTEXT
p276
sg78
(lp277
g0
(g254
g2
Ntp278
Rp279
(dp280
g258
VSTATEMENT
p281
sg260
(lp282
VThis is a placeholder parent child requirements document for the GHOST memory system.\u000a\u000aPlanned scope:\u000a- durable memory truth\u000a- memory recording\u000a- memory ingestion\u000a- memory retrieval\u000a- memory merge\u000a- ActiveBrief\u000a- server-side memory files\u000a- imported memory histories\u000a\u000aDetailed atomic requirements shall be placed in this file or in its deeper child files after human approval.\u000a
p283
asg263
V>>>\u000a
p284
sg37
I195
sg38
I590
sg39
g274
sg264
I01
sg265
g269
sbasg115
(lp285
sg37
I188
sg38
I590
sg39
g249
sVis_composite
p286
I00
sg245
(lp287
sVhas_meta
p288
I00
sVfields_as_parsed
p289
g277
sVordered_fields_lookup
p290
g118
(tRp291
g281
(lp292
g279
assVng_document_reference
p293
g0
(cstrictdoc.backend.sdoc.document_reference
DocumentReference
p294
g2
Ntp295
Rp296
(dp297
V_document
p298
g4
sbsVng_including_document_reference
p299
g0
(g294
g2
Ntp300
Rp301
(dp302
g298
Nsbsg41
I13
sVng_line_end
p303
I29
sg42
I1
sVng_col_end
p304
I1
sVng_byte_start
p305
I188
sVng_byte_end
p306
I590
sVcontext
p307
g0
(cstrictdoc.backend.sdoc.models.node
SDocNodeContext
p308
g2
Ntp309
Rp310
(dp311
Vtitle_number_string
p312
g29
sVng_level
p313
I2
sbsVreserved_mid
p314
g0
(g89
g90
V3e822fb06ceb4dcf9317616ed60485f4
p315
tp316
Rp317
sVmid_permanent
p318
I00
sVng_resolved_custom_level
p319
VNone
p320
sVcustom_level
p321
NsVng_has_requirements
p322
I00
sVautogen
p323
I00
sbasVnode_type_close
p324
VSECTION
p325
sg37
I156
sg38
I604
sg39
g4
sg286
I01
sg288
I00
sg289
g253
sg290
g118
(tRp326
g259
(lp327
g256
assg293
g296
sg299
g301
sg41
I10
sg303
I31
sg42
I1
sg304
I1
sg305
I156
sg306
I604
sg307
g0
(g308
g2
Ntp328
Rp329
(dp330
g312
V1
p331
sg313
I1
sbsg314
g0
(g89
g90
Va81646cb0b1f416ab899289dc9c19ab5
p332
tp333
Rp334
sg318
I00
sg319
Nsg321
Nsg322
I00
sg323
I00
sbasg37
I0
sg38
I604
sV_tx_filename
p335
V/home/rusbeh_ab/project/RAGstream/doc/01-Requirements/strictdoc/40_memory_system.sdoc
p336
sV_tx_metamodel
p337
NsV_tx_model_params
p338
NsV_tx_parser
p339
NsVreserved_title
p340
g8
sVis_bundle_document
p341
I00
sVfragments_from_files
p342
(lp343
sg322
I00
sVmeta
p344
Nsg314
g0
(g89
g90
V0c7f0fe4a6204961a1d96752650cc08c
p345
tp346
Rp347
sg318
I00
sVincluded_documents
p348
(lp349
sg307
g0
(g308
g2
Ntp350
Rp351
(dp352
g312
Nsg313
I0
sbsg299
g301
sVng_including_document_from_file
p353
NsVsearch_index
p354
g0
(cstrictdoc.backend.sdoc.models.document
SDocDocumentSearchIndex
p355
g2
Ntp356
Rp357
(dp358
Vdocument_index
p359
ccollections
defaultdict
p360
(g237
tp361
Rp362
Vplaceholder
p363
g237
((lp364
V3e822fb06ceb4dcf9317616ed60485f4
p365
aVa81646cb0b1f416ab899289dc9c19ab5
p366
atp367
Rp368
sVp
p369
g237
((lp370
g317
ag334
atp371
Rp372
sVpl
p373
g237
((lp374
g317
ag334
atp375
Rp376
sVlaceholder
p377
g237
((lp378
g317
ag334
atp379
Rp380
sVpla
p381
g237
((lp382
g317
ag334
atp383
Rp384
sVaceholder
p385
g237
((lp386
g317
ag334
atp387
Rp388
sVplac
p389
g237
((lp390
g317
ag334
atp391
Rp392
sVceholder
p393
g237
((lp394
g317
ag334
atp395
Rp396
sVplace
p397
g237
((lp398
g317
ag334
atp399
Rp400
sVeholder
p401
g237
((lp402
g317
ag334
atp403
Rp404
sVplaceh
p405
g237
((lp406
g317
ag334
atp407
Rp408
sVholder
p409
g237
((lp410
g317
ag334
atp411
Rp412
sVplaceho
p413
g237
((lp414
g317
ag334
atp415
Rp416
sVolder
p417
g237
((lp418
g317
ag334
atp419
Rp420
sVplacehol
p421
g237
((lp422
g317
ag334
atp423
Rp424
sVlder
p425
g237
((lp426
g317
ag334
atp427
Rp428
sVplacehold
p429
g237
((lp430
g317
ag334
atp431
Rp432
sVder
p433
g237
((lp434
g317
ag334
atp435
Rp436
sVplaceholde
p437
g237
((lp438
g317
ag334
atp439
Rp440
sVer
p441
g237
((lp442
g317
ag334
atp443
Rp444
sVr
p445
g237
((lp446
g317
ag334
atp447
Rp448
sVrequirements
p449
g237
((lp450
V3e822fb06ceb4dcf9317616ed60485f4
p451
atp452
Rp453
sVre
p454
g237
((lp455
g317
atp456
Rp457
sVequirements
p458
g237
((lp459
g317
atp460
Rp461
sVreq
p462
g237
((lp463
g317
atp464
Rp465
sVquirements
p466
g237
((lp467
g317
atp468
Rp469
sVrequ
p470
g237
((lp471
g317
atp472
Rp473
sVuirements
p474
g237
((lp475
g317
atp476
Rp477
sVrequi
p478
g237
((lp479
g317
atp480
Rp481
sVirements
p482
g237
((lp483
g317
atp484
Rp485
sVrequir
p486
g237
((lp487
g317
atp488
Rp489
sVrements
p490
g237
((lp491
g317
atp492
Rp493
sVrequire
p494
g237
((lp495
g317
atp496
Rp497
sVements
p498
g237
((lp499
g317
atp500
Rp501
sVrequirem
p502
g237
((lp503
g317
atp504
Rp505
sVments
p506
g237
((lp507
g317
atp508
Rp509
sVrequireme
p510
g237
((lp511
g317
atp512
Rp513
sVents
p514
g237
((lp515
g317
atp516
Rp517
sVrequiremen
p518
g237
((lp519
g317
atp520
Rp521
sVnts
p522
g237
((lp523
g317
atp524
Rp525
sVrequirement
p526
g237
((lp527
g317
atp528
Rp529
sVts
p530
g237
((lp531
g317
atp532
Rp533
sVs
p534
g237
((lp535
g317
atp536
Rp537
sVor
p538
g237
((lp539
V3e822fb06ceb4dcf9317616ed60485f4
p540
atp541
Rp542
sVo
p543
g237
((lp544
g317
atp545
Rp546
sVmerge
p547
g237
((lp548
V3e822fb06ceb4dcf9317616ed60485f4
p549
atp550
Rp551
sVm
p552
g237
((lp553
g317
atp554
Rp555
sVme
p556
g237
((lp557
g317
atp558
Rp559
sVerge
p560
g237
((lp561
g317
atp562
Rp563
sVmer
p564
g237
((lp565
g317
atp566
Rp567
sVrge
p568
g237
((lp569
g317
atp570
Rp571
sVmerg
p572
g237
((lp573
g317
atp574
Rp575
sVge
p576
g237
((lp577
g317
atp578
Rp579
sVe
p580
g237
((lp581
g317
atp582
Rp583
sVdocument
p584
g237
((lp585
V3e822fb06ceb4dcf9317616ed60485f4
p586
atp587
Rp588
sVd
p589
g237
((lp590
g317
atp591
Rp592
sVdo
p593
g237
((lp594
g317
atp595
Rp596
sVocument
p597
g237
((lp598
g317
atp599
Rp600
sVdoc
p601
g237
((lp602
g317
atp603
Rp604
sVcument
p605
g237
((lp606
g317
atp607
Rp608
sVdocu
p609
g237
((lp610
g317
atp611
Rp612
sVument
p613
g237
((lp614
g317
atp615
Rp616
sVdocum
p617
g237
((lp618
g317
atp619
Rp620
sVment
p621
g237
((lp622
g317
atp623
Rp624
sVdocume
p625
g237
((lp626
g317
atp627
Rp628
sVent
p629
g237
((lp630
g317
atp631
Rp632
sVdocumen
p633
g237
((lp634
g317
atp635
Rp636
sVnt
p637
g237
((lp638
g317
atp639
Rp640
sVt
p641
g237
((lp642
g317
atp643
Rp644
sVghost
p645
g237
((lp646
V3e822fb06ceb4dcf9317616ed60485f4
p647
atp648
Rp649
sVg
p650
g237
((lp651
g317
atp652
Rp653
sVgh
p654
g237
((lp655
g317
atp656
Rp657
sVhost
p658
g237
((lp659
g317
atp660
Rp661
sVgho
p662
g237
((lp663
g317
atp664
Rp665
sVost
p666
g237
((lp667
g317
atp668
Rp669
sVghos
p670
g237
((lp671
g317
atp672
Rp673
sVst
p674
g237
((lp675
g317
atp676
Rp677
sVchild
p678
g237
((lp679
V3e822fb06ceb4dcf9317616ed60485f4
p680
atp681
Rp682
sVc
p683
g237
((lp684
g317
atp685
Rp686
sVch
p687
g237
((lp688
g317
atp689
Rp690
sVhild
p691
g237
((lp692
g317
atp693
Rp694
sVchi
p695
g237
((lp696
g317
atp697
Rp698
sVild
p699
g237
((lp700
g317
atp701
Rp702
sVchil
p703
g237
((lp704
g317
atp705
Rp706
sVld
p707
g237
((lp708
g317
atp709
Rp710
sVplaced
p711
g237
((lp712
V3e822fb06ceb4dcf9317616ed60485f4
p713
atp714
Rp715
sVlaced
p716
g237
((lp717
g317
atp718
Rp719
sVaced
p720
g237
((lp721
g317
atp722
Rp723
sVced
p724
g237
((lp725
g317
atp726
Rp727
sVed
p728
g237
((lp729
g317
atp730
Rp731
sVdetailed
p732
g237
((lp733
V3e822fb06ceb4dcf9317616ed60485f4
p734
atp735
Rp736
sVde
p737
g237
((lp738
g317
atp739
Rp740
sVetailed
p741
g237
((lp742
g317
atp743
Rp744
sVdet
p745
g237
((lp746
g317
atp747
Rp748
sVtailed
p749
g237
((lp750
g317
atp751
Rp752
sVdeta
p753
g237
((lp754
g317
atp755
Rp756
sVailed
p757
g237
((lp758
g317
atp759
Rp760
sVdetai
p761
g237
((lp762
g317
atp763
Rp764
sViled
p765
g237
((lp766
g317
atp767
Rp768
sVdetail
p769
g237
((lp770
g317
atp771
Rp772
sVled
p773
g237
((lp774
g317
atp775
Rp776
sVdetaile
p777
g237
((lp778
g317
atp779
Rp780
sVplanned
p781
g237
((lp782
V3e822fb06ceb4dcf9317616ed60485f4
p783
atp784
Rp785
sVlanned
p786
g237
((lp787
g317
atp788
Rp789
sVanned
p790
g237
((lp791
g317
atp792
Rp793
sVplan
p794
g237
((lp795
g317
atp796
Rp797
sVnned
p798
g237
((lp799
g317
atp800
Rp801
sVplann
p802
g237
((lp803
g317
atp804
Rp805
sVned
p806
g237
((lp807
g317
atp808
Rp809
sVplanne
p810
g237
((lp811
g317
atp812
Rp813
sVfor
p814
g237
((lp815
V3e822fb06ceb4dcf9317616ed60485f4
p816
atp817
Rp818
sVf
p819
g237
((lp820
g317
atp821
Rp822
sVfo
p823
g237
((lp824
g317
atp825
Rp826
sVhistories
p827
g237
((lp828
V3e822fb06ceb4dcf9317616ed60485f4
p829
atp830
Rp831
sVh
p832
g237
((lp833
g317
atp834
Rp835
sVhi
p836
g237
((lp837
g317
atp838
Rp839
sVistories
p840
g237
((lp841
g317
atp842
Rp843
sVhis
p844
g237
((lp845
g317
atp846
Rp847
sVstories
p848
g237
((lp849
g317
atp850
Rp851
sVhist
p852
g237
((lp853
g317
atp854
Rp855
sVtories
p856
g237
((lp857
g317
atp858
Rp859
sVhisto
p860
g237
((lp861
g317
atp862
Rp863
sVories
p864
g237
((lp865
g317
atp866
Rp867
sVhistor
p868
g237
((lp869
g317
atp870
Rp871
sVries
p872
g237
((lp873
g317
atp874
Rp875
sVhistori
p876
g237
((lp877
g317
atp878
Rp879
sVies
p880
g237
((lp881
g317
atp882
Rp883
sVhistorie
p884
g237
((lp885
g317
atp886
Rp887
sVes
p888
g237
((lp889
g317
atp890
Rp891
sVbe
p892
g237
((lp893
V3e822fb06ceb4dcf9317616ed60485f4
p894
atp895
Rp896
sVb
p897
g237
((lp898
g317
atp899
Rp900
sVparent
p901
g237
((lp902
V3e822fb06ceb4dcf9317616ed60485f4
p903
atp904
Rp905
sVpa
p906
g237
((lp907
g317
atp908
Rp909
sVarent
p910
g237
((lp911
g317
atp912
Rp913
sVpar
p914
g237
((lp915
g317
atp916
Rp917
sVrent
p918
g237
((lp919
g317
atp920
Rp921
sVpare
p922
g237
((lp923
g317
atp924
Rp925
sVparen
p926
g237
((lp927
g317
atp928
Rp929
sVfiles
p930
g237
((lp931
V3e822fb06ceb4dcf9317616ed60485f4
p932
atp933
Rp934
sVfi
p935
g237
((lp936
g317
atp937
Rp938
sViles
p939
g237
((lp940
g317
atp941
Rp942
sVfil
p943
g237
((lp944
g317
atp945
Rp946
sVles
p947
g237
((lp948
g317
atp949
Rp950
sVfile
p951
g237
((lp952
g317
atp953
Rp954
sVthe
p955
g237
((lp956
V3e822fb06ceb4dcf9317616ed60485f4
p957
atp958
Rp959
sVth
p960
g237
((lp961
g317
atp962
Rp963
sVhe
p964
g237
((lp965
g317
atp966
Rp967
sVscope
p968
g237
((lp969
V3e822fb06ceb4dcf9317616ed60485f4
p970
atp971
Rp972
sVsc
p973
g237
((lp974
g317
atp975
Rp976
sVcope
p977
g237
((lp978
g317
atp979
Rp980
sVsco
p981
g237
((lp982
g317
atp983
Rp984
sVope
p985
g237
((lp986
g317
atp987
Rp988
sVscop
p989
g237
((lp990
g317
atp991
Rp992
sVpe
p993
g237
((lp994
g317
atp995
Rp996
sVshall
p997
g237
((lp998
V3e822fb06ceb4dcf9317616ed60485f4
p999
atp1000
Rp1001
sVsh
p1002
g237
((lp1003
g317
atp1004
Rp1005
sVhall
p1006
g237
((lp1007
g317
atp1008
Rp1009
sVsha
p1010
g237
((lp1011
g317
atp1012
Rp1013
sVall
p1014
g237
((lp1015
g317
atp1016
Rp1017
sVshal
p1018
g237
((lp1019
g317
atp1020
Rp1021
sVll
p1022
g237
((lp1023
g317
atp1024
Rp1025
sVl
p1026
g237
((lp1027
g317
atp1028
Rp1029
sVserver-side
p1030
g237
((lp1031
V3e822fb06ceb4dcf9317616ed60485f4
p1032
atp1033
Rp1034
sVse
p1035
g237
((lp1036
g317
atp1037
Rp1038
sVerver-side
p1039
g237
((lp1040
g317
atp1041
Rp1042
sVser
p1043
g237
((lp1044
g317
atp1045
Rp1046
sVrver-side
p1047
g237
((lp1048
g317
atp1049
Rp1050
sVserv
p1051
g237
((lp1052
g317
atp1053
Rp1054
sVver-side
p1055
g237
((lp1056
g317
atp1057
Rp1058
sVserve
p1059
g237
((lp1060
g317
atp1061
Rp1062
sVer-side
p1063
g237
((lp1064
g317
atp1065
Rp1066
sVserver
p1067
g237
((lp1068
g317
atp1069
Rp1070
sVr-side
p1071
g237
((lp1072
g317
atp1073
Rp1074
sVserver-
p1075
g237
((lp1076
g317
atp1077
Rp1078
sV-side
p1079
g237
((lp1080
g317
atp1081
Rp1082
sVserver-s
p1083
g237
((lp1084
g317
atp1085
Rp1086
sVside
p1087
g237
((lp1088
g317
atp1089
Rp1090
sVserver-si
p1091
g237
((lp1092
g317
atp1093
Rp1094
sVide
p1095
g237
((lp1096
g317
atp1097
Rp1098
sVserver-sid
p1099
g237
((lp1100
g317
atp1101
Rp1102
sVimported
p1103
g237
((lp1104
V3e822fb06ceb4dcf9317616ed60485f4
p1105
atp1106
Rp1107
sVi
p1108
g237
((lp1109
g317
atp1110
Rp1111
sVim
p1112
g237
((lp1113
g317
atp1114
Rp1115
sVmported
p1116
g237
((lp1117
g317
atp1118
Rp1119
sVimp
p1120
g237
((lp1121
g317
atp1122
Rp1123
sVported
p1124
g237
((lp1125
g317
atp1126
Rp1127
sVimpo
p1128
g237
((lp1129
g317
atp1130
Rp1131
sVorted
p1132
g237
((lp1133
g317
atp1134
Rp1135
sVimpor
p1136
g237
((lp1137
g317
atp1138
Rp1139
sVrted
p1140
g237
((lp1141
g317
atp1142
Rp1143
sVimport
p1144
g237
((lp1145
g317
atp1146
Rp1147
sVted
p1148
g237
((lp1149
g317
atp1150
Rp1151
sVimporte
p1152
g237
((lp1153
g317
atp1154
Rp1155
sVatomic
p1156
g237
((lp1157
V3e822fb06ceb4dcf9317616ed60485f4
p1158
atp1159
Rp1160
sVa
p1161
g237
((lp1162
g317
atp1163
Rp1164
sVat
p1165
g237
((lp1166
g317
atp1167
Rp1168
sVtomic
p1169
g237
((lp1170
g317
atp1171
Rp1172
sVato
p1173
g237
((lp1174
g317
atp1175
Rp1176
sVomic
p1177
g237
((lp1178
g317
atp1179
Rp1180
sVatom
p1181
g237
((lp1182
g317
atp1183
Rp1184
sVmic
p1185
g237
((lp1186
g317
atp1187
Rp1188
sVatomi
p1189
g237
((lp1190
g317
atp1191
Rp1192
sVic
p1193
g237
((lp1194
g317
atp1195
Rp1196
sVhuman
p1197
g237
((lp1198
V3e822fb06ceb4dcf9317616ed60485f4
p1199
atp1200
Rp1201
sVhu
p1202
g237
((lp1203
g317
atp1204
Rp1205
sVuman
p1206
g237
((lp1207
g317
atp1208
Rp1209
sVhum
p1210
g237
((lp1211
g317
atp1212
Rp1213
sVman
p1214
g237
((lp1215
g317
atp1216
Rp1217
sVhuma
p1218
g237
((lp1219
g317
atp1220
Rp1221
sVan
p1222
g237
((lp1223
g317
atp1224
Rp1225
sVn
p1226
g237
((lp1227
g317
atp1228
Rp1229
sVafter
p1230
g237
((lp1231
V3e822fb06ceb4dcf9317616ed60485f4
p1232
atp1233
Rp1234
sVaf
p1235
g237
((lp1236
g317
atp1237
Rp1238
sVfter
p1239
g237
((lp1240
g317
atp1241
Rp1242
sVaft
p1243
g237
((lp1244
g317
atp1245
Rp1246
sVter
p1247
g237
((lp1248
g317
atp1249
Rp1250
sVafte
p1251
g237
((lp1252
g317
atp1253
Rp1254
sVtruth
p1255
g237
((lp1256
V3e822fb06ceb4dcf9317616ed60485f4
p1257
atp1258
Rp1259
sVtr
p1260
g237
((lp1261
g317
atp1262
Rp1263
sVruth
p1264
g237
((lp1265
g317
atp1266
Rp1267
sVtru
p1268
g237
((lp1269
g317
atp1270
Rp1271
sVuth
p1272
g237
((lp1273
g317
atp1274
Rp1275
sVtrut
p1276
g237
((lp1277
g317
atp1278
Rp1279
sVin
p1280
g237
((lp1281
V3e822fb06ceb4dcf9317616ed60485f4
p1282
atp1283
Rp1284
sVrecording
p1285
g237
((lp1286
V3e822fb06ceb4dcf9317616ed60485f4
p1287
atp1288
Rp1289
sVecording
p1290
g237
((lp1291
g317
atp1292
Rp1293
sVrec
p1294
g237
((lp1295
g317
atp1296
Rp1297
sVcording
p1298
g237
((lp1299
g317
atp1300
Rp1301
sVreco
p1302
g237
((lp1303
g317
atp1304
Rp1305
sVording
p1306
g237
((lp1307
g317
atp1308
Rp1309
sVrecor
p1310
g237
((lp1311
g317
atp1312
Rp1313
sVrding
p1314
g237
((lp1315
g317
atp1316
Rp1317
sVrecord
p1318
g237
((lp1319
g317
atp1320
Rp1321
sVding
p1322
g237
((lp1323
g317
atp1324
Rp1325
sVrecordi
p1326
g237
((lp1327
g317
atp1328
Rp1329
sVing
p1330
g237
((lp1331
g317
atp1332
Rp1333
sVrecordin
p1334
g237
((lp1335
g317
atp1336
Rp1337
sVng
p1338
g237
((lp1339
g317
atp1340
Rp1341
sVapproval
p1342
g237
((lp1343
V3e822fb06ceb4dcf9317616ed60485f4
p1344
atp1345
Rp1346
sVap
p1347
g237
((lp1348
g317
atp1349
Rp1350
sVpproval
p1351
g237
((lp1352
g317
atp1353
Rp1354
sVapp
p1355
g237
((lp1356
g317
atp1357
Rp1358
sVproval
p1359
g237
((lp1360
g317
atp1361
Rp1362
sVappr
p1363
g237
((lp1364
g317
atp1365
Rp1366
sVroval
p1367
g237
((lp1368
g317
atp1369
Rp1370
sVappro
p1371
g237
((lp1372
g317
atp1373
Rp1374
sVoval
p1375
g237
((lp1376
g317
atp1377
Rp1378
sVapprov
p1379
g237
((lp1380
g317
atp1381
Rp1382
sVval
p1383
g237
((lp1384
g317
atp1385
Rp1386
sVapprova
p1387
g237
((lp1388
g317
atp1389
Rp1390
sVal
p1391
g237
((lp1392
g317
atp1393
Rp1394
sVactivebrief
p1395
g237
((lp1396
V3e822fb06ceb4dcf9317616ed60485f4
p1397
atp1398
Rp1399
sVac
p1400
g237
((lp1401
g317
atp1402
Rp1403
sVctivebrief
p1404
g237
((lp1405
g317
atp1406
Rp1407
sVact
p1408
g237
((lp1409
g317
atp1410
Rp1411
sVtivebrief
p1412
g237
((lp1413
g317
atp1414
Rp1415
sVacti
p1416
g237
((lp1417
g317
atp1418
Rp1419
sVivebrief
p1420
g237
((lp1421
g317
atp1422
Rp1423
sVactiv
p1424
g237
((lp1425
g317
atp1426
Rp1427
sVvebrief
p1428
g237
((lp1429
g317
atp1430
Rp1431
sVactive
p1432
g237
((lp1433
g317
atp1434
Rp1435
sVebrief
p1436
g237
((lp1437
g317
atp1438
Rp1439
sVactiveb
p1440
g237
((lp1441
g317
atp1442
Rp1443
sVbrief
p1444
g237
((lp1445
g317
atp1446
Rp1447
sVactivebr
p1448
g237
((lp1449
g317
atp1450
Rp1451
sVrief
p1452
g237
((lp1453
g317
atp1454
Rp1455
sVactivebri
p1456
g237
((lp1457
g317
atp1458
Rp1459
sVief
p1460
g237
((lp1461
g317
atp1462
Rp1463
sVactivebrie
p1464
g237
((lp1465
g317
atp1466
Rp1467
sVef
p1468
g237
((lp1469
g317
atp1470
Rp1471
sVretrieval
p1472
g237
((lp1473
V3e822fb06ceb4dcf9317616ed60485f4
p1474
atp1475
Rp1476
sVetrieval
p1477
g237
((lp1478
g317
atp1479
Rp1480
sVret
p1481
g237
((lp1482
g317
atp1483
Rp1484
sVtrieval
p1485
g237
((lp1486
g317
atp1487
Rp1488
sVretr
p1489
g237
((lp1490
g317
atp1491
Rp1492
sVrieval
p1493
g237
((lp1494
g317
atp1495
Rp1496
sVretri
p1497
g237
((lp1498
g317
atp1499
Rp1500
sVieval
p1501
g237
((lp1502
g317
atp1503
Rp1504
sVretrie
p1505
g237
((lp1506
g317
atp1507
Rp1508
sVeval
p1509
g237
((lp1510
g317
atp1511
Rp1512
sVretriev
p1513
g237
((lp1514
g317
atp1515
Rp1516
sVretrieva
p1517
g237
((lp1518
g317
atp1519
Rp1520
sVthis
p1521
g237
((lp1522
V3e822fb06ceb4dcf9317616ed60485f4
p1523
atp1524
Rp1525
sVthi
p1526
g237
((lp1527
g317
atp1528
Rp1529
sVis
p1530
g237
((lp1531
g317
atp1532
Rp1533
sVmemory
p1534
g237
((lp1535
V3e822fb06ceb4dcf9317616ed60485f4
p1536
atp1537
Rp1538
sVemory
p1539
g237
((lp1540
g317
atp1541
Rp1542
sVmem
p1543
g237
((lp1544
g317
atp1545
Rp1546
sVmory
p1547
g237
((lp1548
g317
atp1549
Rp1550
sVmemo
p1551
g237
((lp1552
g317
atp1553
Rp1554
sVory
p1555
g237
((lp1556
g317
atp1557
Rp1558
sVmemor
p1559
g237
((lp1560
g317
atp1561
Rp1562
sVry
p1563
g237
((lp1564
g317
atp1565
Rp1566
sVy
p1567
g237
((lp1568
g317
atp1569
Rp1570
sVdurable
p1571
g237
((lp1572
V3e822fb06ceb4dcf9317616ed60485f4
p1573
atp1574
Rp1575
sVdu
p1576
g237
((lp1577
g317
atp1578
Rp1579
sVurable
p1580
g237
((lp1581
g317
atp1582
Rp1583
sVdur
p1584
g237
((lp1585
g317
atp1586
Rp1587
sVrable
p1588
g237
((lp1589
g317
atp1590
Rp1591
sVdura
p1592
g237
((lp1593
g317
atp1594
Rp1595
sVable
p1596
g237
((lp1597
g317
atp1598
Rp1599
sVdurab
p1600
g237
((lp1601
g317
atp1602
Rp1603
sVble
p1604
g237
((lp1605
g317
atp1606
Rp1607
sVdurabl
p1608
g237
((lp1609
g317
atp1610
Rp1611
sVle
p1612
g237
((lp1613
g317
atp1614
Rp1615
sVsystem
p1616
g237
((lp1617
V3e822fb06ceb4dcf9317616ed60485f4
p1618
atp1619
Rp1620
sVsy
p1621
g237
((lp1622
g317
atp1623
Rp1624
sVystem
p1625
g237
((lp1626
g317
atp1627
Rp1628
sVsys
p1629
g237
((lp1630
g317
atp1631
Rp1632
sVstem
p1633
g237
((lp1634
g317
atp1635
Rp1636
sVsyst
p1637
g237
((lp1638
g317
atp1639
Rp1640
sVtem
p1641
g237
((lp1642
g317
atp1643
Rp1644
sVsyste
p1645
g237
((lp1646
g317
atp1647
Rp1648
sVem
p1649
g237
((lp1650
g317
atp1651
Rp1652
sVingestion
p1653
g237
((lp1654
V3e822fb06ceb4dcf9317616ed60485f4
p1655
atp1656
Rp1657
sVngestion
p1658
g237
((lp1659
g317
atp1660
Rp1661
sVgestion
p1662
g237
((lp1663
g317
atp1664
Rp1665
sVinge
p1666
g237
((lp1667
g317
atp1668
Rp1669
sVestion
p1670
g237
((lp1671
g317
atp1672
Rp1673
sVinges
p1674
g237
((lp1675
g317
atp1676
Rp1677
sVstion
p1678
g237
((lp1679
g317
atp1680
Rp1681
sVingest
p1682
g237
((lp1683
g317
atp1684
Rp1685
sVtion
p1686
g237
((lp1687
g317
atp1688
Rp1689
sVingesti
p1690
g237
((lp1691
g317
atp1692
Rp1693
sVion
p1694
g237
((lp1695
g317
atp1696
Rp1697
sVingestio
p1698
g237
((lp1699
g317
atp1700
Rp1701
sVon
p1702
g237
((lp1703
g317
atp1704
Rp1705
sVile
p1706
g237
((lp1707
g317
atp1708
Rp1709
sVits
p1710
g237
((lp1711
V3e822fb06ceb4dcf9317616ed60485f4
p1712
atp1713
Rp1714
sVit
p1715
g237
((lp1716
g317
atp1717
Rp1718
sVdeeper
p1719
g237
((lp1720
V3e822fb06ceb4dcf9317616ed60485f4
p1721
atp1722
Rp1723
sVeeper
p1724
g237
((lp1725
g317
atp1726
Rp1727
sVdee
p1728
g237
((lp1729
g317
atp1730
Rp1731
sVeper
p1732
g237
((lp1733
g317
atp1734
Rp1735
sVdeep
p1736
g237
((lp1737
g317
atp1738
Rp1739
sVper
p1740
g237
((lp1741
g317
atp1742
Rp1743
sVdeepe
p1744
g237
((lp1745
g317
atp1746
Rp1747
ssVmap_nodes_by_mid
p1748
(dp1749
Va81646cb0b1f416ab899289dc9c19ab5
p1750
(dp1751
VMID
p1752
Va81646cb0b1f416ab899289dc9c19ab5
p1753
sg259
g262
ssV3e822fb06ceb4dcf9317616ed60485f4
p1754
(dp1755
g1752
V3e822fb06ceb4dcf9317616ed60485f4
p1756
sg281
g283
sssbsVng_source_content
p1757
Nsg323
I00
sV_tx_attrs
p1758
NsV_tx_peg_rule
p1759
Nsb.