ccopy_reg
_reconstructor
p0
(cstrictdoc.backend.sdoc.models.document
SDocDocument
p1
c__builtin__
object
p2
Ntp3
Rp4
(dp5
Vmid
p6
NsVtitle
p7
VMemory Recording Requirements
p8
sVconfig
p9
g0
(cstrictdoc.backend.sdoc.models.document_config
DocumentConfig
p10
g2
Ntp11
Rp12
(dp13
Vuid
p14
VGHOST-REQ-MEMORY-RECORDING
p15
sVversion
p16
V0.1-dummy
p17
sVdate
p18
NsVclassification
p19
NsVrequirement_prefix
p20
NsVroot
p21
NsVenable_mid
p22
NsVrelation_field
p23
NsVmarkup
p24
VText
p25
sVauto_levels
p26
I01
sVlayout
p27
NsVview_style_tag
p28
V
p29
sVrequirement_style
p30
NsVnode_in_toc_tag
p31
VNODE_IN_TOC
p32
sVrequirement_in_toc
p33
VTrue
p34
sVdefault_view
p35
NsVcustom_metadata
p36
NsV_tx_position
p37
I48
sV_tx_position_end
p38
I161
sVparent
p39
g4
sVng_auto_levels_specified
p40
I01
sVng_line_start
p41
I3
sVng_col_start
p42
I1
sbsVview
p43
g0
(cstrictdoc.backend.sdoc.models.document_view
DocumentView
p44
g2
Ntp45
Rp46
(dp47
g39
g4
sVviews
p48
(lp49
g0
(cstrictdoc.backend.sdoc.models.document_view
DefaultViewElement
p50
g2
Ntp51
Rp52
(dp53
g39
g46
sVview_id
p54
VNOT_RELEVANT
p55
sVtags
p56
(lp57
sVhidden_tags
p58
(lp59
sVname
p60
Nsbasg41
I31
sg42
I805
sbsVgrammar
p61
g0
(cstrictdoc.backend.sdoc.models.document_grammar
DocumentGrammar
p62
g2
Ntp63
Rp64
(dp65
g39
g4
sVelements
p66
(lp67
g0
(cstrictdoc.backend.sdoc.models.grammar_element
GrammarElement
p68
g2
Ntp69
Rp70
(dp71
g39
g64
sVtag
p72
VSECTION
p73
sVproperty_is_composite
p74
I01
sVproperty_prefix
p75
NsVproperty_view_style
p76
NsVproperty_view_style_lower
p77
NsVfields
p78
(lp79
g0
(cstrictdoc.backend.sdoc.models.grammar_element
GrammarElementFieldString
p80
g2
Ntp81
Rp82
(dp83
g7
VUID
p84
sVhuman_title
p85
NsVgef_type
p86
VString
p87
sVrequired
p88
I00
sg6
g0
(cstrictdoc.helpers.mid
MID
p89
c__builtin__
unicode
p90
V54a8153bf41a4e64b0743d024958da7e
p91
tp92
Rp93
sg39
Nsbag0
(g80
g2
Ntp94
Rp95
(dp96
g7
VLEVEL
p97
sg85
Nsg86
g87
sg88
I00
sg6
g0
(g89
g90
V98c52412e03d4ae9bca892819b1302cc
p98
tp99
Rp100
sg39
Nsbag0
(g80
g2
Ntp101
Rp102
(dp103
g7
VPREFIX
p104
sg85
Nsg86
g87
sg88
I00
sg6
g0
(g89
g90
V27b69d6f2e054dec8ad69b9e9cf84a61
p105
tp106
Rp107
sg39
Nsbag0
(g80
g2
Ntp108
Rp109
(dp110
g7
VTITLE
p111
sg85
Nsg86
g87
sg88
I01
sg6
g0
(g89
g90
V938e5df91ab7400ba0edfce9b4d5cc7e
p112
tp113
Rp114
sg39
NsbasVrelations
p115
(lp116
sVfields_map
p117
ccollections
OrderedDict
p118
(tRp119
g84
g82
sg97
g95
sg104
g102
sg111
g109
ssVfield_titles
p120
(lp121
g84
ag97
ag104
ag111
asVcontent_field
p122
(g29
I-1
tp123
sV_multiline_field_index
p124
I4
sg6
g0
(g89
g90
Ve89f70f7e4e34f3dbf12c8b709c78142
p125
tp126
Rp127
sg41
Nsg42
Nsbag0
(g68
g2
Ntp128
Rp129
(dp130
g39
g64
sg72
VTEXT
p131
sg74
Nsg75
Nsg76
Nsg77
Nsg78
(lp132
g0
(g80
g2
Ntp133
Rp134
(dp135
g7
g84
sg85
Nsg86
g87
sg88
I00
sg6
g0
(g89
g90
V4bd8dd8108804eb584a02973156cfeab
p136
tp137
Rp138
sg39
Nsbag0
(g80
g2
Ntp139
Rp140
(dp141
g7
VSTATEMENT
p142
sg85
Nsg86
g87
sg88
I01
sg6
g0
(g89
g90
V7d2da751547747ef9e7c0f13bad14267
p143
tp144
Rp145
sg39
Nsbasg115
(lp146
sg117
g118
(tRp147
g84
g134
sg142
g140
ssg120
(lp148
g84
ag142
asg122
(g142
I1
tp149
sg124
I1
sg6
g0
(g89
g90
V83d34e2d848e4504a02b7d54e554fe7e
p150
tp151
Rp152
sg41
Nsg42
Nsbag0
(g68
g2
Ntp153
Rp154
(dp155
g39
g64
sg72
VREQUIREMENT
p156
sg74
Nsg75
Nsg76
Nsg77
Nsg78
(lp157
g0
(g80
g2
Ntp158
Rp159
(dp160
g7
g84
sg85
Nsg86
g87
sg88
I00
sg6
g0
(g89
g90
V608b6c07a77f47579d5bf2df03eb671b
p161
tp162
Rp163
sg39
Nsbag0
(g80
g2
Ntp164
Rp165
(dp166
g7
g97
sg85
Nsg86
g87
sg88
I00
sg6
g0
(g89
g90
V9377c5bee6db46a4900c4bfd7834f8ed
p167
tp168
Rp169
sg39
Nsbag0
(g80
g2
Ntp170
Rp171
(dp172
g7
VSTATUS
p173
sg85
Nsg86
g87
sg88
I00
sg6
g0
(g89
g90
V83843c91230743c3a93e155695d2caec
p174
tp175
Rp176
sg39
Nsbag0
(g80
g2
Ntp177
Rp178
(dp179
g7
VTAGS
p180
sg85
Nsg86
g87
sg88
I00
sg6
g0
(g89
g90
Vd9c5db3f6a7844f08f148315efc9801c
p181
tp182
Rp183
sg39
Nsbag0
(g80
g2
Ntp184
Rp185
(dp186
g7
g111
sg85
Nsg86
g87
sg88
I00
sg6
g0
(g89
g90
Ve9a8928db8f145d6a33e0bdf8cad9ed4
p187
tp188
Rp189
sg39
Nsbag0
(g80
g2
Ntp190
Rp191
(dp192
g7
g142
sg85
Nsg86
g87
sg88
I00
sg6
g0
(g89
g90
Vddfbcfe7ac1649f2831b23149d00f655
p193
tp194
Rp195
sg39
Nsbag0
(g80
g2
Ntp196
Rp197
(dp198
g7
VRATIONALE
p199
sg85
Nsg86
g87
sg88
I00
sg6
g0
(g89
g90
V7b09425c9cc84fb2919b4c8a76b53872
p200
tp201
Rp202
sg39
Nsbag0
(g80
g2
Ntp203
Rp204
(dp205
g7
VCOMMENT
p206
sg85
Nsg86
g87
sg88
I00
sg6
g0
(g89
g90
V3c2b0fb9575e4b9fb0b548354bb9fd36
p207
tp208
Rp209
sg39
Nsbasg115
(lp210
g0
(cstrictdoc.backend.sdoc.models.grammar_element
GrammarElementRelationParent
p211
g2
Ntp212
Rp213
(dp214
g39
g154
sVrelation_type
p215
VParent
p216
sVrelation_role
p217
NsVreverse_relation_role
p218
Nsg6
g0
(g89
g90
V720ce3a8558a4e82ae18bc0a08f85f0f
p219
tp220
Rp221
sbag0
(cstrictdoc.backend.sdoc.models.grammar_element
GrammarElementRelationFile
p222
g2
Ntp223
Rp224
(dp225
g39
g154
sg215
VFile
p226
sg217
Nsg218
Nsg6
g0
(g89
g90
V369a2c80e0d54c79ab9062b2171c6ada
p227
tp228
Rp229
sbasg117
g118
(tRp230
g84
g159
sg97
g165
sg173
g171
sg180
g178
sg111
g185
sg142
g191
sg199
g197
sg206
g204
ssg120
(lp231
g84
ag97
ag173
ag180
ag111
ag142
ag199
ag206
asg122
(g142
I5
tp232
sg124
I5
sg6
g0
(g89
g90
V94ebac22655345bbb31e976df7ee9e4a
p233
tp234
Rp235
sg41
Nsg42
NsbasVregistered_elements
p236
c__builtin__
set
p237
((lp238
g73
ag156
ag131
atp239
Rp240
sVelements_by_type
p241
(dp242
g73
g70
sg131
g129
sg156
g154
ssVimport_from_file
p243
NsVis_default
p244
I01
sg41
Nsg42
NsbsVsection_contents
p245
(lp246
g0
(cstrictdoc.backend.sdoc.models.node
SDocCompositeNode
p247
g2
Ntp248
Rp249
(dp250
Vnode_type
p251
VSECTION
p252
sg78
(lp253
g0
(cstrictdoc.backend.sdoc.models.node
SDocNodeField
p254
g2
Ntp255
Rp256
(dp257
Vfield_name
p258
VTITLE
p259
sVparts
p260
(lp261
VPlaceholder
p262
asVmultiline__
p263
g29
sg37
I174
sg38
I193
sg39
g249
sVmultiline
p264
I00
sVorigin
p265
cstrictdoc.backend.sdoc.models.node
SDocNodeFieldOrigin
p266
(VDOCUMENT
p267
tp268
Rp269
sbasg115
(lp270
sg245
(lp271
g0
(cstrictdoc.backend.sdoc.models.node
SDocNode
p272
g2
Ntp273
Rp274
(dp275
g251
VTEXT
p276
sg78
(lp277
g0
(g254
g2
Ntp278
Rp279
(dp280
g258
VSTATEMENT
p281
sg260
(lp282
VThis is a placeholder child requirements document for GHOST memory recording.\u000a\u000aPlanned scope:\u000a- MemoryManager\u000a- MemoryRecord\u000a- .ragmem stable body\u000a- .ragmeta.json editable metadata mirror\u000a- memory_index.sqlite3\u000a- tags\u000a- keywords\u000a- active project snapshots\u000a\u000aDetailed atomic requirements shall be added later after human approval.\u000a
p283
asg263
V>>>\u000a
p284
sg37
I201
sg38
I549
sg39
g274
sg264
I01
sg265
g269
sbasg115
(lp285
sg37
I194
sg38
I549
sg39
g249
sVis_composite
p286
I00
sg245
(lp287
sVhas_meta
p288
I00
sVfields_as_parsed
p289
g277
sVordered_fields_lookup
p290
g118
(tRp291
g281
(lp292
g279
assVng_document_reference
p293
g0
(cstrictdoc.backend.sdoc.document_reference
DocumentReference
p294
g2
Ntp295
Rp296
(dp297
V_document
p298
g4
sbsVng_including_document_reference
p299
g0
(g294
g2
Ntp300
Rp301
(dp302
g298
Nsbsg41
I13
sVng_line_end
p303
I29
sg42
I1
sVng_col_end
p304
I1
sVng_byte_start
p305
I194
sVng_byte_end
p306
I549
sVcontext
p307
g0
(cstrictdoc.backend.sdoc.models.node
SDocNodeContext
p308
g2
Ntp309
Rp310
(dp311
Vtitle_number_string
p312
g29
sVng_level
p313
I2
sbsVreserved_mid
p314
g0
(g89
g90
V0de60adf232045668b3899b2d595bfbf
p315
tp316
Rp317
sVmid_permanent
p318
I00
sVng_resolved_custom_level
p319
VNone
p320
sVcustom_level
p321
NsVng_has_requirements
p322
I00
sVautogen
p323
I00
sbasVnode_type_close
p324
VSECTION
p325
sg37
I162
sg38
I563
sg39
g4
sg286
I01
sg288
I00
sg289
g253
sg290
g118
(tRp326
g259
(lp327
g256
assg293
g296
sg299
g301
sg41
I10
sg303
I31
sg42
I1
sg304
I1
sg305
I162
sg306
I563
sg307
g0
(g308
g2
Ntp328
Rp329
(dp330
g312
V1
p331
sg313
I1
sbsg314
g0
(g89
g90
Vb917d2ff32aa48a681fe95d80908cc1c
p332
tp333
Rp334
sg318
I00
sg319
Nsg321
Nsg322
I00
sg323
I00
sbasg37
I0
sg38
I563
sV_tx_filename
p335
V/home/rusbeh_ab/project/RAGstream/doc/01-Requirements/strictdoc/41_memory_recording.sdoc
p336
sV_tx_metamodel
p337
NsV_tx_model_params
p338
NsV_tx_parser
p339
NsVreserved_title
p340
g8
sVis_bundle_document
p341
I00
sVfragments_from_files
p342
(lp343
sg322
I00
sVmeta
p344
Nsg314
g0
(g89
g90
Ve7a89127094046838c7d52ab62ac94d3
p345
tp346
Rp347
sg318
I00
sVincluded_documents
p348
(lp349
sg307
g0
(g308
g2
Ntp350
Rp351
(dp352
g312
Nsg313
I0
sbsg299
g301
sVng_including_document_from_file
p353
NsVsearch_index
p354
g0
(cstrictdoc.backend.sdoc.models.document
SDocDocumentSearchIndex
p355
g2
Ntp356
Rp357
(dp358
Vdocument_index
p359
ccollections
defaultdict
p360
(g237
tp361
Rp362
Vplaceholder
p363
g237
((lp364
V0de60adf232045668b3899b2d595bfbf
p365
aVb917d2ff32aa48a681fe95d80908cc1c
p366
atp367
Rp368
sVp
p369
g237
((lp370
g317
ag334
atp371
Rp372
sVpl
p373
g237
((lp374
g317
ag334
atp375
Rp376
sVlaceholder
p377
g237
((lp378
g317
ag334
atp379
Rp380
sVpla
p381
g237
((lp382
g317
ag334
atp383
Rp384
sVaceholder
p385
g237
((lp386
g317
ag334
atp387
Rp388
sVplac
p389
g237
((lp390
g317
ag334
atp391
Rp392
sVceholder
p393
g237
((lp394
g317
ag334
atp395
Rp396
sVplace
p397
g237
((lp398
g317
ag334
atp399
Rp400
sVeholder
p401
g237
((lp402
g317
ag334
atp403
Rp404
sVplaceh
p405
g237
((lp406
g317
ag334
atp407
Rp408
sVholder
p409
g237
((lp410
g317
ag334
atp411
Rp412
sVplaceho
p413
g237
((lp414
g317
ag334
atp415
Rp416
sVolder
p417
g237
((lp418
g317
ag334
atp419
Rp420
sVplacehol
p421
g237
((lp422
g317
ag334
atp423
Rp424
sVlder
p425
g237
((lp426
g317
ag334
atp427
Rp428
sVplacehold
p429
g237
((lp430
g317
ag334
atp431
Rp432
sVder
p433
g237
((lp434
g317
ag334
atp435
Rp436
sVplaceholde
p437
g237
((lp438
g317
ag334
atp439
Rp440
sVer
p441
g237
((lp442
g317
ag334
atp443
Rp444
sVr
p445
g237
((lp446
g317
ag334
atp447
Rp448
sVrequirements
p449
g237
((lp450
V0de60adf232045668b3899b2d595bfbf
p451
atp452
Rp453
sVre
p454
g237
((lp455
g317
atp456
Rp457
sVequirements
p458
g237
((lp459
g317
atp460
Rp461
sVreq
p462
g237
((lp463
g317
atp464
Rp465
sVquirements
p466
g237
((lp467
g317
atp468
Rp469
sVrequ
p470
g237
((lp471
g317
atp472
Rp473
sVuirements
p474
g237
((lp475
g317
atp476
Rp477
sVrequi
p478
g237
((lp479
g317
atp480
Rp481
sVirements
p482
g237
((lp483
g317
atp484
Rp485
sVrequir
p486
g237
((lp487
g317
atp488
Rp489
sVrements
p490
g237
((lp491
g317
atp492
Rp493
sVrequire
p494
g237
((lp495
g317
atp496
Rp497
sVements
p498
g237
((lp499
g317
atp500
Rp501
sVrequirem
p502
g237
((lp503
g317
atp504
Rp505
sVments
p506
g237
((lp507
g317
atp508
Rp509
sVrequireme
p510
g237
((lp511
g317
atp512
Rp513
sVents
p514
g237
((lp515
g317
atp516
Rp517
sVrequiremen
p518
g237
((lp519
g317
atp520
Rp521
sVnts
p522
g237
((lp523
g317
atp524
Rp525
sVrequirement
p526
g237
((lp527
g317
atp528
Rp529
sVts
p530
g237
((lp531
g317
atp532
Rp533
sVs
p534
g237
((lp535
g317
atp536
Rp537
sVdocument
p538
g237
((lp539
V0de60adf232045668b3899b2d595bfbf
p540
atp541
Rp542
sVd
p543
g237
((lp544
g317
atp545
Rp546
sVdo
p547
g237
((lp548
g317
atp549
Rp550
sVocument
p551
g237
((lp552
g317
atp553
Rp554
sVdoc
p555
g237
((lp556
g317
atp557
Rp558
sVcument
p559
g237
((lp560
g317
atp561
Rp562
sVdocu
p563
g237
((lp564
g317
atp565
Rp566
sVument
p567
g237
((lp568
g317
atp569
Rp570
sVdocum
p571
g237
((lp572
g317
atp573
Rp574
sVment
p575
g237
((lp576
g317
atp577
Rp578
sVdocume
p579
g237
((lp580
g317
atp581
Rp582
sVent
p583
g237
((lp584
g317
atp585
Rp586
sVdocumen
p587
g237
((lp588
g317
atp589
Rp590
sVnt
p591
g237
((lp592
g317
atp593
Rp594
sVt
p595
g237
((lp596
g317
atp597
Rp598
sVkeywords
p599
g237
((lp600
V0de60adf232045668b3899b2d595bfbf
p601
atp602
Rp603
sVk
p604
g237
((lp605
g317
atp606
Rp607
sVke
p608
g237
((lp609
g317
atp610
Rp611
sVeywords
p612
g237
((lp613
g317
atp614
Rp615
sVkey
p616
g237
((lp617
g317
atp618
Rp619
sVywords
p620
g237
((lp621
g317
atp622
Rp623
sVkeyw
p624
g237
((lp625
g317
atp626
Rp627
sVwords
p628
g237
((lp629
g317
atp630
Rp631
sVkeywo
p632
g237
((lp633
g317
atp634
Rp635
sVords
p636
g237
((lp637
g317
atp638
Rp639
sVkeywor
p640
g237
((lp641
g317
atp642
Rp643
sVrds
p644
g237
((lp645
g317
atp646
Rp647
sVkeyword
p648
g237
((lp649
g317
atp650
Rp651
sVds
p652
g237
((lp653
g317
atp654
Rp655
sVbody
p656
g237
((lp657
V0de60adf232045668b3899b2d595bfbf
p658
atp659
Rp660
sVb
p661
g237
((lp662
g317
atp663
Rp664
sVbo
p665
g237
((lp666
g317
atp667
Rp668
sVody
p669
g237
((lp670
g317
atp671
Rp672
sVbod
p673
g237
((lp674
g317
atp675
Rp676
sVdy
p677
g237
((lp678
g317
atp679
Rp680
sVy
p681
g237
((lp682
g317
atp683
Rp684
sVtags
p685
g237
((lp686
V0de60adf232045668b3899b2d595bfbf
p687
atp688
Rp689
sVta
p690
g237
((lp691
g317
atp692
Rp693
sVags
p694
g237
((lp695
g317
atp696
Rp697
sVtag
p698
g237
((lp699
g317
atp700
Rp701
sVgs
p702
g237
((lp703
g317
atp704
Rp705
sVghost
p706
g237
((lp707
V0de60adf232045668b3899b2d595bfbf
p708
atp709
Rp710
sVg
p711
g237
((lp712
g317
atp713
Rp714
sVgh
p715
g237
((lp716
g317
atp717
Rp718
sVhost
p719
g237
((lp720
g317
atp721
Rp722
sVgho
p723
g237
((lp724
g317
atp725
Rp726
sVost
p727
g237
((lp728
g317
atp729
Rp730
sVghos
p731
g237
((lp732
g317
atp733
Rp734
sVst
p735
g237
((lp736
g317
atp737
Rp738
sVchild
p739
g237
((lp740
V0de60adf232045668b3899b2d595bfbf
p741
atp742
Rp743
sVc
p744
g237
((lp745
g317
atp746
Rp747
sVch
p748
g237
((lp749
g317
atp750
Rp751
sVhild
p752
g237
((lp753
g317
atp754
Rp755
sVchi
p756
g237
((lp757
g317
atp758
Rp759
sVild
p760
g237
((lp761
g317
atp762
Rp763
sVchil
p764
g237
((lp765
g317
atp766
Rp767
sVld
p768
g237
((lp769
g317
atp770
Rp771
sVdetailed
p772
g237
((lp773
V0de60adf232045668b3899b2d595bfbf
p774
atp775
Rp776
sVde
p777
g237
((lp778
g317
atp779
Rp780
sVetailed
p781
g237
((lp782
g317
atp783
Rp784
sVdet
p785
g237
((lp786
g317
atp787
Rp788
sVtailed
p789
g237
((lp790
g317
atp791
Rp792
sVdeta
p793
g237
((lp794
g317
atp795
Rp796
sVailed
p797
g237
((lp798
g317
atp799
Rp800
sVdetai
p801
g237
((lp802
g317
atp803
Rp804
sViled
p805
g237
((lp806
g317
atp807
Rp808
sVdetail
p809
g237
((lp810
g317
atp811
Rp812
sVled
p813
g237
((lp814
g317
atp815
Rp816
sVdetaile
p817
g237
((lp818
g317
atp819
Rp820
sVed
p821
g237
((lp822
g317
atp823
Rp824
sVplanned
p825
g237
((lp826
V0de60adf232045668b3899b2d595bfbf
p827
atp828
Rp829
sVlanned
p830
g237
((lp831
g317
atp832
Rp833
sVanned
p834
g237
((lp835
g317
atp836
Rp837
sVplan
p838
g237
((lp839
g317
atp840
Rp841
sVnned
p842
g237
((lp843
g317
atp844
Rp845
sVplann
p846
g237
((lp847
g317
atp848
Rp849
sVned
p850
g237
((lp851
g317
atp852
Rp853
sVplanne
p854
g237
((lp855
g317
atp856
Rp857
sVfor
p858
g237
((lp859
V0de60adf232045668b3899b2d595bfbf
p860
atp861
Rp862
sVf
p863
g237
((lp864
g317
atp865
Rp866
sVfo
p867
g237
((lp868
g317
atp869
Rp870
sVor
p871
g237
((lp872
g317
atp873
Rp874
sVragmem
p875
g237
((lp876
V0de60adf232045668b3899b2d595bfbf
p877
atp878
Rp879
sVra
p880
g237
((lp881
g317
atp882
Rp883
sVagmem
p884
g237
((lp885
g317
atp886
Rp887
sVrag
p888
g237
((lp889
g317
atp890
Rp891
sVgmem
p892
g237
((lp893
g317
atp894
Rp895
sVragm
p896
g237
((lp897
g317
atp898
Rp899
sVmem
p900
g237
((lp901
g317
atp902
Rp903
sVragme
p904
g237
((lp905
g317
atp906
Rp907
sVem
p908
g237
((lp909
g317
atp910
Rp911
sVm
p912
g237
((lp913
g317
atp914
Rp915
sVproject
p916
g237
((lp917
V0de60adf232045668b3899b2d595bfbf
p918
atp919
Rp920
sVpr
p921
g237
((lp922
g317
atp923
Rp924
sVroject
p925
g237
((lp926
g317
atp927
Rp928
sVpro
p929
g237
((lp930
g317
atp931
Rp932
sVoject
p933
g237
((lp934
g317
atp935
Rp936
sVproj
p937
g237
((lp938
g317
atp939
Rp940
sVject
p941
g237
((lp942
g317
atp943
Rp944
sVproje
p945
g237
((lp946
g317
atp947
Rp948
sVect
p949
g237
((lp950
g317
atp951
Rp952
sVprojec
p953
g237
((lp954
g317
atp955
Rp956
sVct
p957
g237
((lp958
g317
atp959
Rp960
sVragmeta.json
p961
g237
((lp962
V0de60adf232045668b3899b2d595bfbf
p963
atp964
Rp965
sVagmeta.json
p966
g237
((lp967
g317
atp968
Rp969
sVgmeta.json
p970
g237
((lp971
g317
atp972
Rp973
sVmeta.json
p974
g237
((lp975
g317
atp976
Rp977
sVeta.json
p978
g237
((lp979
g317
atp980
Rp981
sVragmet
p982
g237
((lp983
g317
atp984
Rp985
sVta.json
p986
g237
((lp987
g317
atp988
Rp989
sVragmeta
p990
g237
((lp991
g317
atp992
Rp993
sVa.json
p994
g237
((lp995
g317
atp996
Rp997
sVragmeta.
p998
g237
((lp999
g317
atp1000
Rp1001
sV.json
p1002
g237
((lp1003
g317
atp1004
Rp1005
sVragmeta.j
p1006
g237
((lp1007
g317
atp1008
Rp1009
sVjson
p1010
g237
((lp1011
g317
atp1012
Rp1013
sVragmeta.js
p1014
g237
((lp1015
g317
atp1016
Rp1017
sVson
p1018
g237
((lp1019
g317
atp1020
Rp1021
sVragmeta.jso
p1022
g237
((lp1023
g317
atp1024
Rp1025
sVon
p1026
g237
((lp1027
g317
atp1028
Rp1029
sVn
p1030
g237
((lp1031
g317
atp1032
Rp1033
sVbe
p1034
g237
((lp1035
V0de60adf232045668b3899b2d595bfbf
p1036
atp1037
Rp1038
sVe
p1039
g237
((lp1040
g317
atp1041
Rp1042
sVscope
p1043
g237
((lp1044
V0de60adf232045668b3899b2d595bfbf
p1045
atp1046
Rp1047
sVsc
p1048
g237
((lp1049
g317
atp1050
Rp1051
sVcope
p1052
g237
((lp1053
g317
atp1054
Rp1055
sVsco
p1056
g237
((lp1057
g317
atp1058
Rp1059
sVope
p1060
g237
((lp1061
g317
atp1062
Rp1063
sVscop
p1064
g237
((lp1065
g317
atp1066
Rp1067
sVpe
p1068
g237
((lp1069
g317
atp1070
Rp1071
sVmemoryrecord
p1072
g237
((lp1073
V0de60adf232045668b3899b2d595bfbf
p1074
atp1075
Rp1076
sVme
p1077
g237
((lp1078
g317
atp1079
Rp1080
sVemoryrecord
p1081
g237
((lp1082
g317
atp1083
Rp1084
sVmoryrecord
p1085
g237
((lp1086
g317
atp1087
Rp1088
sVmemo
p1089
g237
((lp1090
g317
atp1091
Rp1092
sVoryrecord
p1093
g237
((lp1094
g317
atp1095
Rp1096
sVmemor
p1097
g237
((lp1098
g317
atp1099
Rp1100
sVryrecord
p1101
g237
((lp1102
g317
atp1103
Rp1104
sVmemory
p1105
g237
((lp1106
g317
atp1107
Rp1108
sVyrecord
p1109
g237
((lp1110
g317
atp1111
Rp1112
sVmemoryr
p1113
g237
((lp1114
g317
atp1115
Rp1116
sVrecord
p1117
g237
((lp1118
g317
atp1119
Rp1120
sVmemoryre
p1121
g237
((lp1122
g317
atp1123
Rp1124
sVecord
p1125
g237
((lp1126
g317
atp1127
Rp1128
sVmemoryrec
p1129
g237
((lp1130
g317
atp1131
Rp1132
sVcord
p1133
g237
((lp1134
g317
atp1135
Rp1136
sVmemoryreco
p1137
g237
((lp1138
g317
atp1139
Rp1140
sVord
p1141
g237
((lp1142
g317
atp1143
Rp1144
sVmemoryrecor
p1145
g237
((lp1146
g317
atp1147
Rp1148
sVrd
p1149
g237
((lp1150
g317
atp1151
Rp1152
sVsnapshots
p1153
g237
((lp1154
V0de60adf232045668b3899b2d595bfbf
p1155
atp1156
Rp1157
sVsn
p1158
g237
((lp1159
g317
atp1160
Rp1161
sVnapshots
p1162
g237
((lp1163
g317
atp1164
Rp1165
sVsna
p1166
g237
((lp1167
g317
atp1168
Rp1169
sVapshots
p1170
g237
((lp1171
g317
atp1172
Rp1173
sVsnap
p1174
g237
((lp1175
g317
atp1176
Rp1177
sVpshots
p1178
g237
((lp1179
g317
atp1180
Rp1181
sVsnaps
p1182
g237
((lp1183
g317
atp1184
Rp1185
sVshots
p1186
g237
((lp1187
g317
atp1188
Rp1189
sVsnapsh
p1190
g237
((lp1191
g317
atp1192
Rp1193
sVhots
p1194
g237
((lp1195
g317
atp1196
Rp1197
sVsnapsho
p1198
g237
((lp1199
g317
atp1200
Rp1201
sVots
p1202
g237
((lp1203
g317
atp1204
Rp1205
sVsnapshot
p1206
g237
((lp1207
g317
atp1208
Rp1209
sVactive
p1210
g237
((lp1211
V0de60adf232045668b3899b2d595bfbf
p1212
atp1213
Rp1214
sVa
p1215
g237
((lp1216
g317
atp1217
Rp1218
sVac
p1219
g237
((lp1220
g317
atp1221
Rp1222
sVctive
p1223
g237
((lp1224
g317
atp1225
Rp1226
sVact
p1227
g237
((lp1228
g317
atp1229
Rp1230
sVtive
p1231
g237
((lp1232
g317
atp1233
Rp1234
sVacti
p1235
g237
((lp1236
g317
atp1237
Rp1238
sVive
p1239
g237
((lp1240
g317
atp1241
Rp1242
sVactiv
p1243
g237
((lp1244
g317
atp1245
Rp1246
sVve
p1247
g237
((lp1248
g317
atp1249
Rp1250
sVmirror
p1251
g237
((lp1252
V0de60adf232045668b3899b2d595bfbf
p1253
atp1254
Rp1255
sVmi
p1256
g237
((lp1257
g317
atp1258
Rp1259
sVirror
p1260
g237
((lp1261
g317
atp1262
Rp1263
sVmir
p1264
g237
((lp1265
g317
atp1266
Rp1267
sVrror
p1268
g237
((lp1269
g317
atp1270
Rp1271
sVmirr
p1272
g237
((lp1273
g317
atp1274
Rp1275
sVror
p1276
g237
((lp1277
g317
atp1278
Rp1279
sVmirro
p1280
g237
((lp1281
g317
atp1282
Rp1283
sVshall
p1284
g237
((lp1285
V0de60adf232045668b3899b2d595bfbf
p1286
atp1287
Rp1288
sVsh
p1289
g237
((lp1290
g317
atp1291
Rp1292
sVhall
p1293
g237
((lp1294
g317
atp1295
Rp1296
sVsha
p1297
g237
((lp1298
g317
atp1299
Rp1300
sVall
p1301
g237
((lp1302
g317
atp1303
Rp1304
sVshal
p1305
g237
((lp1306
g317
atp1307
Rp1308
sVll
p1309
g237
((lp1310
g317
atp1311
Rp1312
sVl
p1313
g237
((lp1314
g317
atp1315
Rp1316
sVmemory_index.sqlite3
p1317
g237
((lp1318
V0de60adf232045668b3899b2d595bfbf
p1319
atp1320
Rp1321
sVemory_index.sqlite3
p1322
g237
((lp1323
g317
atp1324
Rp1325
sVmory_index.sqlite3
p1326
g237
((lp1327
g317
atp1328
Rp1329
sVory_index.sqlite3
p1330
g237
((lp1331
g317
atp1332
Rp1333
sVry_index.sqlite3
p1334
g237
((lp1335
g317
atp1336
Rp1337
sVy_index.sqlite3
p1338
g237
((lp1339
g317
atp1340
Rp1341
sVmemory_
p1342
g237
((lp1343
g317
atp1344
Rp1345
sV_index.sqlite3
p1346
g237
((lp1347
g317
atp1348
Rp1349
sVmemory_i
p1350
g237
((lp1351
g317
atp1352
Rp1353
sVindex.sqlite3
p1354
g237
((lp1355
g317
atp1356
Rp1357
sVmemory_in
p1358
g237
((lp1359
g317
atp1360
Rp1361
sVndex.sqlite3
p1362
g237
((lp1363
g317
atp1364
Rp1365
sVmemory_ind
p1366
g237
((lp1367
g317
atp1368
Rp1369
sVdex.sqlite3
p1370
g237
((lp1371
g317
atp1372
Rp1373
sVmemory_inde
p1374
g237
((lp1375
g317
atp1376
Rp1377
sVex.sqlite3
p1378
g237
((lp1379
g317
atp1380
Rp1381
sVmemory_index
p1382
g237
((lp1383
g317
atp1384
Rp1385
sVx.sqlite3
p1386
g237
((lp1387
g317
atp1388
Rp1389
sVmemory_index.
p1390
g237
((lp1391
g317
atp1392
Rp1393
sV.sqlite3
p1394
g237
((lp1395
g317
atp1396
Rp1397
sVmemory_index.s
p1398
g237
((lp1399
g317
atp1400
Rp1401
sVsqlite3
p1402
g237
((lp1403
g317
atp1404
Rp1405
sVmemory_index.sq
p1406
g237
((lp1407
g317
atp1408
Rp1409
sVqlite3
p1410
g237
((lp1411
g317
atp1412
Rp1413
sVmemory_index.sql
p1414
g237
((lp1415
g317
atp1416
Rp1417
sVlite3
p1418
g237
((lp1419
g317
atp1420
Rp1421
sVmemory_index.sqli
p1422
g237
((lp1423
g317
atp1424
Rp1425
sVite3
p1426
g237
((lp1427
g317
atp1428
Rp1429
sVmemory_index.sqlit
p1430
g237
((lp1431
g317
atp1432
Rp1433
sVte3
p1434
g237
((lp1435
g317
atp1436
Rp1437
sVmemory_index.sqlite
p1438
g237
((lp1439
g317
atp1440
Rp1441
sVe3
p1442
g237
((lp1443
g317
atp1444
Rp1445
sV3
p1446
g237
((lp1447
g317
atp1448
Rp1449
sVeditable
p1450
g237
((lp1451
V0de60adf232045668b3899b2d595bfbf
p1452
atp1453
Rp1454
sVditable
p1455
g237
((lp1456
g317
atp1457
Rp1458
sVedi
p1459
g237
((lp1460
g317
atp1461
Rp1462
sVitable
p1463
g237
((lp1464
g317
atp1465
Rp1466
sVedit
p1467
g237
((lp1468
g317
atp1469
Rp1470
sVtable
p1471
g237
((lp1472
g317
atp1473
Rp1474
sVedita
p1475
g237
((lp1476
g317
atp1477
Rp1478
sVable
p1479
g237
((lp1480
g317
atp1481
Rp1482
sVeditab
p1483
g237
((lp1484
g317
atp1485
Rp1486
sVble
p1487
g237
((lp1488
g317
atp1489
Rp1490
sVeditabl
p1491
g237
((lp1492
g317
atp1493
Rp1494
sVle
p1495
g237
((lp1496
g317
atp1497
Rp1498
sVatomic
p1499
g237
((lp1500
V0de60adf232045668b3899b2d595bfbf
p1501
atp1502
Rp1503
sVat
p1504
g237
((lp1505
g317
atp1506
Rp1507
sVtomic
p1508
g237
((lp1509
g317
atp1510
Rp1511
sVato
p1512
g237
((lp1513
g317
atp1514
Rp1515
sVomic
p1516
g237
((lp1517
g317
atp1518
Rp1519
sVatom
p1520
g237
((lp1521
g317
atp1522
Rp1523
sVmic
p1524
g237
((lp1525
g317
atp1526
Rp1527
sVatomi
p1528
g237
((lp1529
g317
atp1530
Rp1531
sVic
p1532
g237
((lp1533
g317
atp1534
Rp1535
sVhuman
p1536
g237
((lp1537
V0de60adf232045668b3899b2d595bfbf
p1538
atp1539
Rp1540
sVh
p1541
g237
((lp1542
g317
atp1543
Rp1544
sVhu
p1545
g237
((lp1546
g317
atp1547
Rp1548
sVuman
p1549
g237
((lp1550
g317
atp1551
Rp1552
sVhum
p1553
g237
((lp1554
g317
atp1555
Rp1556
sVman
p1557
g237
((lp1558
g317
atp1559
Rp1560
sVhuma
p1561
g237
((lp1562
g317
atp1563
Rp1564
sVan
p1565
g237
((lp1566
g317
atp1567
Rp1568
sVstable
p1569
g237
((lp1570
V0de60adf232045668b3899b2d595bfbf
p1571
atp1572
Rp1573
sVsta
p1574
g237
((lp1575
g317
atp1576
Rp1577
sVstab
p1578
g237
((lp1579
g317
atp1580
Rp1581
sVstabl
p1582
g237
((lp1583
g317
atp1584
Rp1585
sVafter
p1586
g237
((lp1587
V0de60adf232045668b3899b2d595bfbf
p1588
atp1589
Rp1590
sVaf
p1591
g237
((lp1592
g317
atp1593
Rp1594
sVfter
p1595
g237
((lp1596
g317
atp1597
Rp1598
sVaft
p1599
g237
((lp1600
g317
atp1601
Rp1602
sVter
p1603
g237
((lp1604
g317
atp1605
Rp1606
sVafte
p1607
g237
((lp1608
g317
atp1609
Rp1610
sVrecording
p1611
g237
((lp1612
V0de60adf232045668b3899b2d595bfbf
p1613
atp1614
Rp1615
sVecording
p1616
g237
((lp1617
g317
atp1618
Rp1619
sVrec
p1620
g237
((lp1621
g317
atp1622
Rp1623
sVcording
p1624
g237
((lp1625
g317
atp1626
Rp1627
sVreco
p1628
g237
((lp1629
g317
atp1630
Rp1631
sVording
p1632
g237
((lp1633
g317
atp1634
Rp1635
sVrecor
p1636
g237
((lp1637
g317
atp1638
Rp1639
sVrding
p1640
g237
((lp1641
g317
atp1642
Rp1643
sVding
p1644
g237
((lp1645
g317
atp1646
Rp1647
sVrecordi
p1648
g237
((lp1649
g317
atp1650
Rp1651
sVing
p1652
g237
((lp1653
g317
atp1654
Rp1655
sVrecordin
p1656
g237
((lp1657
g317
atp1658
Rp1659
sVng
p1660
g237
((lp1661
g317
atp1662
Rp1663
sVapproval
p1664
g237
((lp1665
V0de60adf232045668b3899b2d595bfbf
p1666
atp1667
Rp1668
sVap
p1669
g237
((lp1670
g317
atp1671
Rp1672
sVpproval
p1673
g237
((lp1674
g317
atp1675
Rp1676
sVapp
p1677
g237
((lp1678
g317
atp1679
Rp1680
sVproval
p1681
g237
((lp1682
g317
atp1683
Rp1684
sVappr
p1685
g237
((lp1686
g317
atp1687
Rp1688
sVroval
p1689
g237
((lp1690
g317
atp1691
Rp1692
sVappro
p1693
g237
((lp1694
g317
atp1695
Rp1696
sVoval
p1697
g237
((lp1698
g317
atp1699
Rp1700
sVapprov
p1701
g237
((lp1702
g317
atp1703
Rp1704
sVval
p1705
g237
((lp1706
g317
atp1707
Rp1708
sVapprova
p1709
g237
((lp1710
g317
atp1711
Rp1712
sVal
p1713
g237
((lp1714
g317
atp1715
Rp1716
sVlater
p1717
g237
((lp1718
V0de60adf232045668b3899b2d595bfbf
p1719
atp1720
Rp1721
sVla
p1722
g237
((lp1723
g317
atp1724
Rp1725
sVater
p1726
g237
((lp1727
g317
atp1728
Rp1729
sVlat
p1730
g237
((lp1731
g317
atp1732
Rp1733
sVlate
p1734
g237
((lp1735
g317
atp1736
Rp1737
sVthis
p1738
g237
((lp1739
V0de60adf232045668b3899b2d595bfbf
p1740
atp1741
Rp1742
sVth
p1743
g237
((lp1744
g317
atp1745
Rp1746
sVhis
p1747
g237
((lp1748
g317
atp1749
Rp1750
sVthi
p1751
g237
((lp1752
g317
atp1753
Rp1754
sVis
p1755
g237
((lp1756
g317
atp1757
Rp1758
sVemory
p1759
g237
((lp1760
g317
atp1761
Rp1762
sVmory
p1763
g237
((lp1764
g317
atp1765
Rp1766
sVory
p1767
g237
((lp1768
g317
atp1769
Rp1770
sVry
p1771
g237
((lp1772
g317
atp1773
Rp1774
sVadded
p1775
g237
((lp1776
V0de60adf232045668b3899b2d595bfbf
p1777
atp1778
Rp1779
sVad
p1780
g237
((lp1781
g317
atp1782
Rp1783
sVdded
p1784
g237
((lp1785
g317
atp1786
Rp1787
sVadd
p1788
g237
((lp1789
g317
atp1790
Rp1791
sVded
p1792
g237
((lp1793
g317
atp1794
Rp1795
sVadde
p1796
g237
((lp1797
g317
atp1798
Rp1799
sVmemorymanager
p1800
g237
((lp1801
V0de60adf232045668b3899b2d595bfbf
p1802
atp1803
Rp1804
sVemorymanager
p1805
g237
((lp1806
g317
atp1807
Rp1808
sVmorymanager
p1809
g237
((lp1810
g317
atp1811
Rp1812
sVorymanager
p1813
g237
((lp1814
g317
atp1815
Rp1816
sVrymanager
p1817
g237
((lp1818
g317
atp1819
Rp1820
sVymanager
p1821
g237
((lp1822
g317
atp1823
Rp1824
sVmemorym
p1825
g237
((lp1826
g317
atp1827
Rp1828
sVmanager
p1829
g237
((lp1830
g317
atp1831
Rp1832
sVmemoryma
p1833
g237
((lp1834
g317
atp1835
Rp1836
sVanager
p1837
g237
((lp1838
g317
atp1839
Rp1840
sVmemoryman
p1841
g237
((lp1842
g317
atp1843
Rp1844
sVnager
p1845
g237
((lp1846
g317
atp1847
Rp1848
sVmemorymana
p1849
g237
((lp1850
g317
atp1851
Rp1852
sVager
p1853
g237
((lp1854
g317
atp1855
Rp1856
sVmemorymanag
p1857
g237
((lp1858
g317
atp1859
Rp1860
sVger
p1861
g237
((lp1862
g317
atp1863
Rp1864
sVmemorymanage
p1865
g237
((lp1866
g317
atp1867
Rp1868
sVmetadata
p1869
g237
((lp1870
V0de60adf232045668b3899b2d595bfbf
p1871
atp1872
Rp1873
sVetadata
p1874
g237
((lp1875
g317
atp1876
Rp1877
sVmet
p1878
g237
((lp1879
g317
atp1880
Rp1881
sVtadata
p1882
g237
((lp1883
g317
atp1884
Rp1885
sVmeta
p1886
g237
((lp1887
g317
atp1888
Rp1889
sVadata
p1890
g237
((lp1891
g317
atp1892
Rp1893
sVmetad
p1894
g237
((lp1895
g317
atp1896
Rp1897
sVdata
p1898
g237
((lp1899
g317
atp1900
Rp1901
sVmetada
p1902
g237
((lp1903
g317
atp1904
Rp1905
sVata
p1906
g237
((lp1907
g317
atp1908
Rp1909
sVmetadat
p1910
g237
((lp1911
g317
atp1912
Rp1913
sVi
p1914
g237
((lp1915
g317
atp1916
Rp1917
ssVmap_nodes_by_mid
p1918
(dp1919
Vb917d2ff32aa48a681fe95d80908cc1c
p1920
(dp1921
VMID
p1922
Vb917d2ff32aa48a681fe95d80908cc1c
p1923
sg259
g262
ssV0de60adf232045668b3899b2d595bfbf
p1924
(dp1925
g1922
V0de60adf232045668b3899b2d595bfbf
p1926
sg281
g283
sssbsVng_source_content
p1927
Nsg323
I00
sV_tx_attrs
p1928
NsV_tx_peg_rule
p1929
Nsb.