ccopy_reg
_reconstructor
p0
(cstrictdoc.backend.sdoc.models.document
SDocDocument
p1
c__builtin__
object
p2
Ntp3
Rp4
(dp5
Vmid
p6
NsVtitle
p7
VMemory Ingestion Requirements
p8
sVconfig
p9
g0
(cstrictdoc.backend.sdoc.models.document_config
DocumentConfig
p10
g2
Ntp11
Rp12
(dp13
Vuid
p14
VGHOST-REQ-MEMORY-INGESTION
p15
sVversion
p16
V0.1-dummy
p17
sVdate
p18
NsVclassification
p19
NsVrequirement_prefix
p20
NsVroot
p21
NsVenable_mid
p22
NsVrelation_field
p23
NsVmarkup
p24
VText
p25
sVauto_levels
p26
I01
sVlayout
p27
NsVview_style_tag
p28
V
p29
sVrequirement_style
p30
NsVnode_in_toc_tag
p31
VNODE_IN_TOC
p32
sVrequirement_in_toc
p33
VTrue
p34
sVdefault_view
p35
NsVcustom_metadata
p36
NsV_tx_position
p37
I48
sV_tx_position_end
p38
I161
sVparent
p39
g4
sVng_auto_levels_specified
p40
I01
sVng_line_start
p41
I3
sVng_col_start
p42
I1
sbsVview
p43
g0
(cstrictdoc.backend.sdoc.models.document_view
DocumentView
p44
g2
Ntp45
Rp46
(dp47
g39
g4
sVviews
p48
(lp49
g0
(cstrictdoc.backend.sdoc.models.document_view
DefaultViewElement
p50
g2
Ntp51
Rp52
(dp53
g39
g46
sVview_id
p54
VNOT_RELEVANT
p55
sVtags
p56
(lp57
sVhidden_tags
p58
(lp59
sVname
p60
Nsbasg41
I28
sg42
I797
sbsVgrammar
p61
g0
(cstrictdoc.backend.sdoc.models.document_grammar
DocumentGrammar
p62
g2
Ntp63
Rp64
(dp65
g39
g4
sVelements
p66
(lp67
g0
(cstrictdoc.backend.sdoc.models.grammar_element
GrammarElement
p68
g2
Ntp69
Rp70
(dp71
g39
g64
sVtag
p72
VSECTION
p73
sVproperty_is_composite
p74
I01
sVproperty_prefix
p75
NsVproperty_view_style
p76
NsVproperty_view_style_lower
p77
NsVfields
p78
(lp79
g0
(cstrictdoc.backend.sdoc.models.grammar_element
GrammarElementFieldString
p80
g2
Ntp81
Rp82
(dp83
g7
VUID
p84
sVhuman_title
p85
NsVgef_type
p86
VString
p87
sVrequired
p88
I00
sg6
g0
(cstrictdoc.helpers.mid
MID
p89
c__builtin__
unicode
p90
Vb8d599b8e2dc44f29022cd73c267d31b
p91
tp92
Rp93
sg39
Nsbag0
(g80
g2
Ntp94
Rp95
(dp96
g7
VLEVEL
p97
sg85
Nsg86
g87
sg88
I00
sg6
g0
(g89
g90
Vfa0cd4c3bcc0404f9c9363b93b66adc2
p98
tp99
Rp100
sg39
Nsbag0
(g80
g2
Ntp101
Rp102
(dp103
g7
VPREFIX
p104
sg85
Nsg86
g87
sg88
I00
sg6
g0
(g89
g90
Vfacc8580c7ab41b293d061cc595cb880
p105
tp106
Rp107
sg39
Nsbag0
(g80
g2
Ntp108
Rp109
(dp110
g7
VTITLE
p111
sg85
Nsg86
g87
sg88
I01
sg6
g0
(g89
g90
Vf8c7be9ef47b49f8868453b894cae903
p112
tp113
Rp114
sg39
NsbasVrelations
p115
(lp116
sVfields_map
p117
ccollections
OrderedDict
p118
(tRp119
g84
g82
sg97
g95
sg104
g102
sg111
g109
ssVfield_titles
p120
(lp121
g84
ag97
ag104
ag111
asVcontent_field
p122
(g29
I-1
tp123
sV_multiline_field_index
p124
I4
sg6
g0
(g89
g90
V1bd3a10268014e37a725efa63da2a576
p125
tp126
Rp127
sg41
Nsg42
Nsbag0
(g68
g2
Ntp128
Rp129
(dp130
g39
g64
sg72
VTEXT
p131
sg74
Nsg75
Nsg76
Nsg77
Nsg78
(lp132
g0
(g80
g2
Ntp133
Rp134
(dp135
g7
g84
sg85
Nsg86
g87
sg88
I00
sg6
g0
(g89
g90
V6ebb0421d6a14845bfb4babad66af57d
p136
tp137
Rp138
sg39
Nsbag0
(g80
g2
Ntp139
Rp140
(dp141
g7
VSTATEMENT
p142
sg85
Nsg86
g87
sg88
I01
sg6
g0
(g89
g90
V42742c42cd1f431a94befcc9bc4f3645
p143
tp144
Rp145
sg39
Nsbasg115
(lp146
sg117
g118
(tRp147
g84
g134
sg142
g140
ssg120
(lp148
g84
ag142
asg122
(g142
I1
tp149
sg124
I1
sg6
g0
(g89
g90
Vfb31cf74aa9c4d76896a0ff43f3b7ab5
p150
tp151
Rp152
sg41
Nsg42
Nsbag0
(g68
g2
Ntp153
Rp154
(dp155
g39
g64
sg72
VREQUIREMENT
p156
sg74
Nsg75
Nsg76
Nsg77
Nsg78
(lp157
g0
(g80
g2
Ntp158
Rp159
(dp160
g7
g84
sg85
Nsg86
g87
sg88
I00
sg6
g0
(g89
g90
Vec2097673117475e924a3e87abe87610
p161
tp162
Rp163
sg39
Nsbag0
(g80
g2
Ntp164
Rp165
(dp166
g7
g97
sg85
Nsg86
g87
sg88
I00
sg6
g0
(g89
g90
V67f34df8477b4e2e88b509606d4a33d3
p167
tp168
Rp169
sg39
Nsbag0
(g80
g2
Ntp170
Rp171
(dp172
g7
VSTATUS
p173
sg85
Nsg86
g87
sg88
I00
sg6
g0
(g89
g90
Vb9023293d7964352811c88aa0a9eba2f
p174
tp175
Rp176
sg39
Nsbag0
(g80
g2
Ntp177
Rp178
(dp179
g7
VTAGS
p180
sg85
Nsg86
g87
sg88
I00
sg6
g0
(g89
g90
Vf2d61991ea4a4a958f14f00d5bd5da1e
p181
tp182
Rp183
sg39
Nsbag0
(g80
g2
Ntp184
Rp185
(dp186
g7
g111
sg85
Nsg86
g87
sg88
I00
sg6
g0
(g89
g90
V846431e4215f4268b8474fea1f7d99f4
p187
tp188
Rp189
sg39
Nsbag0
(g80
g2
Ntp190
Rp191
(dp192
g7
g142
sg85
Nsg86
g87
sg88
I00
sg6
g0
(g89
g90
V480d1e34ce0749269a51d3137faa2676
p193
tp194
Rp195
sg39
Nsbag0
(g80
g2
Ntp196
Rp197
(dp198
g7
VRATIONALE
p199
sg85
Nsg86
g87
sg88
I00
sg6
g0
(g89
g90
V0e01438e9f1a46dca21c9e2e19abd10d
p200
tp201
Rp202
sg39
Nsbag0
(g80
g2
Ntp203
Rp204
(dp205
g7
VCOMMENT
p206
sg85
Nsg86
g87
sg88
I00
sg6
g0
(g89
g90
V9326c5a833fe42feb86d055748dbd0a4
p207
tp208
Rp209
sg39
Nsbasg115
(lp210
g0
(cstrictdoc.backend.sdoc.models.grammar_element
GrammarElementRelationParent
p211
g2
Ntp212
Rp213
(dp214
g39
g154
sVrelation_type
p215
VParent
p216
sVrelation_role
p217
NsVreverse_relation_role
p218
Nsg6
g0
(g89
g90
Ve7b30b2c25e54b0ab5071d1c466384ba
p219
tp220
Rp221
sbag0
(cstrictdoc.backend.sdoc.models.grammar_element
GrammarElementRelationFile
p222
g2
Ntp223
Rp224
(dp225
g39
g154
sg215
VFile
p226
sg217
Nsg218
Nsg6
g0
(g89
g90
Vd72f4ca0ff744a449494828c3278b592
p227
tp228
Rp229
sbasg117
g118
(tRp230
g84
g159
sg97
g165
sg173
g171
sg180
g178
sg111
g185
sg142
g191
sg199
g197
sg206
g204
ssg120
(lp231
g84
ag97
ag173
ag180
ag111
ag142
ag199
ag206
asg122
(g142
I5
tp232
sg124
I5
sg6
g0
(g89
g90
V7c3c4cf76a6c4d01b074e8d78554f450
p233
tp234
Rp235
sg41
Nsg42
NsbasVregistered_elements
p236
c__builtin__
set
p237
((lp238
g73
ag156
ag131
atp239
Rp240
sVelements_by_type
p241
(dp242
g73
g70
sg131
g129
sg156
g154
ssVimport_from_file
p243
NsVis_default
p244
I01
sg41
Nsg42
NsbsVsection_contents
p245
(lp246
g0
(cstrictdoc.backend.sdoc.models.node
SDocCompositeNode
p247
g2
Ntp248
Rp249
(dp250
Vnode_type
p251
VSECTION
p252
sg78
(lp253
g0
(cstrictdoc.backend.sdoc.models.node
SDocNodeField
p254
g2
Ntp255
Rp256
(dp257
Vfield_name
p258
VTITLE
p259
sVparts
p260
(lp261
VPlaceholder
p262
asVmultiline__
p263
g29
sg37
I174
sg38
I193
sg39
g249
sVmultiline
p264
I00
sVorigin
p265
cstrictdoc.backend.sdoc.models.node
SDocNodeFieldOrigin
p266
(VDOCUMENT
p267
tp268
Rp269
sbasg115
(lp270
sg245
(lp271
g0
(cstrictdoc.backend.sdoc.models.node
SDocNode
p272
g2
Ntp273
Rp274
(dp275
g251
VTEXT
p276
sg78
(lp277
g0
(g254
g2
Ntp278
Rp279
(dp280
g258
VSTATEMENT
p281
sg260
(lp282
VThis is a placeholder child requirements document for GHOST memory ingestion.\u000a\u000aPlanned scope:\u000a- conversion of durable MemoryRecords into retrieval assets\u000a- memory vector entries\u000a- memory chunking\u000a- memory metadata preservation\u000a- separation from document ingestion\u000a\u000aDetailed atomic requirements shall be added later after human approval.\u000a
p283
asg263
V>>>\u000a
p284
sg37
I201
sg38
I557
sg39
g274
sg264
I01
sg265
g269
sbasg115
(lp285
sg37
I194
sg38
I557
sg39
g249
sVis_composite
p286
I00
sg245
(lp287
sVhas_meta
p288
I00
sVfields_as_parsed
p289
g277
sVordered_fields_lookup
p290
g118
(tRp291
g281
(lp292
g279
assVng_document_reference
p293
g0
(cstrictdoc.backend.sdoc.document_reference
DocumentReference
p294
g2
Ntp295
Rp296
(dp297
V_document
p298
g4
sbsVng_including_document_reference
p299
g0
(g294
g2
Ntp300
Rp301
(dp302
g298
Nsbsg41
I13
sVng_line_end
p303
I26
sg42
I1
sVng_col_end
p304
I1
sVng_byte_start
p305
I194
sVng_byte_end
p306
I557
sVcontext
p307
g0
(cstrictdoc.backend.sdoc.models.node
SDocNodeContext
p308
g2
Ntp309
Rp310
(dp311
Vtitle_number_string
p312
g29
sVng_level
p313
I2
sbsVreserved_mid
p314
g0
(g89
g90
Vb15a23f09d3a4e7eb87b95e935362d03
p315
tp316
Rp317
sVmid_permanent
p318
I00
sVng_resolved_custom_level
p319
VNone
p320
sVcustom_level
p321
NsVng_has_requirements
p322
I00
sVautogen
p323
I00
sbasVnode_type_close
p324
VSECTION
p325
sg37
I162
sg38
I571
sg39
g4
sg286
I01
sg288
I00
sg289
g253
sg290
g118
(tRp326
g259
(lp327
g256
assg293
g296
sg299
g301
sg41
I10
sg303
I28
sg42
I1
sg304
I1
sg305
I162
sg306
I571
sg307
g0
(g308
g2
Ntp328
Rp329
(dp330
g312
V1
p331
sg313
I1
sbsg314
g0
(g89
g90
V6ced7c67f2484decbbda93c91f3fe5e4
p332
tp333
Rp334
sg318
I00
sg319
Nsg321
Nsg322
I00
sg323
I00
sbasg37
I0
sg38
I571
sV_tx_filename
p335
V/home/rusbeh_ab/project/RAGstream/doc/01-Requirements/strictdoc/42_memory_ingestion.sdoc
p336
sV_tx_metamodel
p337
NsV_tx_model_params
p338
NsV_tx_parser
p339
NsVreserved_title
p340
g8
sVis_bundle_document
p341
I00
sVfragments_from_files
p342
(lp343
sg322
I00
sVmeta
p344
Nsg314
g0
(g89
g90
V453df2013a494785a97301871076cd01
p345
tp346
Rp347
sg318
I00
sVincluded_documents
p348
(lp349
sg307
g0
(g308
g2
Ntp350
Rp351
(dp352
g312
Nsg313
I0
sbsg299
g301
sVng_including_document_from_file
p353
NsVsearch_index
p354
g0
(cstrictdoc.backend.sdoc.models.document
SDocDocumentSearchIndex
p355
g2
Ntp356
Rp357
(dp358
Vdocument_index
p359
ccollections
defaultdict
p360
(g237
tp361
Rp362
Vplaceholder
p363
g237
((lp364
V6ced7c67f2484decbbda93c91f3fe5e4
p365
aVb15a23f09d3a4e7eb87b95e935362d03
p366
atp367
Rp368
sVp
p369
g237
((lp370
g334
ag317
atp371
Rp372
sVpl
p373
g237
((lp374
g334
ag317
atp375
Rp376
sVlaceholder
p377
g237
((lp378
g334
ag317
atp379
Rp380
sVpla
p381
g237
((lp382
g334
ag317
atp383
Rp384
sVaceholder
p385
g237
((lp386
g334
ag317
atp387
Rp388
sVplac
p389
g237
((lp390
g334
ag317
atp391
Rp392
sVceholder
p393
g237
((lp394
g334
ag317
atp395
Rp396
sVplace
p397
g237
((lp398
g334
ag317
atp399
Rp400
sVeholder
p401
g237
((lp402
g334
ag317
atp403
Rp404
sVplaceh
p405
g237
((lp406
g334
ag317
atp407
Rp408
sVholder
p409
g237
((lp410
g334
ag317
atp411
Rp412
sVplaceho
p413
g237
((lp414
g334
ag317
atp415
Rp416
sVolder
p417
g237
((lp418
g334
ag317
atp419
Rp420
sVplacehol
p421
g237
((lp422
g334
ag317
atp423
Rp424
sVlder
p425
g237
((lp426
g334
ag317
atp427
Rp428
sVplacehold
p429
g237
((lp430
g334
ag317
atp431
Rp432
sVder
p433
g237
((lp434
g334
ag317
atp435
Rp436
sVplaceholde
p437
g237
((lp438
g334
ag317
atp439
Rp440
sVer
p441
g237
((lp442
g334
ag317
atp443
Rp444
sVr
p445
g237
((lp446
g334
ag317
atp447
Rp448
sVrequirements
p449
g237
((lp450
Vb15a23f09d3a4e7eb87b95e935362d03
p451
atp452
Rp453
sVre
p454
g237
((lp455
g317
atp456
Rp457
sVequirements
p458
g237
((lp459
g317
atp460
Rp461
sVreq
p462
g237
((lp463
g317
atp464
Rp465
sVquirements
p466
g237
((lp467
g317
atp468
Rp469
sVrequ
p470
g237
((lp471
g317
atp472
Rp473
sVuirements
p474
g237
((lp475
g317
atp476
Rp477
sVrequi
p478
g237
((lp479
g317
atp480
Rp481
sVirements
p482
g237
((lp483
g317
atp484
Rp485
sVrequir
p486
g237
((lp487
g317
atp488
Rp489
sVrements
p490
g237
((lp491
g317
atp492
Rp493
sVrequire
p494
g237
((lp495
g317
atp496
Rp497
sVements
p498
g237
((lp499
g317
atp500
Rp501
sVrequirem
p502
g237
((lp503
g317
atp504
Rp505
sVments
p506
g237
((lp507
g317
atp508
Rp509
sVrequireme
p510
g237
((lp511
g317
atp512
Rp513
sVents
p514
g237
((lp515
g317
atp516
Rp517
sVrequiremen
p518
g237
((lp519
g317
atp520
Rp521
sVnts
p522
g237
((lp523
g317
atp524
Rp525
sVrequirement
p526
g237
((lp527
g317
atp528
Rp529
sVts
p530
g237
((lp531
g317
atp532
Rp533
sVs
p534
g237
((lp535
g317
atp536
Rp537
sVdocument
p538
g237
((lp539
Vb15a23f09d3a4e7eb87b95e935362d03
p540
atp541
Rp542
sVd
p543
g237
((lp544
g317
atp545
Rp546
sVdo
p547
g237
((lp548
g317
atp549
Rp550
sVocument
p551
g237
((lp552
g317
atp553
Rp554
sVdoc
p555
g237
((lp556
g317
atp557
Rp558
sVcument
p559
g237
((lp560
g317
atp561
Rp562
sVdocu
p563
g237
((lp564
g317
atp565
Rp566
sVument
p567
g237
((lp568
g317
atp569
Rp570
sVdocum
p571
g237
((lp572
g317
atp573
Rp574
sVment
p575
g237
((lp576
g317
atp577
Rp578
sVdocume
p579
g237
((lp580
g317
atp581
Rp582
sVent
p583
g237
((lp584
g317
atp585
Rp586
sVdocumen
p587
g237
((lp588
g317
atp589
Rp590
sVnt
p591
g237
((lp592
g317
atp593
Rp594
sVt
p595
g237
((lp596
g317
atp597
Rp598
sVghost
p599
g237
((lp600
Vb15a23f09d3a4e7eb87b95e935362d03
p601
atp602
Rp603
sVg
p604
g237
((lp605
g317
atp606
Rp607
sVgh
p608
g237
((lp609
g317
atp610
Rp611
sVhost
p612
g237
((lp613
g317
atp614
Rp615
sVgho
p616
g237
((lp617
g317
atp618
Rp619
sVost
p620
g237
((lp621
g317
atp622
Rp623
sVghos
p624
g237
((lp625
g317
atp626
Rp627
sVst
p628
g237
((lp629
g317
atp630
Rp631
sVchild
p632
g237
((lp633
Vb15a23f09d3a4e7eb87b95e935362d03
p634
atp635
Rp636
sVc
p637
g237
((lp638
g317
atp639
Rp640
sVch
p641
g237
((lp642
g317
atp643
Rp644
sVhild
p645
g237
((lp646
g317
atp647
Rp648
sVchi
p649
g237
((lp650
g317
atp651
Rp652
sVild
p653
g237
((lp654
g317
atp655
Rp656
sVchil
p657
g237
((lp658
g317
atp659
Rp660
sVld
p661
g237
((lp662
g317
atp663
Rp664
sVdetailed
p665
g237
((lp666
Vb15a23f09d3a4e7eb87b95e935362d03
p667
atp668
Rp669
sVde
p670
g237
((lp671
g317
atp672
Rp673
sVetailed
p674
g237
((lp675
g317
atp676
Rp677
sVdet
p678
g237
((lp679
g317
atp680
Rp681
sVtailed
p682
g237
((lp683
g317
atp684
Rp685
sVdeta
p686
g237
((lp687
g317
atp688
Rp689
sVailed
p690
g237
((lp691
g317
atp692
Rp693
sVdetai
p694
g237
((lp695
g317
atp696
Rp697
sViled
p698
g237
((lp699
g317
atp700
Rp701
sVdetail
p702
g237
((lp703
g317
atp704
Rp705
sVled
p706
g237
((lp707
g317
atp708
Rp709
sVdetaile
p710
g237
((lp711
g317
atp712
Rp713
sVed
p714
g237
((lp715
g317
atp716
Rp717
sVentries
p718
g237
((lp719
Vb15a23f09d3a4e7eb87b95e935362d03
p720
atp721
Rp722
sVe
p723
g237
((lp724
g317
atp725
Rp726
sVen
p727
g237
((lp728
g317
atp729
Rp730
sVntries
p731
g237
((lp732
g317
atp733
Rp734
sVtries
p735
g237
((lp736
g317
atp737
Rp738
sVentr
p739
g237
((lp740
g317
atp741
Rp742
sVries
p743
g237
((lp744
g317
atp745
Rp746
sVentri
p747
g237
((lp748
g317
atp749
Rp750
sVies
p751
g237
((lp752
g317
atp753
Rp754
sVentrie
p755
g237
((lp756
g317
atp757
Rp758
sVes
p759
g237
((lp760
g317
atp761
Rp762
sVplanned
p763
g237
((lp764
Vb15a23f09d3a4e7eb87b95e935362d03
p765
atp766
Rp767
sVlanned
p768
g237
((lp769
g317
atp770
Rp771
sVanned
p772
g237
((lp773
g317
atp774
Rp775
sVplan
p776
g237
((lp777
g317
atp778
Rp779
sVnned
p780
g237
((lp781
g317
atp782
Rp783
sVplann
p784
g237
((lp785
g317
atp786
Rp787
sVned
p788
g237
((lp789
g317
atp790
Rp791
sVplanne
p792
g237
((lp793
g317
atp794
Rp795
sVfor
p796
g237
((lp797
Vb15a23f09d3a4e7eb87b95e935362d03
p798
atp799
Rp800
sVf
p801
g237
((lp802
g317
atp803
Rp804
sVfo
p805
g237
((lp806
g317
atp807
Rp808
sVor
p809
g237
((lp810
g317
atp811
Rp812
sVchunking
p813
g237
((lp814
Vb15a23f09d3a4e7eb87b95e935362d03
p815
atp816
Rp817
sVhunking
p818
g237
((lp819
g317
atp820
Rp821
sVchu
p822
g237
((lp823
g317
atp824
Rp825
sVunking
p826
g237
((lp827
g317
atp828
Rp829
sVchun
p830
g237
((lp831
g317
atp832
Rp833
sVnking
p834
g237
((lp835
g317
atp836
Rp837
sVchunk
p838
g237
((lp839
g317
atp840
Rp841
sVking
p842
g237
((lp843
g317
atp844
Rp845
sVchunki
p846
g237
((lp847
g317
atp848
Rp849
sVing
p850
g237
((lp851
g317
atp852
Rp853
sVchunkin
p854
g237
((lp855
g317
atp856
Rp857
sVng
p858
g237
((lp859
g317
atp860
Rp861
sVbe
p862
g237
((lp863
Vb15a23f09d3a4e7eb87b95e935362d03
p864
atp865
Rp866
sVb
p867
g237
((lp868
g317
atp869
Rp870
sVof
p871
g237
((lp872
Vb15a23f09d3a4e7eb87b95e935362d03
p873
atp874
Rp875
sVo
p876
g237
((lp877
g317
atp878
Rp879
sVpreservation
p880
g237
((lp881
Vb15a23f09d3a4e7eb87b95e935362d03
p882
atp883
Rp884
sVpr
p885
g237
((lp886
g317
atp887
Rp888
sVreservation
p889
g237
((lp890
g317
atp891
Rp892
sVpre
p893
g237
((lp894
g317
atp895
Rp896
sVeservation
p897
g237
((lp898
g317
atp899
Rp900
sVpres
p901
g237
((lp902
g317
atp903
Rp904
sVservation
p905
g237
((lp906
g317
atp907
Rp908
sVprese
p909
g237
((lp910
g317
atp911
Rp912
sVervation
p913
g237
((lp914
g317
atp915
Rp916
sVpreser
p917
g237
((lp918
g317
atp919
Rp920
sVrvation
p921
g237
((lp922
g317
atp923
Rp924
sVpreserv
p925
g237
((lp926
g317
atp927
Rp928
sVvation
p929
g237
((lp930
g317
atp931
Rp932
sVpreserva
p933
g237
((lp934
g317
atp935
Rp936
sVation
p937
g237
((lp938
g317
atp939
Rp940
sVpreservat
p941
g237
((lp942
g317
atp943
Rp944
sVtion
p945
g237
((lp946
g317
atp947
Rp948
sVpreservati
p949
g237
((lp950
g317
atp951
Rp952
sVion
p953
g237
((lp954
g317
atp955
Rp956
sVpreservatio
p957
g237
((lp958
g317
atp959
Rp960
sVon
p961
g237
((lp962
g317
atp963
Rp964
sVn
p965
g237
((lp966
g317
atp967
Rp968
sVscope
p969
g237
((lp970
Vb15a23f09d3a4e7eb87b95e935362d03
p971
atp972
Rp973
sVsc
p974
g237
((lp975
g317
atp976
Rp977
sVcope
p978
g237
((lp979
g317
atp980
Rp981
sVsco
p982
g237
((lp983
g317
atp984
Rp985
sVope
p986
g237
((lp987
g317
atp988
Rp989
sVscop
p990
g237
((lp991
g317
atp992
Rp993
sVpe
p994
g237
((lp995
g317
atp996
Rp997
sVfrom
p998
g237
((lp999
Vb15a23f09d3a4e7eb87b95e935362d03
p1000
atp1001
Rp1002
sVfr
p1003
g237
((lp1004
g317
atp1005
Rp1006
sVrom
p1007
g237
((lp1008
g317
atp1009
Rp1010
sVfro
p1011
g237
((lp1012
g317
atp1013
Rp1014
sVom
p1015
g237
((lp1016
g317
atp1017
Rp1018
sVm
p1019
g237
((lp1020
g317
atp1021
Rp1022
sVassets
p1023
g237
((lp1024
Vb15a23f09d3a4e7eb87b95e935362d03
p1025
atp1026
Rp1027
sVa
p1028
g237
((lp1029
g317
atp1030
Rp1031
sVas
p1032
g237
((lp1033
g317
atp1034
Rp1035
sVssets
p1036
g237
((lp1037
g317
atp1038
Rp1039
sVass
p1040
g237
((lp1041
g317
atp1042
Rp1043
sVsets
p1044
g237
((lp1045
g317
atp1046
Rp1047
sVasse
p1048
g237
((lp1049
g317
atp1050
Rp1051
sVets
p1052
g237
((lp1053
g317
atp1054
Rp1055
sVasset
p1056
g237
((lp1057
g317
atp1058
Rp1059
sVconversion
p1060
g237
((lp1061
Vb15a23f09d3a4e7eb87b95e935362d03
p1062
atp1063
Rp1064
sVco
p1065
g237
((lp1066
g317
atp1067
Rp1068
sVonversion
p1069
g237
((lp1070
g317
atp1071
Rp1072
sVcon
p1073
g237
((lp1074
g317
atp1075
Rp1076
sVnversion
p1077
g237
((lp1078
g317
atp1079
Rp1080
sVconv
p1081
g237
((lp1082
g317
atp1083
Rp1084
sVversion
p1085
g237
((lp1086
g317
atp1087
Rp1088
sVconve
p1089
g237
((lp1090
g317
atp1091
Rp1092
sVersion
p1093
g237
((lp1094
g317
atp1095
Rp1096
sVconver
p1097
g237
((lp1098
g317
atp1099
Rp1100
sVrsion
p1101
g237
((lp1102
g317
atp1103
Rp1104
sVconvers
p1105
g237
((lp1106
g317
atp1107
Rp1108
sVsion
p1109
g237
((lp1110
g317
atp1111
Rp1112
sVconversi
p1113
g237
((lp1114
g317
atp1115
Rp1116
sVconversio
p1117
g237
((lp1118
g317
atp1119
Rp1120
sVseparation
p1121
g237
((lp1122
Vb15a23f09d3a4e7eb87b95e935362d03
p1123
atp1124
Rp1125
sVse
p1126
g237
((lp1127
g317
atp1128
Rp1129
sVeparation
p1130
g237
((lp1131
g317
atp1132
Rp1133
sVsep
p1134
g237
((lp1135
g317
atp1136
Rp1137
sVparation
p1138
g237
((lp1139
g317
atp1140
Rp1141
sVsepa
p1142
g237
((lp1143
g317
atp1144
Rp1145
sVaration
p1146
g237
((lp1147
g317
atp1148
Rp1149
sVsepar
p1150
g237
((lp1151
g317
atp1152
Rp1153
sVration
p1154
g237
((lp1155
g317
atp1156
Rp1157
sVsepara
p1158
g237
((lp1159
g317
atp1160
Rp1161
sVseparat
p1162
g237
((lp1163
g317
atp1164
Rp1165
sVseparati
p1166
g237
((lp1167
g317
atp1168
Rp1169
sVseparatio
p1170
g237
((lp1171
g317
atp1172
Rp1173
sVshall
p1174
g237
((lp1175
Vb15a23f09d3a4e7eb87b95e935362d03
p1176
atp1177
Rp1178
sVsh
p1179
g237
((lp1180
g317
atp1181
Rp1182
sVhall
p1183
g237
((lp1184
g317
atp1185
Rp1186
sVsha
p1187
g237
((lp1188
g317
atp1189
Rp1190
sVall
p1191
g237
((lp1192
g317
atp1193
Rp1194
sVshal
p1195
g237
((lp1196
g317
atp1197
Rp1198
sVll
p1199
g237
((lp1200
g317
atp1201
Rp1202
sVl
p1203
g237
((lp1204
g317
atp1205
Rp1206
sVatomic
p1207
g237
((lp1208
Vb15a23f09d3a4e7eb87b95e935362d03
p1209
atp1210
Rp1211
sVat
p1212
g237
((lp1213
g317
atp1214
Rp1215
sVtomic
p1216
g237
((lp1217
g317
atp1218
Rp1219
sVato
p1220
g237
((lp1221
g317
atp1222
Rp1223
sVomic
p1224
g237
((lp1225
g317
atp1226
Rp1227
sVatom
p1228
g237
((lp1229
g317
atp1230
Rp1231
sVmic
p1232
g237
((lp1233
g317
atp1234
Rp1235
sVatomi
p1236
g237
((lp1237
g317
atp1238
Rp1239
sVic
p1240
g237
((lp1241
g317
atp1242
Rp1243
sVmemoryrecords
p1244
g237
((lp1245
Vb15a23f09d3a4e7eb87b95e935362d03
p1246
atp1247
Rp1248
sVme
p1249
g237
((lp1250
g317
atp1251
Rp1252
sVemoryrecords
p1253
g237
((lp1254
g317
atp1255
Rp1256
sVmem
p1257
g237
((lp1258
g317
atp1259
Rp1260
sVmoryrecords
p1261
g237
((lp1262
g317
atp1263
Rp1264
sVmemo
p1265
g237
((lp1266
g317
atp1267
Rp1268
sVoryrecords
p1269
g237
((lp1270
g317
atp1271
Rp1272
sVmemor
p1273
g237
((lp1274
g317
atp1275
Rp1276
sVryrecords
p1277
g237
((lp1278
g317
atp1279
Rp1280
sVmemory
p1281
g237
((lp1282
g317
atp1283
Rp1284
sVyrecords
p1285
g237
((lp1286
g317
atp1287
Rp1288
sVmemoryr
p1289
g237
((lp1290
g317
atp1291
Rp1292
sVrecords
p1293
g237
((lp1294
g317
atp1295
Rp1296
sVmemoryre
p1297
g237
((lp1298
g317
atp1299
Rp1300
sVecords
p1301
g237
((lp1302
g317
atp1303
Rp1304
sVmemoryrec
p1305
g237
((lp1306
g317
atp1307
Rp1308
sVcords
p1309
g237
((lp1310
g317
atp1311
Rp1312
sVmemoryreco
p1313
g237
((lp1314
g317
atp1315
Rp1316
sVords
p1317
g237
((lp1318
g317
atp1319
Rp1320
sVmemoryrecor
p1321
g237
((lp1322
g317
atp1323
Rp1324
sVrds
p1325
g237
((lp1326
g317
atp1327
Rp1328
sVmemoryrecord
p1329
g237
((lp1330
g317
atp1331
Rp1332
sVds
p1333
g237
((lp1334
g317
atp1335
Rp1336
sVhuman
p1337
g237
((lp1338
Vb15a23f09d3a4e7eb87b95e935362d03
p1339
atp1340
Rp1341
sVh
p1342
g237
((lp1343
g317
atp1344
Rp1345
sVhu
p1346
g237
((lp1347
g317
atp1348
Rp1349
sVuman
p1350
g237
((lp1351
g317
atp1352
Rp1353
sVhum
p1354
g237
((lp1355
g317
atp1356
Rp1357
sVman
p1358
g237
((lp1359
g317
atp1360
Rp1361
sVhuma
p1362
g237
((lp1363
g317
atp1364
Rp1365
sVan
p1366
g237
((lp1367
g317
atp1368
Rp1369
sVafter
p1370
g237
((lp1371
Vb15a23f09d3a4e7eb87b95e935362d03
p1372
atp1373
Rp1374
sVaf
p1375
g237
((lp1376
g317
atp1377
Rp1378
sVfter
p1379
g237
((lp1380
g317
atp1381
Rp1382
sVaft
p1383
g237
((lp1384
g317
atp1385
Rp1386
sVter
p1387
g237
((lp1388
g317
atp1389
Rp1390
sVafte
p1391
g237
((lp1392
g317
atp1393
Rp1394
sVapproval
p1395
g237
((lp1396
Vb15a23f09d3a4e7eb87b95e935362d03
p1397
atp1398
Rp1399
sVap
p1400
g237
((lp1401
g317
atp1402
Rp1403
sVpproval
p1404
g237
((lp1405
g317
atp1406
Rp1407
sVapp
p1408
g237
((lp1409
g317
atp1410
Rp1411
sVproval
p1412
g237
((lp1413
g317
atp1414
Rp1415
sVappr
p1416
g237
((lp1417
g317
atp1418
Rp1419
sVroval
p1420
g237
((lp1421
g317
atp1422
Rp1423
sVappro
p1424
g237
((lp1425
g317
atp1426
Rp1427
sVoval
p1428
g237
((lp1429
g317
atp1430
Rp1431
sVapprov
p1432
g237
((lp1433
g317
atp1434
Rp1435
sVval
p1436
g237
((lp1437
g317
atp1438
Rp1439
sVapprova
p1440
g237
((lp1441
g317
atp1442
Rp1443
sVal
p1444
g237
((lp1445
g317
atp1446
Rp1447
sVinto
p1448
g237
((lp1449
Vb15a23f09d3a4e7eb87b95e935362d03
p1450
atp1451
Rp1452
sVi
p1453
g237
((lp1454
g317
atp1455
Rp1456
sVin
p1457
g237
((lp1458
g317
atp1459
Rp1460
sVnto
p1461
g237
((lp1462
g317
atp1463
Rp1464
sVint
p1465
g237
((lp1466
g317
atp1467
Rp1468
sVto
p1469
g237
((lp1470
g317
atp1471
Rp1472
sVvector
p1473
g237
((lp1474
Vb15a23f09d3a4e7eb87b95e935362d03
p1475
atp1476
Rp1477
sVv
p1478
g237
((lp1479
g317
atp1480
Rp1481
sVve
p1482
g237
((lp1483
g317
atp1484
Rp1485
sVector
p1486
g237
((lp1487
g317
atp1488
Rp1489
sVvec
p1490
g237
((lp1491
g317
atp1492
Rp1493
sVctor
p1494
g237
((lp1495
g317
atp1496
Rp1497
sVvect
p1498
g237
((lp1499
g317
atp1500
Rp1501
sVtor
p1502
g237
((lp1503
g317
atp1504
Rp1505
sVvecto
p1506
g237
((lp1507
g317
atp1508
Rp1509
sVretrieval
p1510
g237
((lp1511
Vb15a23f09d3a4e7eb87b95e935362d03
p1512
atp1513
Rp1514
sVetrieval
p1515
g237
((lp1516
g317
atp1517
Rp1518
sVret
p1519
g237
((lp1520
g317
atp1521
Rp1522
sVtrieval
p1523
g237
((lp1524
g317
atp1525
Rp1526
sVretr
p1527
g237
((lp1528
g317
atp1529
Rp1530
sVrieval
p1531
g237
((lp1532
g317
atp1533
Rp1534
sVretri
p1535
g237
((lp1536
g317
atp1537
Rp1538
sVieval
p1539
g237
((lp1540
g317
atp1541
Rp1542
sVretrie
p1543
g237
((lp1544
g317
atp1545
Rp1546
sVeval
p1547
g237
((lp1548
g317
atp1549
Rp1550
sVretriev
p1551
g237
((lp1552
g317
atp1553
Rp1554
sVretrieva
p1555
g237
((lp1556
g317
atp1557
Rp1558
sVlater
p1559
g237
((lp1560
Vb15a23f09d3a4e7eb87b95e935362d03
p1561
atp1562
Rp1563
sVla
p1564
g237
((lp1565
g317
atp1566
Rp1567
sVater
p1568
g237
((lp1569
g317
atp1570
Rp1571
sVlat
p1572
g237
((lp1573
g317
atp1574
Rp1575
sVlate
p1576
g237
((lp1577
g317
atp1578
Rp1579
sVthis
p1580
g237
((lp1581
Vb15a23f09d3a4e7eb87b95e935362d03
p1582
atp1583
Rp1584
sVth
p1585
g237
((lp1586
g317
atp1587
Rp1588
sVhis
p1589
g237
((lp1590
g317
atp1591
Rp1592
sVthi
p1593
g237
((lp1594
g317
atp1595
Rp1596
sVis
p1597
g237
((lp1598
g317
atp1599
Rp1600
sVemory
p1601
g237
((lp1602
g317
atp1603
Rp1604
sVmory
p1605
g237
((lp1606
g317
atp1607
Rp1608
sVory
p1609
g237
((lp1610
g317
atp1611
Rp1612
sVry
p1613
g237
((lp1614
g317
atp1615
Rp1616
sVy
p1617
g237
((lp1618
g317
atp1619
Rp1620
sVdurable
p1621
g237
((lp1622
Vb15a23f09d3a4e7eb87b95e935362d03
p1623
atp1624
Rp1625
sVdu
p1626
g237
((lp1627
g317
atp1628
Rp1629
sVurable
p1630
g237
((lp1631
g317
atp1632
Rp1633
sVdur
p1634
g237
((lp1635
g317
atp1636
Rp1637
sVrable
p1638
g237
((lp1639
g317
atp1640
Rp1641
sVdura
p1642
g237
((lp1643
g317
atp1644
Rp1645
sVable
p1646
g237
((lp1647
g317
atp1648
Rp1649
sVdurab
p1650
g237
((lp1651
g317
atp1652
Rp1653
sVble
p1654
g237
((lp1655
g317
atp1656
Rp1657
sVdurabl
p1658
g237
((lp1659
g317
atp1660
Rp1661
sVle
p1662
g237
((lp1663
g317
atp1664
Rp1665
sVadded
p1666
g237
((lp1667
Vb15a23f09d3a4e7eb87b95e935362d03
p1668
atp1669
Rp1670
sVad
p1671
g237
((lp1672
g317
atp1673
Rp1674
sVdded
p1675
g237
((lp1676
g317
atp1677
Rp1678
sVadd
p1679
g237
((lp1680
g317
atp1681
Rp1682
sVded
p1683
g237
((lp1684
g317
atp1685
Rp1686
sVadde
p1687
g237
((lp1688
g317
atp1689
Rp1690
sVingestion
p1691
g237
((lp1692
Vb15a23f09d3a4e7eb87b95e935362d03
p1693
atp1694
Rp1695
sVngestion
p1696
g237
((lp1697
g317
atp1698
Rp1699
sVgestion
p1700
g237
((lp1701
g317
atp1702
Rp1703
sVinge
p1704
g237
((lp1705
g317
atp1706
Rp1707
sVestion
p1708
g237
((lp1709
g317
atp1710
Rp1711
sVinges
p1712
g237
((lp1713
g317
atp1714
Rp1715
sVstion
p1716
g237
((lp1717
g317
atp1718
Rp1719
sVingest
p1720
g237
((lp1721
g317
atp1722
Rp1723
sVingesti
p1724
g237
((lp1725
g317
atp1726
Rp1727
sVingestio
p1728
g237
((lp1729
g317
atp1730
Rp1731
sVmetadata
p1732
g237
((lp1733
Vb15a23f09d3a4e7eb87b95e935362d03
p1734
atp1735
Rp1736
sVetadata
p1737
g237
((lp1738
g317
atp1739
Rp1740
sVmet
p1741
g237
((lp1742
g317
atp1743
Rp1744
sVtadata
p1745
g237
((lp1746
g317
atp1747
Rp1748
sVmeta
p1749
g237
((lp1750
g317
atp1751
Rp1752
sVadata
p1753
g237
((lp1754
g317
atp1755
Rp1756
sVmetad
p1757
g237
((lp1758
g317
atp1759
Rp1760
sVdata
p1761
g237
((lp1762
g317
atp1763
Rp1764
sVmetada
p1765
g237
((lp1766
g317
atp1767
Rp1768
sVata
p1769
g237
((lp1770
g317
atp1771
Rp1772
sVmetadat
p1773
g237
((lp1774
g317
atp1775
Rp1776
sVta
p1777
g237
((lp1778
g317
atp1779
Rp1780
ssVmap_nodes_by_mid
p1781
(dp1782
V6ced7c67f2484decbbda93c91f3fe5e4
p1783
(dp1784
VMID
p1785
V6ced7c67f2484decbbda93c91f3fe5e4
p1786
sg259
g262
ssVb15a23f09d3a4e7eb87b95e935362d03
p1787
(dp1788
g1785
Vb15a23f09d3a4e7eb87b95e935362d03
p1789
sg281
g283
sssbsVng_source_content
p1790
Nsg323
I00
sV_tx_attrs
p1791
NsV_tx_peg_rule
p1792
Nsb.