ccopy_reg
_reconstructor
p0
(cstrictdoc.backend.sdoc.models.document
SDocDocument
p1
c__builtin__
object
p2
Ntp3
Rp4
(dp5
Vmid
p6
NsVtitle
p7
VMemory Retrieval Requirements
p8
sVconfig
p9
g0
(cstrictdoc.backend.sdoc.models.document_config
DocumentConfig
p10
g2
Ntp11
Rp12
(dp13
Vuid
p14
VGHOST-REQ-MEMORY-RETRIEVAL
p15
sVversion
p16
V0.1-dummy
p17
sVdate
p18
NsVclassification
p19
NsVrequirement_prefix
p20
NsVroot
p21
NsVenable_mid
p22
NsVrelation_field
p23
NsVmarkup
p24
VText
p25
sVauto_levels
p26
I01
sVlayout
p27
NsVview_style_tag
p28
V
p29
sVrequirement_style
p30
NsVnode_in_toc_tag
p31
VNODE_IN_TOC
p32
sVrequirement_in_toc
p33
VTrue
p34
sVdefault_view
p35
NsVcustom_metadata
p36
NsV_tx_position
p37
I48
sV_tx_position_end
p38
I161
sVparent
p39
g4
sVng_auto_levels_specified
p40
I01
sVng_line_start
p41
I3
sVng_col_start
p42
I1
sbsVview
p43
g0
(cstrictdoc.backend.sdoc.models.document_view
DocumentView
p44
g2
Ntp45
Rp46
(dp47
g39
g4
sVviews
p48
(lp49
g0
(cstrictdoc.backend.sdoc.models.document_view
DefaultViewElement
p50
g2
Ntp51
Rp52
(dp53
g39
g46
sVview_id
p54
VNOT_RELEVANT
p55
sVtags
p56
(lp57
sVhidden_tags
p58
(lp59
sVname
p60
Nsbasg41
I31
sg42
I723
sbsVgrammar
p61
g0
(cstrictdoc.backend.sdoc.models.document_grammar
DocumentGrammar
p62
g2
Ntp63
Rp64
(dp65
g39
g4
sVelements
p66
(lp67
g0
(cstrictdoc.backend.sdoc.models.grammar_element
GrammarElement
p68
g2
Ntp69
Rp70
(dp71
g39
g64
sVtag
p72
VSECTION
p73
sVproperty_is_composite
p74
I01
sVproperty_prefix
p75
NsVproperty_view_style
p76
NsVproperty_view_style_lower
p77
NsVfields
p78
(lp79
g0
(cstrictdoc.backend.sdoc.models.grammar_element
GrammarElementFieldString
p80
g2
Ntp81
Rp82
(dp83
g7
VUID
p84
sVhuman_title
p85
NsVgef_type
p86
VString
p87
sVrequired
p88
I00
sg6
g0
(cstrictdoc.helpers.mid
MID
p89
c__builtin__
unicode
p90
Vbca6aaf33a724e789b5718a0caaa2378
p91
tp92
Rp93
sg39
Nsbag0
(g80
g2
Ntp94
Rp95
(dp96
g7
VLEVEL
p97
sg85
Nsg86
g87
sg88
I00
sg6
g0
(g89
g90
V586f3ff69ef1459985f11a412a018164
p98
tp99
Rp100
sg39
Nsbag0
(g80
g2
Ntp101
Rp102
(dp103
g7
VPREFIX
p104
sg85
Nsg86
g87
sg88
I00
sg6
g0
(g89
g90
Ve8d529f277d840f392850ce98be1b9c0
p105
tp106
Rp107
sg39
Nsbag0
(g80
g2
Ntp108
Rp109
(dp110
g7
VTITLE
p111
sg85
Nsg86
g87
sg88
I01
sg6
g0
(g89
g90
V8a0fc9b54a3c4ea5b196a92ce7e82661
p112
tp113
Rp114
sg39
NsbasVrelations
p115
(lp116
sVfields_map
p117
ccollections
OrderedDict
p118
(tRp119
g84
g82
sg97
g95
sg104
g102
sg111
g109
ssVfield_titles
p120
(lp121
g84
ag97
ag104
ag111
asVcontent_field
p122
(g29
I-1
tp123
sV_multiline_field_index
p124
I4
sg6
g0
(g89
g90
V669317e386cb47a7a79bc1f19d7ccdd1
p125
tp126
Rp127
sg41
Nsg42
Nsbag0
(g68
g2
Ntp128
Rp129
(dp130
g39
g64
sg72
VTEXT
p131
sg74
Nsg75
Nsg76
Nsg77
Nsg78
(lp132
g0
(g80
g2
Ntp133
Rp134
(dp135
g7
g84
sg85
Nsg86
g87
sg88
I00
sg6
g0
(g89
g90
Va61767306a7e4d3fb5fb2da5cdc45404
p136
tp137
Rp138
sg39
Nsbag0
(g80
g2
Ntp139
Rp140
(dp141
g7
VSTATEMENT
p142
sg85
Nsg86
g87
sg88
I01
sg6
g0
(g89
g90
Vbe069265007d4dd281037ae83a56cac8
p143
tp144
Rp145
sg39
Nsbasg115
(lp146
sg117
g118
(tRp147
g84
g134
sg142
g140
ssg120
(lp148
g84
ag142
asg122
(g142
I1
tp149
sg124
I1
sg6
g0
(g89
g90
Vbb1f91afa1ef46cf876f53613180f041
p150
tp151
Rp152
sg41
Nsg42
Nsbag0
(g68
g2
Ntp153
Rp154
(dp155
g39
g64
sg72
VREQUIREMENT
p156
sg74
Nsg75
Nsg76
Nsg77
Nsg78
(lp157
g0
(g80
g2
Ntp158
Rp159
(dp160
g7
g84
sg85
Nsg86
g87
sg88
I00
sg6
g0
(g89
g90
Vecfee7720f604bb1b2a81b5689aa0455
p161
tp162
Rp163
sg39
Nsbag0
(g80
g2
Ntp164
Rp165
(dp166
g7
g97
sg85
Nsg86
g87
sg88
I00
sg6
g0
(g89
g90
V19d63fa5a5534156a3a8526e1d906297
p167
tp168
Rp169
sg39
Nsbag0
(g80
g2
Ntp170
Rp171
(dp172
g7
VSTATUS
p173
sg85
Nsg86
g87
sg88
I00
sg6
g0
(g89
g90
V558f837b0fb64c8c92c57c38f1281989
p174
tp175
Rp176
sg39
Nsbag0
(g80
g2
Ntp177
Rp178
(dp179
g7
VTAGS
p180
sg85
Nsg86
g87
sg88
I00
sg6
g0
(g89
g90
Vd037794c569845f080d2eead05a6c5f6
p181
tp182
Rp183
sg39
Nsbag0
(g80
g2
Ntp184
Rp185
(dp186
g7
g111
sg85
Nsg86
g87
sg88
I00
sg6
g0
(g89
g90
Vc29aa935071445fc8b8040bc8ad6db97
p187
tp188
Rp189
sg39
Nsbag0
(g80
g2
Ntp190
Rp191
(dp192
g7
g142
sg85
Nsg86
g87
sg88
I00
sg6
g0
(g89
g90
V0fbb99f993444c83aba2fad4f546dc08
p193
tp194
Rp195
sg39
Nsbag0
(g80
g2
Ntp196
Rp197
(dp198
g7
VRATIONALE
p199
sg85
Nsg86
g87
sg88
I00
sg6
g0
(g89
g90
V33f7b7565e8e4c6bbbbf70e976c5ffa1
p200
tp201
Rp202
sg39
Nsbag0
(g80
g2
Ntp203
Rp204
(dp205
g7
VCOMMENT
p206
sg85
Nsg86
g87
sg88
I00
sg6
g0
(g89
g90
V3a3d77b5440f4fda9b2095bd8c64981e
p207
tp208
Rp209
sg39
Nsbasg115
(lp210
g0
(cstrictdoc.backend.sdoc.models.grammar_element
GrammarElementRelationParent
p211
g2
Ntp212
Rp213
(dp214
g39
g154
sVrelation_type
p215
VParent
p216
sVrelation_role
p217
NsVreverse_relation_role
p218
Nsg6
g0
(g89
g90
V016846e7e8fb4f6795a0217173ea9a84
p219
tp220
Rp221
sbag0
(cstrictdoc.backend.sdoc.models.grammar_element
GrammarElementRelationFile
p222
g2
Ntp223
Rp224
(dp225
g39
g154
sg215
VFile
p226
sg217
Nsg218
Nsg6
g0
(g89
g90
Vbeb32ec30a9f412caecefcda8415567b
p227
tp228
Rp229
sbasg117
g118
(tRp230
g84
g159
sg97
g165
sg173
g171
sg180
g178
sg111
g185
sg142
g191
sg199
g197
sg206
g204
ssg120
(lp231
g84
ag97
ag173
ag180
ag111
ag142
ag199
ag206
asg122
(g142
I5
tp232
sg124
I5
sg6
g0
(g89
g90
V7ca2f0e1375140659e9fda243757e539
p233
tp234
Rp235
sg41
Nsg42
NsbasVregistered_elements
p236
c__builtin__
set
p237
((lp238
g73
ag156
ag131
atp239
Rp240
sVelements_by_type
p241
(dp242
g73
g70
sg131
g129
sg156
g154
ssVimport_from_file
p243
NsVis_default
p244
I01
sg41
Nsg42
NsbsVsection_contents
p245
(lp246
g0
(cstrictdoc.backend.sdoc.models.node
SDocCompositeNode
p247
g2
Ntp248
Rp249
(dp250
Vnode_type
p251
VSECTION
p252
sg78
(lp253
g0
(cstrictdoc.backend.sdoc.models.node
SDocNodeField
p254
g2
Ntp255
Rp256
(dp257
Vfield_name
p258
VTITLE
p259
sVparts
p260
(lp261
VPlaceholder
p262
asVmultiline__
p263
g29
sg37
I174
sg38
I193
sg39
g249
sVmultiline
p264
I00
sVorigin
p265
cstrictdoc.backend.sdoc.models.node
SDocNodeFieldOrigin
p266
(VDOCUMENT
p267
tp268
Rp269
sbasg115
(lp270
sg245
(lp271
g0
(cstrictdoc.backend.sdoc.models.node
SDocNode
p272
g2
Ntp273
Rp274
(dp275
g251
VTEXT
p276
sg78
(lp277
g0
(g254
g2
Ntp278
Rp279
(dp280
g258
VSTATEMENT
p281
sg260
(lp282
VThis is a placeholder child requirements document for GHOST memory retrieval.\u000a\u000aPlanned scope:\u000a- current-log automatic retrieval\u000a- Direct Recall Key behavior\u000a- working-memory candidates\u000a- episodic MemoryRecord candidates\u000a- semantic memory chunks\u000a- parent-level scoring\u000a- MemoryContextPack construction\u000a- composite Retrieval stage boundary\u000a\u000aDetailed atomic requirements shall be added later after human approval.\u000a
p283
asg263
V>>>\u000a
p284
sg37
I201
sg38
I631
sg39
g274
sg264
I01
sg265
g269
sbasg115
(lp285
sg37
I194
sg38
I631
sg39
g249
sVis_composite
p286
I00
sg245
(lp287
sVhas_meta
p288
I00
sVfields_as_parsed
p289
g277
sVordered_fields_lookup
p290
g118
(tRp291
g281
(lp292
g279
assVng_document_reference
p293
g0
(cstrictdoc.backend.sdoc.document_reference
DocumentReference
p294
g2
Ntp295
Rp296
(dp297
V_document
p298
g4
sbsVng_including_document_reference
p299
g0
(g294
g2
Ntp300
Rp301
(dp302
g298
Nsbsg41
I13
sVng_line_end
p303
I29
sg42
I1
sVng_col_end
p304
I1
sVng_byte_start
p305
I194
sVng_byte_end
p306
I631
sVcontext
p307
g0
(cstrictdoc.backend.sdoc.models.node
SDocNodeContext
p308
g2
Ntp309
Rp310
(dp311
Vtitle_number_string
p312
g29
sVng_level
p313
I2
sbsVreserved_mid
p314
g0
(g89
g90
V1343fed591ea493eae8ad17bf215d925
p315
tp316
Rp317
sVmid_permanent
p318
I00
sVng_resolved_custom_level
p319
VNone
p320
sVcustom_level
p321
NsVng_has_requirements
p322
I00
sVautogen
p323
I00
sbasVnode_type_close
p324
VSECTION
p325
sg37
I162
sg38
I645
sg39
g4
sg286
I01
sg288
I00
sg289
g253
sg290
g118
(tRp326
g259
(lp327
g256
assg293
g296
sg299
g301
sg41
I10
sg303
I31
sg42
I1
sg304
I1
sg305
I162
sg306
I645
sg307
g0
(g308
g2
Ntp328
Rp329
(dp330
g312
V1
p331
sg313
I1
sbsg314
g0
(g89
g90
V7e2f4b3b90b14805be8429738a32ce59
p332
tp333
Rp334
sg318
I00
sg319
Nsg321
Nsg322
I00
sg323
I00
sbasg37
I0
sg38
I645
sV_tx_filename
p335
V/home/rusbeh_ab/project/RAGstream/doc/01-Requirements/strictdoc/43_memory_retrieval.sdoc
p336
sV_tx_metamodel
p337
NsV_tx_model_params
p338
NsV_tx_parser
p339
NsVreserved_title
p340
g8
sVis_bundle_document
p341
I00
sVfragments_from_files
p342
(lp343
sg322
I00
sVmeta
p344
Nsg314
g0
(g89
g90
V0302998a17014a54b85c94edafeaf25f
p345
tp346
Rp347
sg318
I00
sVincluded_documents
p348
(lp349
sg307
g0
(g308
g2
Ntp350
Rp351
(dp352
g312
Nsg313
I0
sbsg299
g301
sVng_including_document_from_file
p353
NsVsearch_index
p354
g0
(cstrictdoc.backend.sdoc.models.document
SDocDocumentSearchIndex
p355
g2
Ntp356
Rp357
(dp358
Vdocument_index
p359
ccollections
defaultdict
p360
(g237
tp361
Rp362
Vplaceholder
p363
g237
((lp364
V7e2f4b3b90b14805be8429738a32ce59
p365
aV1343fed591ea493eae8ad17bf215d925
p366
atp367
Rp368
sVp
p369
g237
((lp370
g334
ag317
atp371
Rp372
sVpl
p373
g237
((lp374
g334
ag317
atp375
Rp376
sVlaceholder
p377
g237
((lp378
g334
ag317
atp379
Rp380
sVpla
p381
g237
((lp382
g334
ag317
atp383
Rp384
sVaceholder
p385
g237
((lp386
g334
ag317
atp387
Rp388
sVplac
p389
g237
((lp390
g334
ag317
atp391
Rp392
sVceholder
p393
g237
((lp394
g334
ag317
atp395
Rp396
sVplace
p397
g237
((lp398
g334
ag317
atp399
Rp400
sVeholder
p401
g237
((lp402
g334
ag317
atp403
Rp404
sVplaceh
p405
g237
((lp406
g334
ag317
atp407
Rp408
sVholder
p409
g237
((lp410
g334
ag317
atp411
Rp412
sVplaceho
p413
g237
((lp414
g334
ag317
atp415
Rp416
sVolder
p417
g237
((lp418
g334
ag317
atp419
Rp420
sVplacehol
p421
g237
((lp422
g334
ag317
atp423
Rp424
sVlder
p425
g237
((lp426
g334
ag317
atp427
Rp428
sVplacehold
p429
g237
((lp430
g334
ag317
atp431
Rp432
sVder
p433
g237
((lp434
g334
ag317
atp435
Rp436
sVplaceholde
p437
g237
((lp438
g334
ag317
atp439
Rp440
sVer
p441
g237
((lp442
g334
ag317
atp443
Rp444
sVr
p445
g237
((lp446
g334
ag317
atp447
Rp448
sVrequirements
p449
g237
((lp450
V1343fed591ea493eae8ad17bf215d925
p451
atp452
Rp453
sVre
p454
g237
((lp455
g317
atp456
Rp457
sVequirements
p458
g237
((lp459
g317
atp460
Rp461
sVreq
p462
g237
((lp463
g317
atp464
Rp465
sVquirements
p466
g237
((lp467
g317
atp468
Rp469
sVrequ
p470
g237
((lp471
g317
atp472
Rp473
sVuirements
p474
g237
((lp475
g317
atp476
Rp477
sVrequi
p478
g237
((lp479
g317
atp480
Rp481
sVirements
p482
g237
((lp483
g317
atp484
Rp485
sVrequir
p486
g237
((lp487
g317
atp488
Rp489
sVrements
p490
g237
((lp491
g317
atp492
Rp493
sVrequire
p494
g237
((lp495
g317
atp496
Rp497
sVements
p498
g237
((lp499
g317
atp500
Rp501
sVrequirem
p502
g237
((lp503
g317
atp504
Rp505
sVments
p506
g237
((lp507
g317
atp508
Rp509
sVrequireme
p510
g237
((lp511
g317
atp512
Rp513
sVents
p514
g237
((lp515
g317
atp516
Rp517
sVrequiremen
p518
g237
((lp519
g317
atp520
Rp521
sVnts
p522
g237
((lp523
g317
atp524
Rp525
sVrequirement
p526
g237
((lp527
g317
atp528
Rp529
sVts
p530
g237
((lp531
g317
atp532
Rp533
sVs
p534
g237
((lp535
g317
atp536
Rp537
sVparent-level
p538
g237
((lp539
V1343fed591ea493eae8ad17bf215d925
p540
atp541
Rp542
sVpa
p543
g237
((lp544
g317
atp545
Rp546
sVarent-level
p547
g237
((lp548
g317
atp549
Rp550
sVpar
p551
g237
((lp552
g317
atp553
Rp554
sVrent-level
p555
g237
((lp556
g317
atp557
Rp558
sVpare
p559
g237
((lp560
g317
atp561
Rp562
sVent-level
p563
g237
((lp564
g317
atp565
Rp566
sVparen
p567
g237
((lp568
g317
atp569
Rp570
sVnt-level
p571
g237
((lp572
g317
atp573
Rp574
sVparent
p575
g237
((lp576
g317
atp577
Rp578
sVt-level
p579
g237
((lp580
g317
atp581
Rp582
sVparent-
p583
g237
((lp584
g317
atp585
Rp586
sV-level
p587
g237
((lp588
g317
atp589
Rp590
sVparent-l
p591
g237
((lp592
g317
atp593
Rp594
sVlevel
p595
g237
((lp596
g317
atp597
Rp598
sVparent-le
p599
g237
((lp600
g317
atp601
Rp602
sVevel
p603
g237
((lp604
g317
atp605
Rp606
sVparent-lev
p607
g237
((lp608
g317
atp609
Rp610
sVvel
p611
g237
((lp612
g317
atp613
Rp614
sVparent-leve
p615
g237
((lp616
g317
atp617
Rp618
sVel
p619
g237
((lp620
g317
atp621
Rp622
sVl
p623
g237
((lp624
g317
atp625
Rp626
sVdocument
p627
g237
((lp628
V1343fed591ea493eae8ad17bf215d925
p629
atp630
Rp631
sVd
p632
g237
((lp633
g317
atp634
Rp635
sVdo
p636
g237
((lp637
g317
atp638
Rp639
sVocument
p640
g237
((lp641
g317
atp642
Rp643
sVdoc
p644
g237
((lp645
g317
atp646
Rp647
sVcument
p648
g237
((lp649
g317
atp650
Rp651
sVdocu
p652
g237
((lp653
g317
atp654
Rp655
sVument
p656
g237
((lp657
g317
atp658
Rp659
sVdocum
p660
g237
((lp661
g317
atp662
Rp663
sVment
p664
g237
((lp665
g317
atp666
Rp667
sVdocume
p668
g237
((lp669
g317
atp670
Rp671
sVent
p672
g237
((lp673
g317
atp674
Rp675
sVdocumen
p676
g237
((lp677
g317
atp678
Rp679
sVnt
p680
g237
((lp681
g317
atp682
Rp683
sVt
p684
g237
((lp685
g317
atp686
Rp687
sVghost
p688
g237
((lp689
V1343fed591ea493eae8ad17bf215d925
p690
atp691
Rp692
sVg
p693
g237
((lp694
g317
atp695
Rp696
sVgh
p697
g237
((lp698
g317
atp699
Rp700
sVhost
p701
g237
((lp702
g317
atp703
Rp704
sVgho
p705
g237
((lp706
g317
atp707
Rp708
sVost
p709
g237
((lp710
g317
atp711
Rp712
sVghos
p713
g237
((lp714
g317
atp715
Rp716
sVst
p717
g237
((lp718
g317
atp719
Rp720
sVchild
p721
g237
((lp722
V1343fed591ea493eae8ad17bf215d925
p723
atp724
Rp725
sVc
p726
g237
((lp727
g317
atp728
Rp729
sVch
p730
g237
((lp731
g317
atp732
Rp733
sVhild
p734
g237
((lp735
g317
atp736
Rp737
sVchi
p738
g237
((lp739
g317
atp740
Rp741
sVild
p742
g237
((lp743
g317
atp744
Rp745
sVchil
p746
g237
((lp747
g317
atp748
Rp749
sVld
p750
g237
((lp751
g317
atp752
Rp753
sVcomposite
p754
g237
((lp755
V1343fed591ea493eae8ad17bf215d925
p756
atp757
Rp758
sVco
p759
g237
((lp760
g317
atp761
Rp762
sVomposite
p763
g237
((lp764
g317
atp765
Rp766
sVcom
p767
g237
((lp768
g317
atp769
Rp770
sVmposite
p771
g237
((lp772
g317
atp773
Rp774
sVcomp
p775
g237
((lp776
g317
atp777
Rp778
sVposite
p779
g237
((lp780
g317
atp781
Rp782
sVcompo
p783
g237
((lp784
g317
atp785
Rp786
sVosite
p787
g237
((lp788
g317
atp789
Rp790
sVcompos
p791
g237
((lp792
g317
atp793
Rp794
sVsite
p795
g237
((lp796
g317
atp797
Rp798
sVcomposi
p799
g237
((lp800
g317
atp801
Rp802
sVite
p803
g237
((lp804
g317
atp805
Rp806
sVcomposit
p807
g237
((lp808
g317
atp809
Rp810
sVte
p811
g237
((lp812
g317
atp813
Rp814
sVe
p815
g237
((lp816
g317
atp817
Rp818
sVdetailed
p819
g237
((lp820
V1343fed591ea493eae8ad17bf215d925
p821
atp822
Rp823
sVde
p824
g237
((lp825
g317
atp826
Rp827
sVetailed
p828
g237
((lp829
g317
atp830
Rp831
sVdet
p832
g237
((lp833
g317
atp834
Rp835
sVtailed
p836
g237
((lp837
g317
atp838
Rp839
sVdeta
p840
g237
((lp841
g317
atp842
Rp843
sVailed
p844
g237
((lp845
g317
atp846
Rp847
sVdetai
p848
g237
((lp849
g317
atp850
Rp851
sViled
p852
g237
((lp853
g317
atp854
Rp855
sVdetail
p856
g237
((lp857
g317
atp858
Rp859
sVled
p860
g237
((lp861
g317
atp862
Rp863
sVdetaile
p864
g237
((lp865
g317
atp866
Rp867
sVed
p868
g237
((lp869
g317
atp870
Rp871
sVplanned
p872
g237
((lp873
V1343fed591ea493eae8ad17bf215d925
p874
atp875
Rp876
sVlanned
p877
g237
((lp878
g317
atp879
Rp880
sVanned
p881
g237
((lp882
g317
atp883
Rp884
sVplan
p885
g237
((lp886
g317
atp887
Rp888
sVnned
p889
g237
((lp890
g317
atp891
Rp892
sVplann
p893
g237
((lp894
g317
atp895
Rp896
sVned
p897
g237
((lp898
g317
atp899
Rp900
sVplanne
p901
g237
((lp902
g317
atp903
Rp904
sVfor
p905
g237
((lp906
V1343fed591ea493eae8ad17bf215d925
p907
atp908
Rp909
sVf
p910
g237
((lp911
g317
atp912
Rp913
sVfo
p914
g237
((lp915
g317
atp916
Rp917
sVor
p918
g237
((lp919
g317
atp920
Rp921
sVmemorycontextpack
p922
g237
((lp923
V1343fed591ea493eae8ad17bf215d925
p924
atp925
Rp926
sVm
p927
g237
((lp928
g317
atp929
Rp930
sVme
p931
g237
((lp932
g317
atp933
Rp934
sVemorycontextpack
p935
g237
((lp936
g317
atp937
Rp938
sVmem
p939
g237
((lp940
g317
atp941
Rp942
sVmorycontextpack
p943
g237
((lp944
g317
atp945
Rp946
sVmemo
p947
g237
((lp948
g317
atp949
Rp950
sVorycontextpack
p951
g237
((lp952
g317
atp953
Rp954
sVmemor
p955
g237
((lp956
g317
atp957
Rp958
sVrycontextpack
p959
g237
((lp960
g317
atp961
Rp962
sVmemory
p963
g237
((lp964
g317
atp965
Rp966
sVycontextpack
p967
g237
((lp968
g317
atp969
Rp970
sVmemoryc
p971
g237
((lp972
g317
atp973
Rp974
sVcontextpack
p975
g237
((lp976
g317
atp977
Rp978
sVmemoryco
p979
g237
((lp980
g317
atp981
Rp982
sVontextpack
p983
g237
((lp984
g317
atp985
Rp986
sVmemorycon
p987
g237
((lp988
g317
atp989
Rp990
sVntextpack
p991
g237
((lp992
g317
atp993
Rp994
sVmemorycont
p995
g237
((lp996
g317
atp997
Rp998
sVtextpack
p999
g237
((lp1000
g317
atp1001
Rp1002
sVmemoryconte
p1003
g237
((lp1004
g317
atp1005
Rp1006
sVextpack
p1007
g237
((lp1008
g317
atp1009
Rp1010
sVmemorycontex
p1011
g237
((lp1012
g317
atp1013
Rp1014
sVxtpack
p1015
g237
((lp1016
g317
atp1017
Rp1018
sVmemorycontext
p1019
g237
((lp1020
g317
atp1021
Rp1022
sVtpack
p1023
g237
((lp1024
g317
atp1025
Rp1026
sVmemorycontextp
p1027
g237
((lp1028
g317
atp1029
Rp1030
sVpack
p1031
g237
((lp1032
g317
atp1033
Rp1034
sVmemorycontextpa
p1035
g237
((lp1036
g317
atp1037
Rp1038
sVack
p1039
g237
((lp1040
g317
atp1041
Rp1042
sVmemorycontextpac
p1043
g237
((lp1044
g317
atp1045
Rp1046
sVck
p1047
g237
((lp1048
g317
atp1049
Rp1050
sVk
p1051
g237
((lp1052
g317
atp1053
Rp1054
sVbe
p1055
g237
((lp1056
V1343fed591ea493eae8ad17bf215d925
p1057
atp1058
Rp1059
sVb
p1060
g237
((lp1061
g317
atp1062
Rp1063
sVrecall
p1064
g237
((lp1065
V1343fed591ea493eae8ad17bf215d925
p1066
atp1067
Rp1068
sVecall
p1069
g237
((lp1070
g317
atp1071
Rp1072
sVrec
p1073
g237
((lp1074
g317
atp1075
Rp1076
sVcall
p1077
g237
((lp1078
g317
atp1079
Rp1080
sVreca
p1081
g237
((lp1082
g317
atp1083
Rp1084
sVall
p1085
g237
((lp1086
g317
atp1087
Rp1088
sVrecal
p1089
g237
((lp1090
g317
atp1091
Rp1092
sVll
p1093
g237
((lp1094
g317
atp1095
Rp1096
sVscope
p1097
g237
((lp1098
V1343fed591ea493eae8ad17bf215d925
p1099
atp1100
Rp1101
sVsc
p1102
g237
((lp1103
g317
atp1104
Rp1105
sVcope
p1106
g237
((lp1107
g317
atp1108
Rp1109
sVsco
p1110
g237
((lp1111
g317
atp1112
Rp1113
sVope
p1114
g237
((lp1115
g317
atp1116
Rp1117
sVscop
p1118
g237
((lp1119
g317
atp1120
Rp1121
sVpe
p1122
g237
((lp1123
g317
atp1124
Rp1125
sVdirect
p1126
g237
((lp1127
V1343fed591ea493eae8ad17bf215d925
p1128
atp1129
Rp1130
sVdi
p1131
g237
((lp1132
g317
atp1133
Rp1134
sVirect
p1135
g237
((lp1136
g317
atp1137
Rp1138
sVdir
p1139
g237
((lp1140
g317
atp1141
Rp1142
sVrect
p1143
g237
((lp1144
g317
atp1145
Rp1146
sVdire
p1147
g237
((lp1148
g317
atp1149
Rp1150
sVect
p1151
g237
((lp1152
g317
atp1153
Rp1154
sVdirec
p1155
g237
((lp1156
g317
atp1157
Rp1158
sVct
p1159
g237
((lp1160
g317
atp1161
Rp1162
sVautomatic
p1163
g237
((lp1164
V1343fed591ea493eae8ad17bf215d925
p1165
atp1166
Rp1167
sVa
p1168
g237
((lp1169
g317
atp1170
Rp1171
sVau
p1172
g237
((lp1173
g317
atp1174
Rp1175
sVutomatic
p1176
g237
((lp1177
g317
atp1178
Rp1179
sVaut
p1180
g237
((lp1181
g317
atp1182
Rp1183
sVtomatic
p1184
g237
((lp1185
g317
atp1186
Rp1187
sVauto
p1188
g237
((lp1189
g317
atp1190
Rp1191
sVomatic
p1192
g237
((lp1193
g317
atp1194
Rp1195
sVautom
p1196
g237
((lp1197
g317
atp1198
Rp1199
sVmatic
p1200
g237
((lp1201
g317
atp1202
Rp1203
sVautoma
p1204
g237
((lp1205
g317
atp1206
Rp1207
sVatic
p1208
g237
((lp1209
g317
atp1210
Rp1211
sVautomat
p1212
g237
((lp1213
g317
atp1214
Rp1215
sVtic
p1216
g237
((lp1217
g317
atp1218
Rp1219
sVautomati
p1220
g237
((lp1221
g317
atp1222
Rp1223
sVic
p1224
g237
((lp1225
g317
atp1226
Rp1227
sVmemoryrecord
p1228
g237
((lp1229
V1343fed591ea493eae8ad17bf215d925
p1230
atp1231
Rp1232
sVemoryrecord
p1233
g237
((lp1234
g317
atp1235
Rp1236
sVmoryrecord
p1237
g237
((lp1238
g317
atp1239
Rp1240
sVoryrecord
p1241
g237
((lp1242
g317
atp1243
Rp1244
sVryrecord
p1245
g237
((lp1246
g317
atp1247
Rp1248
sVyrecord
p1249
g237
((lp1250
g317
atp1251
Rp1252
sVmemoryr
p1253
g237
((lp1254
g317
atp1255
Rp1256
sVrecord
p1257
g237
((lp1258
g317
atp1259
Rp1260
sVmemoryre
p1261
g237
((lp1262
g317
atp1263
Rp1264
sVecord
p1265
g237
((lp1266
g317
atp1267
Rp1268
sVmemoryrec
p1269
g237
((lp1270
g317
atp1271
Rp1272
sVcord
p1273
g237
((lp1274
g317
atp1275
Rp1276
sVmemoryreco
p1277
g237
((lp1278
g317
atp1279
Rp1280
sVord
p1281
g237
((lp1282
g317
atp1283
Rp1284
sVmemoryrecor
p1285
g237
((lp1286
g317
atp1287
Rp1288
sVrd
p1289
g237
((lp1290
g317
atp1291
Rp1292
sVkey
p1293
g237
((lp1294
V1343fed591ea493eae8ad17bf215d925
p1295
atp1296
Rp1297
sVke
p1298
g237
((lp1299
g317
atp1300
Rp1301
sVey
p1302
g237
((lp1303
g317
atp1304
Rp1305
sVy
p1306
g237
((lp1307
g317
atp1308
Rp1309
sVscoring
p1310
g237
((lp1311
V1343fed591ea493eae8ad17bf215d925
p1312
atp1313
Rp1314
sVcoring
p1315
g237
((lp1316
g317
atp1317
Rp1318
sVoring
p1319
g237
((lp1320
g317
atp1321
Rp1322
sVscor
p1323
g237
((lp1324
g317
atp1325
Rp1326
sVring
p1327
g237
((lp1328
g317
atp1329
Rp1330
sVscori
p1331
g237
((lp1332
g317
atp1333
Rp1334
sVing
p1335
g237
((lp1336
g317
atp1337
Rp1338
sVscorin
p1339
g237
((lp1340
g317
atp1341
Rp1342
sVng
p1343
g237
((lp1344
g317
atp1345
Rp1346
sVshall
p1347
g237
((lp1348
V1343fed591ea493eae8ad17bf215d925
p1349
atp1350
Rp1351
sVsh
p1352
g237
((lp1353
g317
atp1354
Rp1355
sVhall
p1356
g237
((lp1357
g317
atp1358
Rp1359
sVsha
p1360
g237
((lp1361
g317
atp1362
Rp1363
sVshal
p1364
g237
((lp1365
g317
atp1366
Rp1367
sVcandidates
p1368
g237
((lp1369
V1343fed591ea493eae8ad17bf215d925
p1370
atp1371
Rp1372
sVca
p1373
g237
((lp1374
g317
atp1375
Rp1376
sVandidates
p1377
g237
((lp1378
g317
atp1379
Rp1380
sVcan
p1381
g237
((lp1382
g317
atp1383
Rp1384
sVndidates
p1385
g237
((lp1386
g317
atp1387
Rp1388
sVcand
p1389
g237
((lp1390
g317
atp1391
Rp1392
sVdidates
p1393
g237
((lp1394
g317
atp1395
Rp1396
sVcandi
p1397
g237
((lp1398
g317
atp1399
Rp1400
sVidates
p1401
g237
((lp1402
g317
atp1403
Rp1404
sVcandid
p1405
g237
((lp1406
g317
atp1407
Rp1408
sVdates
p1409
g237
((lp1410
g317
atp1411
Rp1412
sVcandida
p1413
g237
((lp1414
g317
atp1415
Rp1416
sVates
p1417
g237
((lp1418
g317
atp1419
Rp1420
sVcandidat
p1421
g237
((lp1422
g317
atp1423
Rp1424
sVtes
p1425
g237
((lp1426
g317
atp1427
Rp1428
sVcandidate
p1429
g237
((lp1430
g317
atp1431
Rp1432
sVes
p1433
g237
((lp1434
g317
atp1435
Rp1436
sVconstruction
p1437
g237
((lp1438
V1343fed591ea493eae8ad17bf215d925
p1439
atp1440
Rp1441
sVonstruction
p1442
g237
((lp1443
g317
atp1444
Rp1445
sVcon
p1446
g237
((lp1447
g317
atp1448
Rp1449
sVnstruction
p1450
g237
((lp1451
g317
atp1452
Rp1453
sVcons
p1454
g237
((lp1455
g317
atp1456
Rp1457
sVstruction
p1458
g237
((lp1459
g317
atp1460
Rp1461
sVconst
p1462
g237
((lp1463
g317
atp1464
Rp1465
sVtruction
p1466
g237
((lp1467
g317
atp1468
Rp1469
sVconstr
p1470
g237
((lp1471
g317
atp1472
Rp1473
sVruction
p1474
g237
((lp1475
g317
atp1476
Rp1477
sVconstru
p1478
g237
((lp1479
g317
atp1480
Rp1481
sVuction
p1482
g237
((lp1483
g317
atp1484
Rp1485
sVconstruc
p1486
g237
((lp1487
g317
atp1488
Rp1489
sVction
p1490
g237
((lp1491
g317
atp1492
Rp1493
sVconstruct
p1494
g237
((lp1495
g317
atp1496
Rp1497
sVtion
p1498
g237
((lp1499
g317
atp1500
Rp1501
sVconstructi
p1502
g237
((lp1503
g317
atp1504
Rp1505
sVion
p1506
g237
((lp1507
g317
atp1508
Rp1509
sVconstructio
p1510
g237
((lp1511
g317
atp1512
Rp1513
sVon
p1514
g237
((lp1515
g317
atp1516
Rp1517
sVn
p1518
g237
((lp1519
g317
atp1520
Rp1521
sVchunks
p1522
g237
((lp1523
V1343fed591ea493eae8ad17bf215d925
p1524
atp1525
Rp1526
sVhunks
p1527
g237
((lp1528
g317
atp1529
Rp1530
sVchu
p1531
g237
((lp1532
g317
atp1533
Rp1534
sVunks
p1535
g237
((lp1536
g317
atp1537
Rp1538
sVchun
p1539
g237
((lp1540
g317
atp1541
Rp1542
sVnks
p1543
g237
((lp1544
g317
atp1545
Rp1546
sVchunk
p1547
g237
((lp1548
g317
atp1549
Rp1550
sVks
p1551
g237
((lp1552
g317
atp1553
Rp1554
sVatomic
p1555
g237
((lp1556
V1343fed591ea493eae8ad17bf215d925
p1557
atp1558
Rp1559
sVat
p1560
g237
((lp1561
g317
atp1562
Rp1563
sVtomic
p1564
g237
((lp1565
g317
atp1566
Rp1567
sVato
p1568
g237
((lp1569
g317
atp1570
Rp1571
sVomic
p1572
g237
((lp1573
g317
atp1574
Rp1575
sVatom
p1576
g237
((lp1577
g317
atp1578
Rp1579
sVmic
p1580
g237
((lp1581
g317
atp1582
Rp1583
sVatomi
p1584
g237
((lp1585
g317
atp1586
Rp1587
sVstage
p1588
g237
((lp1589
V1343fed591ea493eae8ad17bf215d925
p1590
atp1591
Rp1592
sVtage
p1593
g237
((lp1594
g317
atp1595
Rp1596
sVsta
p1597
g237
((lp1598
g317
atp1599
Rp1600
sVage
p1601
g237
((lp1602
g317
atp1603
Rp1604
sVstag
p1605
g237
((lp1606
g317
atp1607
Rp1608
sVge
p1609
g237
((lp1610
g317
atp1611
Rp1612
sVworking-memory
p1613
g237
((lp1614
V1343fed591ea493eae8ad17bf215d925
p1615
atp1616
Rp1617
sVw
p1618
g237
((lp1619
g317
atp1620
Rp1621
sVwo
p1622
g237
((lp1623
g317
atp1624
Rp1625
sVorking-memory
p1626
g237
((lp1627
g317
atp1628
Rp1629
sVwor
p1630
g237
((lp1631
g317
atp1632
Rp1633
sVrking-memory
p1634
g237
((lp1635
g317
atp1636
Rp1637
sVwork
p1638
g237
((lp1639
g317
atp1640
Rp1641
sVking-memory
p1642
g237
((lp1643
g317
atp1644
Rp1645
sVworki
p1646
g237
((lp1647
g317
atp1648
Rp1649
sVing-memory
p1650
g237
((lp1651
g317
atp1652
Rp1653
sVworkin
p1654
g237
((lp1655
g317
atp1656
Rp1657
sVng-memory
p1658
g237
((lp1659
g317
atp1660
Rp1661
sVworking
p1662
g237
((lp1663
g317
atp1664
Rp1665
sVg-memory
p1666
g237
((lp1667
g317
atp1668
Rp1669
sVworking-
p1670
g237
((lp1671
g317
atp1672
Rp1673
sV-memory
p1674
g237
((lp1675
g317
atp1676
Rp1677
sVworking-m
p1678
g237
((lp1679
g317
atp1680
Rp1681
sVworking-me
p1682
g237
((lp1683
g317
atp1684
Rp1685
sVemory
p1686
g237
((lp1687
g317
atp1688
Rp1689
sVworking-mem
p1690
g237
((lp1691
g317
atp1692
Rp1693
sVmory
p1694
g237
((lp1695
g317
atp1696
Rp1697
sVworking-memo
p1698
g237
((lp1699
g317
atp1700
Rp1701
sVory
p1702
g237
((lp1703
g317
atp1704
Rp1705
sVworking-memor
p1706
g237
((lp1707
g317
atp1708
Rp1709
sVry
p1710
g237
((lp1711
g317
atp1712
Rp1713
sVhuman
p1714
g237
((lp1715
V1343fed591ea493eae8ad17bf215d925
p1716
atp1717
Rp1718
sVh
p1719
g237
((lp1720
g317
atp1721
Rp1722
sVhu
p1723
g237
((lp1724
g317
atp1725
Rp1726
sVuman
p1727
g237
((lp1728
g317
atp1729
Rp1730
sVhum
p1731
g237
((lp1732
g317
atp1733
Rp1734
sVman
p1735
g237
((lp1736
g317
atp1737
Rp1738
sVhuma
p1739
g237
((lp1740
g317
atp1741
Rp1742
sVan
p1743
g237
((lp1744
g317
atp1745
Rp1746
sVafter
p1747
g237
((lp1748
V1343fed591ea493eae8ad17bf215d925
p1749
atp1750
Rp1751
sVaf
p1752
g237
((lp1753
g317
atp1754
Rp1755
sVfter
p1756
g237
((lp1757
g317
atp1758
Rp1759
sVaft
p1760
g237
((lp1761
g317
atp1762
Rp1763
sVter
p1764
g237
((lp1765
g317
atp1766
Rp1767
sVafte
p1768
g237
((lp1769
g317
atp1770
Rp1771
sVis
p1772
g237
((lp1773
V1343fed591ea493eae8ad17bf215d925
p1774
atp1775
Rp1776
sVi
p1777
g237
((lp1778
g317
atp1779
Rp1780
sVapproval
p1781
g237
((lp1782
V1343fed591ea493eae8ad17bf215d925
p1783
atp1784
Rp1785
sVap
p1786
g237
((lp1787
g317
atp1788
Rp1789
sVpproval
p1790
g237
((lp1791
g317
atp1792
Rp1793
sVapp
p1794
g237
((lp1795
g317
atp1796
Rp1797
sVproval
p1798
g237
((lp1799
g317
atp1800
Rp1801
sVappr
p1802
g237
((lp1803
g317
atp1804
Rp1805
sVroval
p1806
g237
((lp1807
g317
atp1808
Rp1809
sVappro
p1810
g237
((lp1811
g317
atp1812
Rp1813
sVoval
p1814
g237
((lp1815
g317
atp1816
Rp1817
sVapprov
p1818
g237
((lp1819
g317
atp1820
Rp1821
sVval
p1822
g237
((lp1823
g317
atp1824
Rp1825
sVapprova
p1826
g237
((lp1827
g317
atp1828
Rp1829
sVal
p1830
g237
((lp1831
g317
atp1832
Rp1833
sVsemantic
p1834
g237
((lp1835
V1343fed591ea493eae8ad17bf215d925
p1836
atp1837
Rp1838
sVse
p1839
g237
((lp1840
g317
atp1841
Rp1842
sVemantic
p1843
g237
((lp1844
g317
atp1845
Rp1846
sVsem
p1847
g237
((lp1848
g317
atp1849
Rp1850
sVmantic
p1851
g237
((lp1852
g317
atp1853
Rp1854
sVsema
p1855
g237
((lp1856
g317
atp1857
Rp1858
sVantic
p1859
g237
((lp1860
g317
atp1861
Rp1862
sVseman
p1863
g237
((lp1864
g317
atp1865
Rp1866
sVntic
p1867
g237
((lp1868
g317
atp1869
Rp1870
sVsemant
p1871
g237
((lp1872
g317
atp1873
Rp1874
sVsemanti
p1875
g237
((lp1876
g317
atp1877
Rp1878
sVboundary
p1879
g237
((lp1880
V1343fed591ea493eae8ad17bf215d925
p1881
atp1882
Rp1883
sVbo
p1884
g237
((lp1885
g317
atp1886
Rp1887
sVoundary
p1888
g237
((lp1889
g317
atp1890
Rp1891
sVbou
p1892
g237
((lp1893
g317
atp1894
Rp1895
sVundary
p1896
g237
((lp1897
g317
atp1898
Rp1899
sVboun
p1900
g237
((lp1901
g317
atp1902
Rp1903
sVndary
p1904
g237
((lp1905
g317
atp1906
Rp1907
sVbound
p1908
g237
((lp1909
g317
atp1910
Rp1911
sVdary
p1912
g237
((lp1913
g317
atp1914
Rp1915
sVbounda
p1916
g237
((lp1917
g317
atp1918
Rp1919
sVary
p1920
g237
((lp1921
g317
atp1922
Rp1923
sVboundar
p1924
g237
((lp1925
g317
atp1926
Rp1927
sVcurrent-log
p1928
g237
((lp1929
V1343fed591ea493eae8ad17bf215d925
p1930
atp1931
Rp1932
sVcu
p1933
g237
((lp1934
g317
atp1935
Rp1936
sVurrent-log
p1937
g237
((lp1938
g317
atp1939
Rp1940
sVcur
p1941
g237
((lp1942
g317
atp1943
Rp1944
sVrrent-log
p1945
g237
((lp1946
g317
atp1947
Rp1948
sVcurr
p1949
g237
((lp1950
g317
atp1951
Rp1952
sVrent-log
p1953
g237
((lp1954
g317
atp1955
Rp1956
sVcurre
p1957
g237
((lp1958
g317
atp1959
Rp1960
sVent-log
p1961
g237
((lp1962
g317
atp1963
Rp1964
sVcurren
p1965
g237
((lp1966
g317
atp1967
Rp1968
sVnt-log
p1969
g237
((lp1970
g317
atp1971
Rp1972
sVcurrent
p1973
g237
((lp1974
g317
atp1975
Rp1976
sVt-log
p1977
g237
((lp1978
g317
atp1979
Rp1980
sVcurrent-
p1981
g237
((lp1982
g317
atp1983
Rp1984
sV-log
p1985
g237
((lp1986
g317
atp1987
Rp1988
sVcurrent-l
p1989
g237
((lp1990
g317
atp1991
Rp1992
sVlog
p1993
g237
((lp1994
g317
atp1995
Rp1996
sVcurrent-lo
p1997
g237
((lp1998
g317
atp1999
Rp2000
sVog
p2001
g237
((lp2002
g317
atp2003
Rp2004
sVretrieval
p2005
g237
((lp2006
V1343fed591ea493eae8ad17bf215d925
p2007
atp2008
Rp2009
sVetrieval
p2010
g237
((lp2011
g317
atp2012
Rp2013
sVret
p2014
g237
((lp2015
g317
atp2016
Rp2017
sVtrieval
p2018
g237
((lp2019
g317
atp2020
Rp2021
sVretr
p2022
g237
((lp2023
g317
atp2024
Rp2025
sVrieval
p2026
g237
((lp2027
g317
atp2028
Rp2029
sVretri
p2030
g237
((lp2031
g317
atp2032
Rp2033
sVieval
p2034
g237
((lp2035
g317
atp2036
Rp2037
sVretrie
p2038
g237
((lp2039
g317
atp2040
Rp2041
sVeval
p2042
g237
((lp2043
g317
atp2044
Rp2045
sVretriev
p2046
g237
((lp2047
g317
atp2048
Rp2049
sVretrieva
p2050
g237
((lp2051
g317
atp2052
Rp2053
sVlater
p2054
g237
((lp2055
V1343fed591ea493eae8ad17bf215d925
p2056
atp2057
Rp2058
sVla
p2059
g237
((lp2060
g317
atp2061
Rp2062
sVater
p2063
g237
((lp2064
g317
atp2065
Rp2066
sVlat
p2067
g237
((lp2068
g317
atp2069
Rp2070
sVlate
p2071
g237
((lp2072
g317
atp2073
Rp2074
sVthis
p2075
g237
((lp2076
V1343fed591ea493eae8ad17bf215d925
p2077
atp2078
Rp2079
sVth
p2080
g237
((lp2081
g317
atp2082
Rp2083
sVhis
p2084
g237
((lp2085
g317
atp2086
Rp2087
sVthi
p2088
g237
((lp2089
g317
atp2090
Rp2091
sVadded
p2092
g237
((lp2093
V1343fed591ea493eae8ad17bf215d925
p2094
atp2095
Rp2096
sVad
p2097
g237
((lp2098
g317
atp2099
Rp2100
sVdded
p2101
g237
((lp2102
g317
atp2103
Rp2104
sVadd
p2105
g237
((lp2106
g317
atp2107
Rp2108
sVded
p2109
g237
((lp2110
g317
atp2111
Rp2112
sVadde
p2113
g237
((lp2114
g317
atp2115
Rp2116
sVepisodic
p2117
g237
((lp2118
V1343fed591ea493eae8ad17bf215d925
p2119
atp2120
Rp2121
sVep
p2122
g237
((lp2123
g317
atp2124
Rp2125
sVpisodic
p2126
g237
((lp2127
g317
atp2128
Rp2129
sVepi
p2130
g237
((lp2131
g317
atp2132
Rp2133
sVisodic
p2134
g237
((lp2135
g317
atp2136
Rp2137
sVepis
p2138
g237
((lp2139
g317
atp2140
Rp2141
sVsodic
p2142
g237
((lp2143
g317
atp2144
Rp2145
sVepiso
p2146
g237
((lp2147
g317
atp2148
Rp2149
sVodic
p2150
g237
((lp2151
g317
atp2152
Rp2153
sVepisod
p2154
g237
((lp2155
g317
atp2156
Rp2157
sVdic
p2158
g237
((lp2159
g317
atp2160
Rp2161
sVepisodi
p2162
g237
((lp2163
g317
atp2164
Rp2165
sVbehavior
p2166
g237
((lp2167
V1343fed591ea493eae8ad17bf215d925
p2168
atp2169
Rp2170
sVehavior
p2171
g237
((lp2172
g317
atp2173
Rp2174
sVbeh
p2175
g237
((lp2176
g317
atp2177
Rp2178
sVhavior
p2179
g237
((lp2180
g317
atp2181
Rp2182
sVbeha
p2183
g237
((lp2184
g317
atp2185
Rp2186
sVavior
p2187
g237
((lp2188
g317
atp2189
Rp2190
sVbehav
p2191
g237
((lp2192
g317
atp2193
Rp2194
sVvior
p2195
g237
((lp2196
g317
atp2197
Rp2198
sVbehavi
p2199
g237
((lp2200
g317
atp2201
Rp2202
sVior
p2203
g237
((lp2204
g317
atp2205
Rp2206
sVbehavio
p2207
g237
((lp2208
g317
atp2209
Rp2210
ssVmap_nodes_by_mid
p2211
(dp2212
V7e2f4b3b90b14805be8429738a32ce59
p2213
(dp2214
VMID
p2215
V7e2f4b3b90b14805be8429738a32ce59
p2216
sg259
g262
ssV1343fed591ea493eae8ad17bf215d925
p2217
(dp2218
g2215
V1343fed591ea493eae8ad17bf215d925
p2219
sg281
g283
sssbsVng_source_content
p2220
Nsg323
I00
sV_tx_attrs
p2221
NsV_tx_peg_rule
p2222
Nsb.