ccopy_reg
_reconstructor
p0
(cstrictdoc.backend.sdoc.models.document
SDocDocument
p1
c__builtin__
object
p2
Ntp3
Rp4
(dp5
Vmid
p6
NsVtitle
p7
VMemory Merge and ActiveBrief Requirements
p8
sVconfig
p9
g0
(cstrictdoc.backend.sdoc.models.document_config
DocumentConfig
p10
g2
Ntp11
Rp12
(dp13
Vuid
p14
VGHOST-REQ-MEMORY-MERGE-ACTIVEBRIEF
p15
sVversion
p16
V0.1-dummy
p17
sVdate
p18
NsVclassification
p19
NsVrequirement_prefix
p20
NsVroot
p21
NsVenable_mid
p22
NsVrelation_field
p23
NsVmarkup
p24
VText
p25
sVauto_levels
p26
I01
sVlayout
p27
NsVview_style_tag
p28
V
p29
sVrequirement_style
p30
NsVnode_in_toc_tag
p31
VNODE_IN_TOC
p32
sVrequirement_in_toc
p33
VTrue
p34
sVdefault_view
p35
NsVcustom_metadata
p36
NsV_tx_position
p37
I60
sV_tx_position_end
p38
I181
sVparent
p39
g4
sVng_auto_levels_specified
p40
I01
sVng_line_start
p41
I3
sVng_col_start
p42
I1
sbsVview
p43
g0
(cstrictdoc.backend.sdoc.models.document_view
DocumentView
p44
g2
Ntp45
Rp46
(dp47
g39
g4
sVviews
p48
(lp49
g0
(cstrictdoc.backend.sdoc.models.document_view
DefaultViewElement
p50
g2
Ntp51
Rp52
(dp53
g39
g46
sVview_id
p54
VNOT_RELEVANT
p55
sVtags
p56
(lp57
sVhidden_tags
p58
(lp59
sVname
p60
Nsbasg41
I29
sg42
I756
sbsVgrammar
p61
g0
(cstrictdoc.backend.sdoc.models.document_grammar
DocumentGrammar
p62
g2
Ntp63
Rp64
(dp65
g39
g4
sVelements
p66
(lp67
g0
(cstrictdoc.backend.sdoc.models.grammar_element
GrammarElement
p68
g2
Ntp69
Rp70
(dp71
g39
g64
sVtag
p72
VSECTION
p73
sVproperty_is_composite
p74
I01
sVproperty_prefix
p75
NsVproperty_view_style
p76
NsVproperty_view_style_lower
p77
NsVfields
p78
(lp79
g0
(cstrictdoc.backend.sdoc.models.grammar_element
GrammarElementFieldString
p80
g2
Ntp81
Rp82
(dp83
g7
VUID
p84
sVhuman_title
p85
NsVgef_type
p86
VString
p87
sVrequired
p88
I00
sg6
g0
(cstrictdoc.helpers.mid
MID
p89
c__builtin__
unicode
p90
V2951bd7fae0e4e578922a0a9a3172f9c
p91
tp92
Rp93
sg39
Nsbag0
(g80
g2
Ntp94
Rp95
(dp96
g7
VLEVEL
p97
sg85
Nsg86
g87
sg88
I00
sg6
g0
(g89
g90
Va4395d3dc93b42d89df1a60cb75c1246
p98
tp99
Rp100
sg39
Nsbag0
(g80
g2
Ntp101
Rp102
(dp103
g7
VPREFIX
p104
sg85
Nsg86
g87
sg88
I00
sg6
g0
(g89
g90
Vf7c4d8d1ffee4928a24f19538e337336
p105
tp106
Rp107
sg39
Nsbag0
(g80
g2
Ntp108
Rp109
(dp110
g7
VTITLE
p111
sg85
Nsg86
g87
sg88
I01
sg6
g0
(g89
g90
V26861094c8864a44aa28fbcbc0b677f5
p112
tp113
Rp114
sg39
NsbasVrelations
p115
(lp116
sVfields_map
p117
ccollections
OrderedDict
p118
(tRp119
g84
g82
sg97
g95
sg104
g102
sg111
g109
ssVfield_titles
p120
(lp121
g84
ag97
ag104
ag111
asVcontent_field
p122
(g29
I-1
tp123
sV_multiline_field_index
p124
I4
sg6
g0
(g89
g90
Vcc726f5ea37445e9bd926fa1d3596ad9
p125
tp126
Rp127
sg41
Nsg42
Nsbag0
(g68
g2
Ntp128
Rp129
(dp130
g39
g64
sg72
VTEXT
p131
sg74
Nsg75
Nsg76
Nsg77
Nsg78
(lp132
g0
(g80
g2
Ntp133
Rp134
(dp135
g7
g84
sg85
Nsg86
g87
sg88
I00
sg6
g0
(g89
g90
V39d63f1d03c64cf88e51cee5855a2d53
p136
tp137
Rp138
sg39
Nsbag0
(g80
g2
Ntp139
Rp140
(dp141
g7
VSTATEMENT
p142
sg85
Nsg86
g87
sg88
I01
sg6
g0
(g89
g90
Vfcc1d75d5ae44425b92e8d6e0e50eb19
p143
tp144
Rp145
sg39
Nsbasg115
(lp146
sg117
g118
(tRp147
g84
g134
sg142
g140
ssg120
(lp148
g84
ag142
asg122
(g142
I1
tp149
sg124
I1
sg6
g0
(g89
g90
V76536b422a86439e81cb71a72f04cd71
p150
tp151
Rp152
sg41
Nsg42
Nsbag0
(g68
g2
Ntp153
Rp154
(dp155
g39
g64
sg72
VREQUIREMENT
p156
sg74
Nsg75
Nsg76
Nsg77
Nsg78
(lp157
g0
(g80
g2
Ntp158
Rp159
(dp160
g7
g84
sg85
Nsg86
g87
sg88
I00
sg6
g0
(g89
g90
Vb49a7eb58ed94a40a51ef0cb80177d88
p161
tp162
Rp163
sg39
Nsbag0
(g80
g2
Ntp164
Rp165
(dp166
g7
g97
sg85
Nsg86
g87
sg88
I00
sg6
g0
(g89
g90
Vac36fcb1518a4fd19e99dcbb8a09e556
p167
tp168
Rp169
sg39
Nsbag0
(g80
g2
Ntp170
Rp171
(dp172
g7
VSTATUS
p173
sg85
Nsg86
g87
sg88
I00
sg6
g0
(g89
g90
Vbff334a843e84cc5a8b10a5b0f9c6513
p174
tp175
Rp176
sg39
Nsbag0
(g80
g2
Ntp177
Rp178
(dp179
g7
VTAGS
p180
sg85
Nsg86
g87
sg88
I00
sg6
g0
(g89
g90
V63fec48c1628474b89e746561dc59a59
p181
tp182
Rp183
sg39
Nsbag0
(g80
g2
Ntp184
Rp185
(dp186
g7
g111
sg85
Nsg86
g87
sg88
I00
sg6
g0
(g89
g90
Vefca42bd4f83460cbb3961dd398e646a
p187
tp188
Rp189
sg39
Nsbag0
(g80
g2
Ntp190
Rp191
(dp192
g7
g142
sg85
Nsg86
g87
sg88
I00
sg6
g0
(g89
g90
Vf2922a28ac0d4d95acffb8a3d0d86514
p193
tp194
Rp195
sg39
Nsbag0
(g80
g2
Ntp196
Rp197
(dp198
g7
VRATIONALE
p199
sg85
Nsg86
g87
sg88
I00
sg6
g0
(g89
g90
Ve641c205d8c64ee38e28c041c7db0f14
p200
tp201
Rp202
sg39
Nsbag0
(g80
g2
Ntp203
Rp204
(dp205
g7
VCOMMENT
p206
sg85
Nsg86
g87
sg88
I00
sg6
g0
(g89
g90
Vc8a2391dbe2c4eb6b677a7f1a1eb7bd0
p207
tp208
Rp209
sg39
Nsbasg115
(lp210
g0
(cstrictdoc.backend.sdoc.models.grammar_element
GrammarElementRelationParent
p211
g2
Ntp212
Rp213
(dp214
g39
g154
sVrelation_type
p215
VParent
p216
sVrelation_role
p217
NsVreverse_relation_role
p218
Nsg6
g0
(g89
g90
Vef57ba0623e24df8970a5443d6ea839f
p219
tp220
Rp221
sbag0
(cstrictdoc.backend.sdoc.models.grammar_element
GrammarElementRelationFile
p222
g2
Ntp223
Rp224
(dp225
g39
g154
sg215
VFile
p226
sg217
Nsg218
Nsg6
g0
(g89
g90
V6c703d7b9ea1491fbeed12782a9fea61
p227
tp228
Rp229
sbasg117
g118
(tRp230
g84
g159
sg97
g165
sg173
g171
sg180
g178
sg111
g185
sg142
g191
sg199
g197
sg206
g204
ssg120
(lp231
g84
ag97
ag173
ag180
ag111
ag142
ag199
ag206
asg122
(g142
I5
tp232
sg124
I5
sg6
g0
(g89
g90
V0dc2b04c1d7743379bede5f613303fc8
p233
tp234
Rp235
sg41
Nsg42
NsbasVregistered_elements
p236
c__builtin__
set
p237
((lp238
g73
ag156
ag131
atp239
Rp240
sVelements_by_type
p241
(dp242
g73
g70
sg131
g129
sg156
g154
ssVimport_from_file
p243
NsVis_default
p244
I01
sg41
Nsg42
NsbsVsection_contents
p245
(lp246
g0
(cstrictdoc.backend.sdoc.models.node
SDocCompositeNode
p247
g2
Ntp248
Rp249
(dp250
Vnode_type
p251
VSECTION
p252
sg78
(lp253
g0
(cstrictdoc.backend.sdoc.models.node
SDocNodeField
p254
g2
Ntp255
Rp256
(dp257
Vfield_name
p258
VTITLE
p259
sVparts
p260
(lp261
VPlaceholder
p262
asVmultiline__
p263
g29
sg37
I194
sg38
I213
sg39
g249
sVmultiline
p264
I00
sVorigin
p265
cstrictdoc.backend.sdoc.models.node
SDocNodeFieldOrigin
p266
(VDOCUMENT
p267
tp268
Rp269
sbasg115
(lp270
sg245
(lp271
g0
(cstrictdoc.backend.sdoc.models.node
SDocNode
p272
g2
Ntp273
Rp274
(dp275
g251
VTEXT
p276
sg78
(lp277
g0
(g254
g2
Ntp278
Rp279
(dp280
g258
VSTATEMENT
p281
sg260
(lp282
VThis is a placeholder child requirements document for GHOST MemoryMerge and ActiveBrief behavior.\u000a\u000aPlanned scope:\u000a- runtime memory compression\u000a- MemoryMerge synthesis\u000a- ActiveBrief relation classification\u000a- contributor IDs\u000a- retrieval routing signals\u000a- comparison-context construction\u000a\u000aDetailed atomic requirements shall be added later after human approval.\u000a
p283
asg263
V>>>\u000a
p284
sg37
I221
sg38
I598
sg39
g274
sg264
I01
sg265
g269
sbasg115
(lp285
sg37
I214
sg38
I598
sg39
g249
sVis_composite
p286
I00
sg245
(lp287
sVhas_meta
p288
I00
sVfields_as_parsed
p289
g277
sVordered_fields_lookup
p290
g118
(tRp291
g281
(lp292
g279
assVng_document_reference
p293
g0
(cstrictdoc.backend.sdoc.document_reference
DocumentReference
p294
g2
Ntp295
Rp296
(dp297
V_document
p298
g4
sbsVng_including_document_reference
p299
g0
(g294
g2
Ntp300
Rp301
(dp302
g298
Nsbsg41
I13
sVng_line_end
p303
I27
sg42
I1
sVng_col_end
p304
I1
sVng_byte_start
p305
I214
sVng_byte_end
p306
I598
sVcontext
p307
g0
(cstrictdoc.backend.sdoc.models.node
SDocNodeContext
p308
g2
Ntp309
Rp310
(dp311
Vtitle_number_string
p312
g29
sVng_level
p313
I2
sbsVreserved_mid
p314
g0
(g89
g90
Vebec17ef0be34780b70d9aae6fe10b61
p315
tp316
Rp317
sVmid_permanent
p318
I00
sVng_resolved_custom_level
p319
VNone
p320
sVcustom_level
p321
NsVng_has_requirements
p322
I00
sVautogen
p323
I00
sbasVnode_type_close
p324
VSECTION
p325
sg37
I182
sg38
I612
sg39
g4
sg286
I01
sg288
I00
sg289
g253
sg290
g118
(tRp326
g259
(lp327
g256
assg293
g296
sg299
g301
sg41
I10
sg303
I29
sg42
I1
sg304
I1
sg305
I182
sg306
I612
sg307
g0
(g308
g2
Ntp328
Rp329
(dp330
g312
V1
p331
sg313
I1
sbsg314
g0
(g89
g90
V70aa4390bd554215b6cfd1347e92a42a
p332
tp333
Rp334
sg318
I00
sg319
Nsg321
Nsg322
I00
sg323
I00
sbasg37
I0
sg38
I612
sV_tx_filename
p335
V/home/rusbeh_ab/project/RAGstream/doc/01-Requirements/strictdoc/44_memory_merge_and_activebrief.sdoc
p336
sV_tx_metamodel
p337
NsV_tx_model_params
p338
NsV_tx_parser
p339
NsVreserved_title
p340
g8
sVis_bundle_document
p341
I00
sVfragments_from_files
p342
(lp343
sg322
I00
sVmeta
p344
Nsg314
g0
(g89
g90
V2c66b8fac25b42fea0aa620eff557ba7
p345
tp346
Rp347
sg318
I00
sVincluded_documents
p348
(lp349
sg307
g0
(g308
g2
Ntp350
Rp351
(dp352
g312
Nsg313
I0
sbsg299
g301
sVng_including_document_from_file
p353
NsVsearch_index
p354
g0
(cstrictdoc.backend.sdoc.models.document
SDocDocumentSearchIndex
p355
g2
Ntp356
Rp357
(dp358
Vdocument_index
p359
ccollections
defaultdict
p360
(g237
tp361
Rp362
Vplaceholder
p363
g237
((lp364
V70aa4390bd554215b6cfd1347e92a42a
p365
aVebec17ef0be34780b70d9aae6fe10b61
p366
atp367
Rp368
sVp
p369
g237
((lp370
g334
ag317
atp371
Rp372
sVpl
p373
g237
((lp374
g334
ag317
atp375
Rp376
sVlaceholder
p377
g237
((lp378
g334
ag317
atp379
Rp380
sVpla
p381
g237
((lp382
g334
ag317
atp383
Rp384
sVaceholder
p385
g237
((lp386
g334
ag317
atp387
Rp388
sVplac
p389
g237
((lp390
g334
ag317
atp391
Rp392
sVceholder
p393
g237
((lp394
g334
ag317
atp395
Rp396
sVplace
p397
g237
((lp398
g334
ag317
atp399
Rp400
sVeholder
p401
g237
((lp402
g334
ag317
atp403
Rp404
sVplaceh
p405
g237
((lp406
g334
ag317
atp407
Rp408
sVholder
p409
g237
((lp410
g334
ag317
atp411
Rp412
sVplaceho
p413
g237
((lp414
g334
ag317
atp415
Rp416
sVolder
p417
g237
((lp418
g334
ag317
atp419
Rp420
sVplacehol
p421
g237
((lp422
g334
ag317
atp423
Rp424
sVlder
p425
g237
((lp426
g334
ag317
atp427
Rp428
sVplacehold
p429
g237
((lp430
g334
ag317
atp431
Rp432
sVder
p433
g237
((lp434
g334
ag317
atp435
Rp436
sVplaceholde
p437
g237
((lp438
g334
ag317
atp439
Rp440
sVer
p441
g237
((lp442
g334
ag317
atp443
Rp444
sVr
p445
g237
((lp446
g334
ag317
atp447
Rp448
sVrequirements
p449
g237
((lp450
Vebec17ef0be34780b70d9aae6fe10b61
p451
atp452
Rp453
sVre
p454
g237
((lp455
g317
atp456
Rp457
sVequirements
p458
g237
((lp459
g317
atp460
Rp461
sVreq
p462
g237
((lp463
g317
atp464
Rp465
sVquirements
p466
g237
((lp467
g317
atp468
Rp469
sVrequ
p470
g237
((lp471
g317
atp472
Rp473
sVuirements
p474
g237
((lp475
g317
atp476
Rp477
sVrequi
p478
g237
((lp479
g317
atp480
Rp481
sVirements
p482
g237
((lp483
g317
atp484
Rp485
sVrequir
p486
g237
((lp487
g317
atp488
Rp489
sVrements
p490
g237
((lp491
g317
atp492
Rp493
sVrequire
p494
g237
((lp495
g317
atp496
Rp497
sVements
p498
g237
((lp499
g317
atp500
Rp501
sVrequirem
p502
g237
((lp503
g317
atp504
Rp505
sVments
p506
g237
((lp507
g317
atp508
Rp509
sVrequireme
p510
g237
((lp511
g317
atp512
Rp513
sVents
p514
g237
((lp515
g317
atp516
Rp517
sVrequiremen
p518
g237
((lp519
g317
atp520
Rp521
sVnts
p522
g237
((lp523
g317
atp524
Rp525
sVrequirement
p526
g237
((lp527
g317
atp528
Rp529
sVts
p530
g237
((lp531
g317
atp532
Rp533
sVs
p534
g237
((lp535
g317
atp536
Rp537
sVdocument
p538
g237
((lp539
Vebec17ef0be34780b70d9aae6fe10b61
p540
atp541
Rp542
sVd
p543
g237
((lp544
g317
atp545
Rp546
sVdo
p547
g237
((lp548
g317
atp549
Rp550
sVocument
p551
g237
((lp552
g317
atp553
Rp554
sVdoc
p555
g237
((lp556
g317
atp557
Rp558
sVcument
p559
g237
((lp560
g317
atp561
Rp562
sVdocu
p563
g237
((lp564
g317
atp565
Rp566
sVument
p567
g237
((lp568
g317
atp569
Rp570
sVdocum
p571
g237
((lp572
g317
atp573
Rp574
sVment
p575
g237
((lp576
g317
atp577
Rp578
sVdocume
p579
g237
((lp580
g317
atp581
Rp582
sVent
p583
g237
((lp584
g317
atp585
Rp586
sVdocumen
p587
g237
((lp588
g317
atp589
Rp590
sVnt
p591
g237
((lp592
g317
atp593
Rp594
sVt
p595
g237
((lp596
g317
atp597
Rp598
sVghost
p599
g237
((lp600
Vebec17ef0be34780b70d9aae6fe10b61
p601
atp602
Rp603
sVg
p604
g237
((lp605
g317
atp606
Rp607
sVgh
p608
g237
((lp609
g317
atp610
Rp611
sVhost
p612
g237
((lp613
g317
atp614
Rp615
sVgho
p616
g237
((lp617
g317
atp618
Rp619
sVost
p620
g237
((lp621
g317
atp622
Rp623
sVghos
p624
g237
((lp625
g317
atp626
Rp627
sVst
p628
g237
((lp629
g317
atp630
Rp631
sVchild
p632
g237
((lp633
Vebec17ef0be34780b70d9aae6fe10b61
p634
atp635
Rp636
sVc
p637
g237
((lp638
g317
atp639
Rp640
sVch
p641
g237
((lp642
g317
atp643
Rp644
sVhild
p645
g237
((lp646
g317
atp647
Rp648
sVchi
p649
g237
((lp650
g317
atp651
Rp652
sVild
p653
g237
((lp654
g317
atp655
Rp656
sVchil
p657
g237
((lp658
g317
atp659
Rp660
sVld
p661
g237
((lp662
g317
atp663
Rp664
sVdetailed
p665
g237
((lp666
Vebec17ef0be34780b70d9aae6fe10b61
p667
atp668
Rp669
sVde
p670
g237
((lp671
g317
atp672
Rp673
sVetailed
p674
g237
((lp675
g317
atp676
Rp677
sVdet
p678
g237
((lp679
g317
atp680
Rp681
sVtailed
p682
g237
((lp683
g317
atp684
Rp685
sVdeta
p686
g237
((lp687
g317
atp688
Rp689
sVailed
p690
g237
((lp691
g317
atp692
Rp693
sVdetai
p694
g237
((lp695
g317
atp696
Rp697
sViled
p698
g237
((lp699
g317
atp700
Rp701
sVdetail
p702
g237
((lp703
g317
atp704
Rp705
sVled
p706
g237
((lp707
g317
atp708
Rp709
sVdetaile
p710
g237
((lp711
g317
atp712
Rp713
sVed
p714
g237
((lp715
g317
atp716
Rp717
sVplanned
p718
g237
((lp719
Vebec17ef0be34780b70d9aae6fe10b61
p720
atp721
Rp722
sVlanned
p723
g237
((lp724
g317
atp725
Rp726
sVanned
p727
g237
((lp728
g317
atp729
Rp730
sVplan
p731
g237
((lp732
g317
atp733
Rp734
sVnned
p735
g237
((lp736
g317
atp737
Rp738
sVplann
p739
g237
((lp740
g317
atp741
Rp742
sVned
p743
g237
((lp744
g317
atp745
Rp746
sVplanne
p747
g237
((lp748
g317
atp749
Rp750
sVfor
p751
g237
((lp752
Vebec17ef0be34780b70d9aae6fe10b61
p753
atp754
Rp755
sVf
p756
g237
((lp757
g317
atp758
Rp759
sVfo
p760
g237
((lp761
g317
atp762
Rp763
sVor
p764
g237
((lp765
g317
atp766
Rp767
sVbe
p768
g237
((lp769
Vebec17ef0be34780b70d9aae6fe10b61
p770
atp771
Rp772
sVb
p773
g237
((lp774
g317
atp775
Rp776
sVe
p777
g237
((lp778
g317
atp779
Rp780
sVrelation
p781
g237
((lp782
Vebec17ef0be34780b70d9aae6fe10b61
p783
atp784
Rp785
sVelation
p786
g237
((lp787
g317
atp788
Rp789
sVrel
p790
g237
((lp791
g317
atp792
Rp793
sVlation
p794
g237
((lp795
g317
atp796
Rp797
sVrela
p798
g237
((lp799
g317
atp800
Rp801
sVation
p802
g237
((lp803
g317
atp804
Rp805
sVrelat
p806
g237
((lp807
g317
atp808
Rp809
sVtion
p810
g237
((lp811
g317
atp812
Rp813
sVrelati
p814
g237
((lp815
g317
atp816
Rp817
sVion
p818
g237
((lp819
g317
atp820
Rp821
sVrelatio
p822
g237
((lp823
g317
atp824
Rp825
sVon
p826
g237
((lp827
g317
atp828
Rp829
sVn
p830
g237
((lp831
g317
atp832
Rp833
sVscope
p834
g237
((lp835
Vebec17ef0be34780b70d9aae6fe10b61
p836
atp837
Rp838
sVsc
p839
g237
((lp840
g317
atp841
Rp842
sVcope
p843
g237
((lp844
g317
atp845
Rp846
sVsco
p847
g237
((lp848
g317
atp849
Rp850
sVope
p851
g237
((lp852
g317
atp853
Rp854
sVscop
p855
g237
((lp856
g317
atp857
Rp858
sVpe
p859
g237
((lp860
g317
atp861
Rp862
sVclassification
p863
g237
((lp864
Vebec17ef0be34780b70d9aae6fe10b61
p865
atp866
Rp867
sVcl
p868
g237
((lp869
g317
atp870
Rp871
sVlassification
p872
g237
((lp873
g317
atp874
Rp875
sVcla
p876
g237
((lp877
g317
atp878
Rp879
sVassification
p880
g237
((lp881
g317
atp882
Rp883
sVclas
p884
g237
((lp885
g317
atp886
Rp887
sVssification
p888
g237
((lp889
g317
atp890
Rp891
sVclass
p892
g237
((lp893
g317
atp894
Rp895
sVsification
p896
g237
((lp897
g317
atp898
Rp899
sVclassi
p900
g237
((lp901
g317
atp902
Rp903
sVification
p904
g237
((lp905
g317
atp906
Rp907
sVclassif
p908
g237
((lp909
g317
atp910
Rp911
sVfication
p912
g237
((lp913
g317
atp914
Rp915
sVclassifi
p916
g237
((lp917
g317
atp918
Rp919
sVication
p920
g237
((lp921
g317
atp922
Rp923
sVclassific
p924
g237
((lp925
g317
atp926
Rp927
sVcation
p928
g237
((lp929
g317
atp930
Rp931
sVclassifica
p932
g237
((lp933
g317
atp934
Rp935
sVclassificat
p936
g237
((lp937
g317
atp938
Rp939
sVclassificati
p940
g237
((lp941
g317
atp942
Rp943
sVclassificatio
p944
g237
((lp945
g317
atp946
Rp947
sVsignals
p948
g237
((lp949
Vebec17ef0be34780b70d9aae6fe10b61
p950
atp951
Rp952
sVsi
p953
g237
((lp954
g317
atp955
Rp956
sVignals
p957
g237
((lp958
g317
atp959
Rp960
sVsig
p961
g237
((lp962
g317
atp963
Rp964
sVgnals
p965
g237
((lp966
g317
atp967
Rp968
sVsign
p969
g237
((lp970
g317
atp971
Rp972
sVnals
p973
g237
((lp974
g317
atp975
Rp976
sVsigna
p977
g237
((lp978
g317
atp979
Rp980
sVals
p981
g237
((lp982
g317
atp983
Rp984
sVsignal
p985
g237
((lp986
g317
atp987
Rp988
sVls
p989
g237
((lp990
g317
atp991
Rp992
sVshall
p993
g237
((lp994
Vebec17ef0be34780b70d9aae6fe10b61
p995
atp996
Rp997
sVsh
p998
g237
((lp999
g317
atp1000
Rp1001
sVhall
p1002
g237
((lp1003
g317
atp1004
Rp1005
sVsha
p1006
g237
((lp1007
g317
atp1008
Rp1009
sVall
p1010
g237
((lp1011
g317
atp1012
Rp1013
sVshal
p1014
g237
((lp1015
g317
atp1016
Rp1017
sVll
p1018
g237
((lp1019
g317
atp1020
Rp1021
sVl
p1022
g237
((lp1023
g317
atp1024
Rp1025
sVsynthesis
p1026
g237
((lp1027
Vebec17ef0be34780b70d9aae6fe10b61
p1028
atp1029
Rp1030
sVsy
p1031
g237
((lp1032
g317
atp1033
Rp1034
sVynthesis
p1035
g237
((lp1036
g317
atp1037
Rp1038
sVsyn
p1039
g237
((lp1040
g317
atp1041
Rp1042
sVnthesis
p1043
g237
((lp1044
g317
atp1045
Rp1046
sVsynt
p1047
g237
((lp1048
g317
atp1049
Rp1050
sVthesis
p1051
g237
((lp1052
g317
atp1053
Rp1054
sVsynth
p1055
g237
((lp1056
g317
atp1057
Rp1058
sVhesis
p1059
g237
((lp1060
g317
atp1061
Rp1062
sVsynthe
p1063
g237
((lp1064
g317
atp1065
Rp1066
sVesis
p1067
g237
((lp1068
g317
atp1069
Rp1070
sVsynthes
p1071
g237
((lp1072
g317
atp1073
Rp1074
sVsis
p1075
g237
((lp1076
g317
atp1077
Rp1078
sVsynthesi
p1079
g237
((lp1080
g317
atp1081
Rp1082
sVis
p1083
g237
((lp1084
g317
atp1085
Rp1086
sVruntime
p1087
g237
((lp1088
Vebec17ef0be34780b70d9aae6fe10b61
p1089
atp1090
Rp1091
sVru
p1092
g237
((lp1093
g317
atp1094
Rp1095
sVuntime
p1096
g237
((lp1097
g317
atp1098
Rp1099
sVrun
p1100
g237
((lp1101
g317
atp1102
Rp1103
sVntime
p1104
g237
((lp1105
g317
atp1106
Rp1107
sVrunt
p1108
g237
((lp1109
g317
atp1110
Rp1111
sVtime
p1112
g237
((lp1113
g317
atp1114
Rp1115
sVrunti
p1116
g237
((lp1117
g317
atp1118
Rp1119
sVime
p1120
g237
((lp1121
g317
atp1122
Rp1123
sVruntim
p1124
g237
((lp1125
g317
atp1126
Rp1127
sVme
p1128
g237
((lp1129
g317
atp1130
Rp1131
sVconstruction
p1132
g237
((lp1133
Vebec17ef0be34780b70d9aae6fe10b61
p1134
atp1135
Rp1136
sVco
p1137
g237
((lp1138
g317
atp1139
Rp1140
sVonstruction
p1141
g237
((lp1142
g317
atp1143
Rp1144
sVcon
p1145
g237
((lp1146
g317
atp1147
Rp1148
sVnstruction
p1149
g237
((lp1150
g317
atp1151
Rp1152
sVcons
p1153
g237
((lp1154
g317
atp1155
Rp1156
sVstruction
p1157
g237
((lp1158
g317
atp1159
Rp1160
sVconst
p1161
g237
((lp1162
g317
atp1163
Rp1164
sVtruction
p1165
g237
((lp1166
g317
atp1167
Rp1168
sVconstr
p1169
g237
((lp1170
g317
atp1171
Rp1172
sVruction
p1173
g237
((lp1174
g317
atp1175
Rp1176
sVconstru
p1177
g237
((lp1178
g317
atp1179
Rp1180
sVuction
p1181
g237
((lp1182
g317
atp1183
Rp1184
sVconstruc
p1185
g237
((lp1186
g317
atp1187
Rp1188
sVction
p1189
g237
((lp1190
g317
atp1191
Rp1192
sVconstruct
p1193
g237
((lp1194
g317
atp1195
Rp1196
sVconstructi
p1197
g237
((lp1198
g317
atp1199
Rp1200
sVconstructio
p1201
g237
((lp1202
g317
atp1203
Rp1204
sVatomic
p1205
g237
((lp1206
Vebec17ef0be34780b70d9aae6fe10b61
p1207
atp1208
Rp1209
sVa
p1210
g237
((lp1211
g317
atp1212
Rp1213
sVat
p1214
g237
((lp1215
g317
atp1216
Rp1217
sVtomic
p1218
g237
((lp1219
g317
atp1220
Rp1221
sVato
p1222
g237
((lp1223
g317
atp1224
Rp1225
sVomic
p1226
g237
((lp1227
g317
atp1228
Rp1229
sVatom
p1230
g237
((lp1231
g317
atp1232
Rp1233
sVmic
p1234
g237
((lp1235
g317
atp1236
Rp1237
sVatomi
p1238
g237
((lp1239
g317
atp1240
Rp1241
sVic
p1242
g237
((lp1243
g317
atp1244
Rp1245
sVhuman
p1246
g237
((lp1247
Vebec17ef0be34780b70d9aae6fe10b61
p1248
atp1249
Rp1250
sVh
p1251
g237
((lp1252
g317
atp1253
Rp1254
sVhu
p1255
g237
((lp1256
g317
atp1257
Rp1258
sVuman
p1259
g237
((lp1260
g317
atp1261
Rp1262
sVhum
p1263
g237
((lp1264
g317
atp1265
Rp1266
sVman
p1267
g237
((lp1268
g317
atp1269
Rp1270
sVhuma
p1271
g237
((lp1272
g317
atp1273
Rp1274
sVan
p1275
g237
((lp1276
g317
atp1277
Rp1278
sVcontributor
p1279
g237
((lp1280
Vebec17ef0be34780b70d9aae6fe10b61
p1281
atp1282
Rp1283
sVontributor
p1284
g237
((lp1285
g317
atp1286
Rp1287
sVntributor
p1288
g237
((lp1289
g317
atp1290
Rp1291
sVcont
p1292
g237
((lp1293
g317
atp1294
Rp1295
sVtributor
p1296
g237
((lp1297
g317
atp1298
Rp1299
sVcontr
p1300
g237
((lp1301
g317
atp1302
Rp1303
sVributor
p1304
g237
((lp1305
g317
atp1306
Rp1307
sVcontri
p1308
g237
((lp1309
g317
atp1310
Rp1311
sVibutor
p1312
g237
((lp1313
g317
atp1314
Rp1315
sVcontrib
p1316
g237
((lp1317
g317
atp1318
Rp1319
sVbutor
p1320
g237
((lp1321
g317
atp1322
Rp1323
sVcontribu
p1324
g237
((lp1325
g317
atp1326
Rp1327
sVutor
p1328
g237
((lp1329
g317
atp1330
Rp1331
sVcontribut
p1332
g237
((lp1333
g317
atp1334
Rp1335
sVtor
p1336
g237
((lp1337
g317
atp1338
Rp1339
sVcontributo
p1340
g237
((lp1341
g317
atp1342
Rp1343
sVafter
p1344
g237
((lp1345
Vebec17ef0be34780b70d9aae6fe10b61
p1346
atp1347
Rp1348
sVaf
p1349
g237
((lp1350
g317
atp1351
Rp1352
sVfter
p1353
g237
((lp1354
g317
atp1355
Rp1356
sVaft
p1357
g237
((lp1358
g317
atp1359
Rp1360
sVter
p1361
g237
((lp1362
g317
atp1363
Rp1364
sVafte
p1365
g237
((lp1366
g317
atp1367
Rp1368
sVand
p1369
g237
((lp1370
Vebec17ef0be34780b70d9aae6fe10b61
p1371
atp1372
Rp1373
sVnd
p1374
g237
((lp1375
g317
atp1376
Rp1377
sVi
p1378
g237
((lp1379
g317
atp1380
Rp1381
sVapproval
p1382
g237
((lp1383
Vebec17ef0be34780b70d9aae6fe10b61
p1384
atp1385
Rp1386
sVap
p1387
g237
((lp1388
g317
atp1389
Rp1390
sVpproval
p1391
g237
((lp1392
g317
atp1393
Rp1394
sVapp
p1395
g237
((lp1396
g317
atp1397
Rp1398
sVproval
p1399
g237
((lp1400
g317
atp1401
Rp1402
sVappr
p1403
g237
((lp1404
g317
atp1405
Rp1406
sVroval
p1407
g237
((lp1408
g317
atp1409
Rp1410
sVappro
p1411
g237
((lp1412
g317
atp1413
Rp1414
sVoval
p1415
g237
((lp1416
g317
atp1417
Rp1418
sVapprov
p1419
g237
((lp1420
g317
atp1421
Rp1422
sVval
p1423
g237
((lp1424
g317
atp1425
Rp1426
sVapprova
p1427
g237
((lp1428
g317
atp1429
Rp1430
sVal
p1431
g237
((lp1432
g317
atp1433
Rp1434
sVids
p1435
g237
((lp1436
Vebec17ef0be34780b70d9aae6fe10b61
p1437
atp1438
Rp1439
sVid
p1440
g237
((lp1441
g317
atp1442
Rp1443
sVds
p1444
g237
((lp1445
g317
atp1446
Rp1447
sVrouting
p1448
g237
((lp1449
Vebec17ef0be34780b70d9aae6fe10b61
p1450
atp1451
Rp1452
sVro
p1453
g237
((lp1454
g317
atp1455
Rp1456
sVouting
p1457
g237
((lp1458
g317
atp1459
Rp1460
sVrou
p1461
g237
((lp1462
g317
atp1463
Rp1464
sVuting
p1465
g237
((lp1466
g317
atp1467
Rp1468
sVrout
p1469
g237
((lp1470
g317
atp1471
Rp1472
sVting
p1473
g237
((lp1474
g317
atp1475
Rp1476
sVrouti
p1477
g237
((lp1478
g317
atp1479
Rp1480
sVing
p1481
g237
((lp1482
g317
atp1483
Rp1484
sVroutin
p1485
g237
((lp1486
g317
atp1487
Rp1488
sVng
p1489
g237
((lp1490
g317
atp1491
Rp1492
sVretrieval
p1493
g237
((lp1494
Vebec17ef0be34780b70d9aae6fe10b61
p1495
atp1496
Rp1497
sVetrieval
p1498
g237
((lp1499
g317
atp1500
Rp1501
sVret
p1502
g237
((lp1503
g317
atp1504
Rp1505
sVtrieval
p1506
g237
((lp1507
g317
atp1508
Rp1509
sVretr
p1510
g237
((lp1511
g317
atp1512
Rp1513
sVrieval
p1514
g237
((lp1515
g317
atp1516
Rp1517
sVretri
p1518
g237
((lp1519
g317
atp1520
Rp1521
sVieval
p1522
g237
((lp1523
g317
atp1524
Rp1525
sVretrie
p1526
g237
((lp1527
g317
atp1528
Rp1529
sVeval
p1530
g237
((lp1531
g317
atp1532
Rp1533
sVretriev
p1534
g237
((lp1535
g317
atp1536
Rp1537
sVretrieva
p1538
g237
((lp1539
g317
atp1540
Rp1541
sVcompression
p1542
g237
((lp1543
Vebec17ef0be34780b70d9aae6fe10b61
p1544
atp1545
Rp1546
sVompression
p1547
g237
((lp1548
g317
atp1549
Rp1550
sVcom
p1551
g237
((lp1552
g317
atp1553
Rp1554
sVmpression
p1555
g237
((lp1556
g317
atp1557
Rp1558
sVcomp
p1559
g237
((lp1560
g317
atp1561
Rp1562
sVpression
p1563
g237
((lp1564
g317
atp1565
Rp1566
sVcompr
p1567
g237
((lp1568
g317
atp1569
Rp1570
sVression
p1571
g237
((lp1572
g317
atp1573
Rp1574
sVcompre
p1575
g237
((lp1576
g317
atp1577
Rp1578
sVession
p1579
g237
((lp1580
g317
atp1581
Rp1582
sVcompres
p1583
g237
((lp1584
g317
atp1585
Rp1586
sVssion
p1587
g237
((lp1588
g317
atp1589
Rp1590
sVcompress
p1591
g237
((lp1592
g317
atp1593
Rp1594
sVsion
p1595
g237
((lp1596
g317
atp1597
Rp1598
sVcompressi
p1599
g237
((lp1600
g317
atp1601
Rp1602
sVcompressio
p1603
g237
((lp1604
g317
atp1605
Rp1606
sVthis
p1607
g237
((lp1608
Vebec17ef0be34780b70d9aae6fe10b61
p1609
atp1610
Rp1611
sVth
p1612
g237
((lp1613
g317
atp1614
Rp1615
sVhis
p1616
g237
((lp1617
g317
atp1618
Rp1619
sVthi
p1620
g237
((lp1621
g317
atp1622
Rp1623
sVmemory
p1624
g237
((lp1625
Vebec17ef0be34780b70d9aae6fe10b61
p1626
atp1627
Rp1628
sVm
p1629
g237
((lp1630
g317
atp1631
Rp1632
sVemory
p1633
g237
((lp1634
g317
atp1635
Rp1636
sVmem
p1637
g237
((lp1638
g317
atp1639
Rp1640
sVmory
p1641
g237
((lp1642
g317
atp1643
Rp1644
sVmemo
p1645
g237
((lp1646
g317
atp1647
Rp1648
sVory
p1649
g237
((lp1650
g317
atp1651
Rp1652
sVmemor
p1653
g237
((lp1654
g317
atp1655
Rp1656
sVry
p1657
g237
((lp1658
g317
atp1659
Rp1660
sVy
p1661
g237
((lp1662
g317
atp1663
Rp1664
sVadded
p1665
g237
((lp1666
Vebec17ef0be34780b70d9aae6fe10b61
p1667
atp1668
Rp1669
sVad
p1670
g237
((lp1671
g317
atp1672
Rp1673
sVdded
p1674
g237
((lp1675
g317
atp1676
Rp1677
sVadd
p1678
g237
((lp1679
g317
atp1680
Rp1681
sVded
p1682
g237
((lp1683
g317
atp1684
Rp1685
sVadde
p1686
g237
((lp1687
g317
atp1688
Rp1689
sVlater
p1690
g237
((lp1691
Vebec17ef0be34780b70d9aae6fe10b61
p1692
atp1693
Rp1694
sVla
p1695
g237
((lp1696
g317
atp1697
Rp1698
sVater
p1699
g237
((lp1700
g317
atp1701
Rp1702
sVlat
p1703
g237
((lp1704
g317
atp1705
Rp1706
sVlate
p1707
g237
((lp1708
g317
atp1709
Rp1710
sVbehavior
p1711
g237
((lp1712
Vebec17ef0be34780b70d9aae6fe10b61
p1713
atp1714
Rp1715
sVehavior
p1716
g237
((lp1717
g317
atp1718
Rp1719
sVbeh
p1720
g237
((lp1721
g317
atp1722
Rp1723
sVhavior
p1724
g237
((lp1725
g317
atp1726
Rp1727
sVbeha
p1728
g237
((lp1729
g317
atp1730
Rp1731
sVavior
p1732
g237
((lp1733
g317
atp1734
Rp1735
sVbehav
p1736
g237
((lp1737
g317
atp1738
Rp1739
sVvior
p1740
g237
((lp1741
g317
atp1742
Rp1743
sVbehavi
p1744
g237
((lp1745
g317
atp1746
Rp1747
sVior
p1748
g237
((lp1749
g317
atp1750
Rp1751
sVbehavio
p1752
g237
((lp1753
g317
atp1754
Rp1755
sVcomparison-context
p1756
g237
((lp1757
Vebec17ef0be34780b70d9aae6fe10b61
p1758
atp1759
Rp1760
sVomparison-context
p1761
g237
((lp1762
g317
atp1763
Rp1764
sVmparison-context
p1765
g237
((lp1766
g317
atp1767
Rp1768
sVparison-context
p1769
g237
((lp1770
g317
atp1771
Rp1772
sVcompa
p1773
g237
((lp1774
g317
atp1775
Rp1776
sVarison-context
p1777
g237
((lp1778
g317
atp1779
Rp1780
sVcompar
p1781
g237
((lp1782
g317
atp1783
Rp1784
sVrison-context
p1785
g237
((lp1786
g317
atp1787
Rp1788
sVcompari
p1789
g237
((lp1790
g317
atp1791
Rp1792
sVison-context
p1793
g237
((lp1794
g317
atp1795
Rp1796
sVcomparis
p1797
g237
((lp1798
g317
atp1799
Rp1800
sVson-context
p1801
g237
((lp1802
g317
atp1803
Rp1804
sVcompariso
p1805
g237
((lp1806
g317
atp1807
Rp1808
sVon-context
p1809
g237
((lp1810
g317
atp1811
Rp1812
sVcomparison
p1813
g237
((lp1814
g317
atp1815
Rp1816
sVn-context
p1817
g237
((lp1818
g317
atp1819
Rp1820
sVcomparison-
p1821
g237
((lp1822
g317
atp1823
Rp1824
sV-context
p1825
g237
((lp1826
g317
atp1827
Rp1828
sVcomparison-c
p1829
g237
((lp1830
g317
atp1831
Rp1832
sVcontext
p1833
g237
((lp1834
g317
atp1835
Rp1836
sVcomparison-co
p1837
g237
((lp1838
g317
atp1839
Rp1840
sVontext
p1841
g237
((lp1842
g317
atp1843
Rp1844
sVcomparison-con
p1845
g237
((lp1846
g317
atp1847
Rp1848
sVntext
p1849
g237
((lp1850
g317
atp1851
Rp1852
sVcomparison-cont
p1853
g237
((lp1854
g317
atp1855
Rp1856
sVtext
p1857
g237
((lp1858
g317
atp1859
Rp1860
sVcomparison-conte
p1861
g237
((lp1862
g317
atp1863
Rp1864
sVext
p1865
g237
((lp1866
g317
atp1867
Rp1868
sVcomparison-contex
p1869
g237
((lp1870
g317
atp1871
Rp1872
sVxt
p1873
g237
((lp1874
g317
atp1875
Rp1876
sVmemorymerge
p1877
g237
((lp1878
Vebec17ef0be34780b70d9aae6fe10b61
p1879
atp1880
Rp1881
sVemorymerge
p1882
g237
((lp1883
g317
atp1884
Rp1885
sVmorymerge
p1886
g237
((lp1887
g317
atp1888
Rp1889
sVorymerge
p1890
g237
((lp1891
g317
atp1892
Rp1893
sVrymerge
p1894
g237
((lp1895
g317
atp1896
Rp1897
sVymerge
p1898
g237
((lp1899
g317
atp1900
Rp1901
sVmemorym
p1902
g237
((lp1903
g317
atp1904
Rp1905
sVmerge
p1906
g237
((lp1907
g317
atp1908
Rp1909
sVmemoryme
p1910
g237
((lp1911
g317
atp1912
Rp1913
sVerge
p1914
g237
((lp1915
g317
atp1916
Rp1917
sVmemorymer
p1918
g237
((lp1919
g317
atp1920
Rp1921
sVrge
p1922
g237
((lp1923
g317
atp1924
Rp1925
sVmemorymerg
p1926
g237
((lp1927
g317
atp1928
Rp1929
sVge
p1930
g237
((lp1931
g317
atp1932
Rp1933
sVactivebrief
p1934
g237
((lp1935
Vebec17ef0be34780b70d9aae6fe10b61
p1936
atp1937
Rp1938
sVac
p1939
g237
((lp1940
g317
atp1941
Rp1942
sVctivebrief
p1943
g237
((lp1944
g317
atp1945
Rp1946
sVact
p1947
g237
((lp1948
g317
atp1949
Rp1950
sVtivebrief
p1951
g237
((lp1952
g317
atp1953
Rp1954
sVacti
p1955
g237
((lp1956
g317
atp1957
Rp1958
sVivebrief
p1959
g237
((lp1960
g317
atp1961
Rp1962
sVactiv
p1963
g237
((lp1964
g317
atp1965
Rp1966
sVvebrief
p1967
g237
((lp1968
g317
atp1969
Rp1970
sVactive
p1971
g237
((lp1972
g317
atp1973
Rp1974
sVebrief
p1975
g237
((lp1976
g317
atp1977
Rp1978
sVactiveb
p1979
g237
((lp1980
g317
atp1981
Rp1982
sVbrief
p1983
g237
((lp1984
g317
atp1985
Rp1986
sVactivebr
p1987
g237
((lp1988
g317
atp1989
Rp1990
sVrief
p1991
g237
((lp1992
g317
atp1993
Rp1994
sVactivebri
p1995
g237
((lp1996
g317
atp1997
Rp1998
sVief
p1999
g237
((lp2000
g317
atp2001
Rp2002
sVactivebrie
p2003
g237
((lp2004
g317
atp2005
Rp2006
sVef
p2007
g237
((lp2008
g317
atp2009
Rp2010
ssVmap_nodes_by_mid
p2011
(dp2012
V70aa4390bd554215b6cfd1347e92a42a
p2013
(dp2014
VMID
p2015
V70aa4390bd554215b6cfd1347e92a42a
p2016
sg259
g262
ssVebec17ef0be34780b70d9aae6fe10b61
p2017
(dp2018
g2015
Vebec17ef0be34780b70d9aae6fe10b61
p2019
sg281
g283
sssbsVng_source_content
p2020
Nsg323
I00
sV_tx_attrs
p2021
NsV_tx_peg_rule
p2022
Nsb.