ccopy_reg
_reconstructor
p0
(cstrictdoc.backend.sdoc.models.document
SDocDocument
p1
c__builtin__
object
p2
Ntp3
Rp4
(dp5
Vmid
p6
NsVtitle
p7
VMemory Files and Import Requirements
p8
sVconfig
p9
g0
(cstrictdoc.backend.sdoc.models.document_config
DocumentConfig
p10
g2
Ntp11
Rp12
(dp13
Vuid
p14
VGHOST-REQ-MEMORY-FILES-IMPORT
p15
sVversion
p16
V0.1-dummy
p17
sVdate
p18
NsVclassification
p19
NsVrequirement_prefix
p20
NsVroot
p21
NsVenable_mid
p22
NsVrelation_field
p23
NsVmarkup
p24
VText
p25
sVauto_levels
p26
I01
sVlayout
p27
NsVview_style_tag
p28
V
p29
sVrequirement_style
p30
NsVnode_in_toc_tag
p31
VNODE_IN_TOC
p32
sVrequirement_in_toc
p33
VTrue
p34
sVdefault_view
p35
NsVcustom_metadata
p36
NsV_tx_position
p37
I55
sV_tx_position_end
p38
I171
sVparent
p39
g4
sVng_auto_levels_specified
p40
I01
sVng_line_start
p41
I3
sVng_col_start
p42
I1
sbsVview
p43
g0
(cstrictdoc.backend.sdoc.models.document_view
DocumentView
p44
g2
Ntp45
Rp46
(dp47
g39
g4
sVviews
p48
(lp49
g0
(cstrictdoc.backend.sdoc.models.document_view
DefaultViewElement
p50
g2
Ntp51
Rp52
(dp53
g39
g46
sVview_id
p54
VNOT_RELEVANT
p55
sVtags
p56
(lp57
sVhidden_tags
p58
(lp59
sVname
p60
Nsbasg41
I28
sg42
I796
sbsVgrammar
p61
g0
(cstrictdoc.backend.sdoc.models.document_grammar
DocumentGrammar
p62
g2
Ntp63
Rp64
(dp65
g39
g4
sVelements
p66
(lp67
g0
(cstrictdoc.backend.sdoc.models.grammar_element
GrammarElement
p68
g2
Ntp69
Rp70
(dp71
g39
g64
sVtag
p72
VSECTION
p73
sVproperty_is_composite
p74
I01
sVproperty_prefix
p75
NsVproperty_view_style
p76
NsVproperty_view_style_lower
p77
NsVfields
p78
(lp79
g0
(cstrictdoc.backend.sdoc.models.grammar_element
GrammarElementFieldString
p80
g2
Ntp81
Rp82
(dp83
g7
VUID
p84
sVhuman_title
p85
NsVgef_type
p86
VString
p87
sVrequired
p88
I00
sg6
g0
(cstrictdoc.helpers.mid
MID
p89
c__builtin__
unicode
p90
Vd3a64905894a4ba38d865e43e0b40166
p91
tp92
Rp93
sg39
Nsbag0
(g80
g2
Ntp94
Rp95
(dp96
g7
VLEVEL
p97
sg85
Nsg86
g87
sg88
I00
sg6
g0
(g89
g90
Vc9f145389e844719a3029173bebb180f
p98
tp99
Rp100
sg39
Nsbag0
(g80
g2
Ntp101
Rp102
(dp103
g7
VPREFIX
p104
sg85
Nsg86
g87
sg88
I00
sg6
g0
(g89
g90
V0b9b3c81e02d450dbd9738a5058f48d6
p105
tp106
Rp107
sg39
Nsbag0
(g80
g2
Ntp108
Rp109
(dp110
g7
VTITLE
p111
sg85
Nsg86
g87
sg88
I01
sg6
g0
(g89
g90
V6ebbf1c73b704560ae23c712993d13e4
p112
tp113
Rp114
sg39
NsbasVrelations
p115
(lp116
sVfields_map
p117
ccollections
OrderedDict
p118
(tRp119
g84
g82
sg97
g95
sg104
g102
sg111
g109
ssVfield_titles
p120
(lp121
g84
ag97
ag104
ag111
asVcontent_field
p122
(g29
I-1
tp123
sV_multiline_field_index
p124
I4
sg6
g0
(g89
g90
Vebd4b7813dba4b2eb9753b56751a76df
p125
tp126
Rp127
sg41
Nsg42
Nsbag0
(g68
g2
Ntp128
Rp129
(dp130
g39
g64
sg72
VTEXT
p131
sg74
Nsg75
Nsg76
Nsg77
Nsg78
(lp132
g0
(g80
g2
Ntp133
Rp134
(dp135
g7
g84
sg85
Nsg86
g87
sg88
I00
sg6
g0
(g89
g90
V90bd33c834f043ed8ee3008e011fa95b
p136
tp137
Rp138
sg39
Nsbag0
(g80
g2
Ntp139
Rp140
(dp141
g7
VSTATEMENT
p142
sg85
Nsg86
g87
sg88
I01
sg6
g0
(g89
g90
Vdf72713bbfe44131b32dbee1c695664b
p143
tp144
Rp145
sg39
Nsbasg115
(lp146
sg117
g118
(tRp147
g84
g134
sg142
g140
ssg120
(lp148
g84
ag142
asg122
(g142
I1
tp149
sg124
I1
sg6
g0
(g89
g90
Vfc0564c9b56d47219c8c0a2b50085279
p150
tp151
Rp152
sg41
Nsg42
Nsbag0
(g68
g2
Ntp153
Rp154
(dp155
g39
g64
sg72
VREQUIREMENT
p156
sg74
Nsg75
Nsg76
Nsg77
Nsg78
(lp157
g0
(g80
g2
Ntp158
Rp159
(dp160
g7
g84
sg85
Nsg86
g87
sg88
I00
sg6
g0
(g89
g90
V4c44d71fb1964c09ab4867198823444a
p161
tp162
Rp163
sg39
Nsbag0
(g80
g2
Ntp164
Rp165
(dp166
g7
g97
sg85
Nsg86
g87
sg88
I00
sg6
g0
(g89
g90
Vf36a31975bfd49d49984d50b9781b672
p167
tp168
Rp169
sg39
Nsbag0
(g80
g2
Ntp170
Rp171
(dp172
g7
VSTATUS
p173
sg85
Nsg86
g87
sg88
I00
sg6
g0
(g89
g90
Vf6ff1ecbf744479a99996ce5d481f0d4
p174
tp175
Rp176
sg39
Nsbag0
(g80
g2
Ntp177
Rp178
(dp179
g7
VTAGS
p180
sg85
Nsg86
g87
sg88
I00
sg6
g0
(g89
g90
Vbc05ff4da6cc45a2a1fdc1b3c224cefd
p181
tp182
Rp183
sg39
Nsbag0
(g80
g2
Ntp184
Rp185
(dp186
g7
g111
sg85
Nsg86
g87
sg88
I00
sg6
g0
(g89
g90
V80ab9c6e652443ca829793530f2288c4
p187
tp188
Rp189
sg39
Nsbag0
(g80
g2
Ntp190
Rp191
(dp192
g7
g142
sg85
Nsg86
g87
sg88
I00
sg6
g0
(g89
g90
V758a2f07a9254c5cbda47f3a4535fa91
p193
tp194
Rp195
sg39
Nsbag0
(g80
g2
Ntp196
Rp197
(dp198
g7
VRATIONALE
p199
sg85
Nsg86
g87
sg88
I00
sg6
g0
(g89
g90
V9c3e5662d25d448b8923e2ea4e54bd58
p200
tp201
Rp202
sg39
Nsbag0
(g80
g2
Ntp203
Rp204
(dp205
g7
VCOMMENT
p206
sg85
Nsg86
g87
sg88
I00
sg6
g0
(g89
g90
Vd2545ee5a3d4466d91b9295e4d2485f5
p207
tp208
Rp209
sg39
Nsbasg115
(lp210
g0
(cstrictdoc.backend.sdoc.models.grammar_element
GrammarElementRelationParent
p211
g2
Ntp212
Rp213
(dp214
g39
g154
sVrelation_type
p215
VParent
p216
sVrelation_role
p217
NsVreverse_relation_role
p218
Nsg6
g0
(g89
g90
V013a788ae69b420daf7c9afdf62172b0
p219
tp220
Rp221
sbag0
(cstrictdoc.backend.sdoc.models.grammar_element
GrammarElementRelationFile
p222
g2
Ntp223
Rp224
(dp225
g39
g154
sg215
VFile
p226
sg217
Nsg218
Nsg6
g0
(g89
g90
Va974df099a1a48e7a9e7ea8522bbf653
p227
tp228
Rp229
sbasg117
g118
(tRp230
g84
g159
sg97
g165
sg173
g171
sg180
g178
sg111
g185
sg142
g191
sg199
g197
sg206
g204
ssg120
(lp231
g84
ag97
ag173
ag180
ag111
ag142
ag199
ag206
asg122
(g142
I5
tp232
sg124
I5
sg6
g0
(g89
g90
V101a3c22a66b46e688d9955eaae73033
p233
tp234
Rp235
sg41
Nsg42
NsbasVregistered_elements
p236
c__builtin__
set
p237
((lp238
g73
ag156
ag131
atp239
Rp240
sVelements_by_type
p241
(dp242
g73
g70
sg131
g129
sg156
g154
ssVimport_from_file
p243
NsVis_default
p244
I01
sg41
Nsg42
NsbsVsection_contents
p245
(lp246
g0
(cstrictdoc.backend.sdoc.models.node
SDocCompositeNode
p247
g2
Ntp248
Rp249
(dp250
Vnode_type
p251
VSECTION
p252
sg78
(lp253
g0
(cstrictdoc.backend.sdoc.models.node
SDocNodeField
p254
g2
Ntp255
Rp256
(dp257
Vfield_name
p258
VTITLE
p259
sVparts
p260
(lp261
VPlaceholder
p262
asVmultiline__
p263
g29
sg37
I184
sg38
I203
sg39
g249
sVmultiline
p264
I00
sVorigin
p265
cstrictdoc.backend.sdoc.models.node
SDocNodeFieldOrigin
p266
(VDOCUMENT
p267
tp268
Rp269
sbasg115
(lp270
sg245
(lp271
g0
(cstrictdoc.backend.sdoc.models.node
SDocNode
p272
g2
Ntp273
Rp274
(dp275
g251
VTEXT
p276
sg78
(lp277
g0
(g254
g2
Ntp278
Rp279
(dp280
g258
VSTATEMENT
p281
sg260
(lp282
VThis is a placeholder child requirements document for GHOST memory files and import behavior.\u000a\u000aPlanned scope:\u000a- server-side memory-file management\u000a- imported memory histories\u000a- ChatGPT shared-link import\u000a- memory history creation\u000a- memory-file governance\u000a\u000aDetailed atomic requirements shall be added later after human approval.\u000a
p283
asg263
V>>>\u000a
p284
sg37
I211
sg38
I558
sg39
g274
sg264
I01
sg265
g269
sbasg115
(lp285
sg37
I204
sg38
I558
sg39
g249
sVis_composite
p286
I00
sg245
(lp287
sVhas_meta
p288
I00
sVfields_as_parsed
p289
g277
sVordered_fields_lookup
p290
g118
(tRp291
g281
(lp292
g279
assVng_document_reference
p293
g0
(cstrictdoc.backend.sdoc.document_reference
DocumentReference
p294
g2
Ntp295
Rp296
(dp297
V_document
p298
g4
sbsVng_including_document_reference
p299
g0
(g294
g2
Ntp300
Rp301
(dp302
g298
Nsbsg41
I13
sVng_line_end
p303
I26
sg42
I1
sVng_col_end
p304
I1
sVng_byte_start
p305
I204
sVng_byte_end
p306
I558
sVcontext
p307
g0
(cstrictdoc.backend.sdoc.models.node
SDocNodeContext
p308
g2
Ntp309
Rp310
(dp311
Vtitle_number_string
p312
g29
sVng_level
p313
I2
sbsVreserved_mid
p314
g0
(g89
g90
V77d95ad0452f4ab8976b908d6c2b07b6
p315
tp316
Rp317
sVmid_permanent
p318
I00
sVng_resolved_custom_level
p319
VNone
p320
sVcustom_level
p321
NsVng_has_requirements
p322
I00
sVautogen
p323
I00
sbasVnode_type_close
p324
VSECTION
p325
sg37
I172
sg38
I572
sg39
g4
sg286
I01
sg288
I00
sg289
g253
sg290
g118
(tRp326
g259
(lp327
g256
assg293
g296
sg299
g301
sg41
I10
sg303
I28
sg42
I1
sg304
I1
sg305
I172
sg306
I572
sg307
g0
(g308
g2
Ntp328
Rp329
(dp330
g312
V1
p331
sg313
I1
sbsg314
g0
(g89
g90
V7af5332f199f48129da108e1ae33b05d
p332
tp333
Rp334
sg318
I00
sg319
Nsg321
Nsg322
I00
sg323
I00
sbasg37
I0
sg38
I572
sV_tx_filename
p335
V/home/rusbeh_ab/project/RAGstream/doc/01-Requirements/strictdoc/45_memory_files_and_import.sdoc
p336
sV_tx_metamodel
p337
NsV_tx_model_params
p338
NsV_tx_parser
p339
NsVreserved_title
p340
g8
sVis_bundle_document
p341
I00
sVfragments_from_files
p342
(lp343
sg322
I00
sVmeta
p344
Nsg314
g0
(g89
g90
V055e28fe173248aaaf710c1b4a04d47d
p345
tp346
Rp347
sg318
I00
sVincluded_documents
p348
(lp349
sg307
g0
(g308
g2
Ntp350
Rp351
(dp352
g312
Nsg313
I0
sbsg299
g301
sVng_including_document_from_file
p353
NsVsearch_index
p354
g0
(cstrictdoc.backend.sdoc.models.document
SDocDocumentSearchIndex
p355
g2
Ntp356
Rp357
(dp358
Vdocument_index
p359
ccollections
defaultdict
p360
(g237
tp361
Rp362
Vplaceholder
p363
g237
((lp364
V77d95ad0452f4ab8976b908d6c2b07b6
p365
aV7af5332f199f48129da108e1ae33b05d
p366
atp367
Rp368
sVp
p369
g237
((lp370
g317
ag334
atp371
Rp372
sVpl
p373
g237
((lp374
g317
ag334
atp375
Rp376
sVlaceholder
p377
g237
((lp378
g317
ag334
atp379
Rp380
sVpla
p381
g237
((lp382
g317
ag334
atp383
Rp384
sVaceholder
p385
g237
((lp386
g317
ag334
atp387
Rp388
sVplac
p389
g237
((lp390
g317
ag334
atp391
Rp392
sVceholder
p393
g237
((lp394
g317
ag334
atp395
Rp396
sVplace
p397
g237
((lp398
g317
ag334
atp399
Rp400
sVeholder
p401
g237
((lp402
g317
ag334
atp403
Rp404
sVplaceh
p405
g237
((lp406
g317
ag334
atp407
Rp408
sVholder
p409
g237
((lp410
g317
ag334
atp411
Rp412
sVplaceho
p413
g237
((lp414
g317
ag334
atp415
Rp416
sVolder
p417
g237
((lp418
g317
ag334
atp419
Rp420
sVplacehol
p421
g237
((lp422
g317
ag334
atp423
Rp424
sVlder
p425
g237
((lp426
g317
ag334
atp427
Rp428
sVplacehold
p429
g237
((lp430
g317
ag334
atp431
Rp432
sVder
p433
g237
((lp434
g317
ag334
atp435
Rp436
sVplaceholde
p437
g237
((lp438
g317
ag334
atp439
Rp440
sVer
p441
g237
((lp442
g317
ag334
atp443
Rp444
sVr
p445
g237
((lp446
g317
ag334
atp447
Rp448
sVrequirements
p449
g237
((lp450
V77d95ad0452f4ab8976b908d6c2b07b6
p451
atp452
Rp453
sVre
p454
g237
((lp455
g317
atp456
Rp457
sVequirements
p458
g237
((lp459
g317
atp460
Rp461
sVreq
p462
g237
((lp463
g317
atp464
Rp465
sVquirements
p466
g237
((lp467
g317
atp468
Rp469
sVrequ
p470
g237
((lp471
g317
atp472
Rp473
sVuirements
p474
g237
((lp475
g317
atp476
Rp477
sVrequi
p478
g237
((lp479
g317
atp480
Rp481
sVirements
p482
g237
((lp483
g317
atp484
Rp485
sVrequir
p486
g237
((lp487
g317
atp488
Rp489
sVrements
p490
g237
((lp491
g317
atp492
Rp493
sVrequire
p494
g237
((lp495
g317
atp496
Rp497
sVements
p498
g237
((lp499
g317
atp500
Rp501
sVrequirem
p502
g237
((lp503
g317
atp504
Rp505
sVments
p506
g237
((lp507
g317
atp508
Rp509
sVrequireme
p510
g237
((lp511
g317
atp512
Rp513
sVents
p514
g237
((lp515
g317
atp516
Rp517
sVrequiremen
p518
g237
((lp519
g317
atp520
Rp521
sVnts
p522
g237
((lp523
g317
atp524
Rp525
sVrequirement
p526
g237
((lp527
g317
atp528
Rp529
sVts
p530
g237
((lp531
g317
atp532
Rp533
sVs
p534
g237
((lp535
g317
atp536
Rp537
sVdocument
p538
g237
((lp539
V77d95ad0452f4ab8976b908d6c2b07b6
p540
atp541
Rp542
sVd
p543
g237
((lp544
g317
atp545
Rp546
sVdo
p547
g237
((lp548
g317
atp549
Rp550
sVocument
p551
g237
((lp552
g317
atp553
Rp554
sVdoc
p555
g237
((lp556
g317
atp557
Rp558
sVcument
p559
g237
((lp560
g317
atp561
Rp562
sVdocu
p563
g237
((lp564
g317
atp565
Rp566
sVument
p567
g237
((lp568
g317
atp569
Rp570
sVdocum
p571
g237
((lp572
g317
atp573
Rp574
sVment
p575
g237
((lp576
g317
atp577
Rp578
sVdocume
p579
g237
((lp580
g317
atp581
Rp582
sVent
p583
g237
((lp584
g317
atp585
Rp586
sVdocumen
p587
g237
((lp588
g317
atp589
Rp590
sVnt
p591
g237
((lp592
g317
atp593
Rp594
sVt
p595
g237
((lp596
g317
atp597
Rp598
sVghost
p599
g237
((lp600
V77d95ad0452f4ab8976b908d6c2b07b6
p601
atp602
Rp603
sVg
p604
g237
((lp605
g317
atp606
Rp607
sVgh
p608
g237
((lp609
g317
atp610
Rp611
sVhost
p612
g237
((lp613
g317
atp614
Rp615
sVgho
p616
g237
((lp617
g317
atp618
Rp619
sVost
p620
g237
((lp621
g317
atp622
Rp623
sVghos
p624
g237
((lp625
g317
atp626
Rp627
sVst
p628
g237
((lp629
g317
atp630
Rp631
sVchild
p632
g237
((lp633
V77d95ad0452f4ab8976b908d6c2b07b6
p634
atp635
Rp636
sVc
p637
g237
((lp638
g317
atp639
Rp640
sVch
p641
g237
((lp642
g317
atp643
Rp644
sVhild
p645
g237
((lp646
g317
atp647
Rp648
sVchi
p649
g237
((lp650
g317
atp651
Rp652
sVild
p653
g237
((lp654
g317
atp655
Rp656
sVchil
p657
g237
((lp658
g317
atp659
Rp660
sVld
p661
g237
((lp662
g317
atp663
Rp664
sVchatgpt
p665
g237
((lp666
V77d95ad0452f4ab8976b908d6c2b07b6
p667
atp668
Rp669
sVhatgpt
p670
g237
((lp671
g317
atp672
Rp673
sVcha
p674
g237
((lp675
g317
atp676
Rp677
sVatgpt
p678
g237
((lp679
g317
atp680
Rp681
sVchat
p682
g237
((lp683
g317
atp684
Rp685
sVtgpt
p686
g237
((lp687
g317
atp688
Rp689
sVchatg
p690
g237
((lp691
g317
atp692
Rp693
sVgpt
p694
g237
((lp695
g317
atp696
Rp697
sVchatgp
p698
g237
((lp699
g317
atp700
Rp701
sVpt
p702
g237
((lp703
g317
atp704
Rp705
sVdetailed
p706
g237
((lp707
V77d95ad0452f4ab8976b908d6c2b07b6
p708
atp709
Rp710
sVde
p711
g237
((lp712
g317
atp713
Rp714
sVetailed
p715
g237
((lp716
g317
atp717
Rp718
sVdet
p719
g237
((lp720
g317
atp721
Rp722
sVtailed
p723
g237
((lp724
g317
atp725
Rp726
sVdeta
p727
g237
((lp728
g317
atp729
Rp730
sVailed
p731
g237
((lp732
g317
atp733
Rp734
sVdetai
p735
g237
((lp736
g317
atp737
Rp738
sViled
p739
g237
((lp740
g317
atp741
Rp742
sVdetail
p743
g237
((lp744
g317
atp745
Rp746
sVled
p747
g237
((lp748
g317
atp749
Rp750
sVdetaile
p751
g237
((lp752
g317
atp753
Rp754
sVed
p755
g237
((lp756
g317
atp757
Rp758
sVplanned
p759
g237
((lp760
V77d95ad0452f4ab8976b908d6c2b07b6
p761
atp762
Rp763
sVlanned
p764
g237
((lp765
g317
atp766
Rp767
sVanned
p768
g237
((lp769
g317
atp770
Rp771
sVplan
p772
g237
((lp773
g317
atp774
Rp775
sVnned
p776
g237
((lp777
g317
atp778
Rp779
sVplann
p780
g237
((lp781
g317
atp782
Rp783
sVned
p784
g237
((lp785
g317
atp786
Rp787
sVplanne
p788
g237
((lp789
g317
atp790
Rp791
sVfor
p792
g237
((lp793
V77d95ad0452f4ab8976b908d6c2b07b6
p794
atp795
Rp796
sVf
p797
g237
((lp798
g317
atp799
Rp800
sVfo
p801
g237
((lp802
g317
atp803
Rp804
sVor
p805
g237
((lp806
g317
atp807
Rp808
sVhistories
p809
g237
((lp810
V77d95ad0452f4ab8976b908d6c2b07b6
p811
atp812
Rp813
sVh
p814
g237
((lp815
g317
atp816
Rp817
sVhi
p818
g237
((lp819
g317
atp820
Rp821
sVistories
p822
g237
((lp823
g317
atp824
Rp825
sVhis
p826
g237
((lp827
g317
atp828
Rp829
sVstories
p830
g237
((lp831
g317
atp832
Rp833
sVhist
p834
g237
((lp835
g317
atp836
Rp837
sVtories
p838
g237
((lp839
g317
atp840
Rp841
sVhisto
p842
g237
((lp843
g317
atp844
Rp845
sVories
p846
g237
((lp847
g317
atp848
Rp849
sVhistor
p850
g237
((lp851
g317
atp852
Rp853
sVries
p854
g237
((lp855
g317
atp856
Rp857
sVhistori
p858
g237
((lp859
g317
atp860
Rp861
sVies
p862
g237
((lp863
g317
atp864
Rp865
sVhistorie
p866
g237
((lp867
g317
atp868
Rp869
sVes
p870
g237
((lp871
g317
atp872
Rp873
sVbe
p874
g237
((lp875
V77d95ad0452f4ab8976b908d6c2b07b6
p876
atp877
Rp878
sVb
p879
g237
((lp880
g317
atp881
Rp882
sVe
p883
g237
((lp884
g317
atp885
Rp886
sVfiles
p887
g237
((lp888
V77d95ad0452f4ab8976b908d6c2b07b6
p889
atp890
Rp891
sVfi
p892
g237
((lp893
g317
atp894
Rp895
sViles
p896
g237
((lp897
g317
atp898
Rp899
sVfil
p900
g237
((lp901
g317
atp902
Rp903
sVles
p904
g237
((lp905
g317
atp906
Rp907
sVfile
p908
g237
((lp909
g317
atp910
Rp911
sVscope
p912
g237
((lp913
V77d95ad0452f4ab8976b908d6c2b07b6
p914
atp915
Rp916
sVsc
p917
g237
((lp918
g317
atp919
Rp920
sVcope
p921
g237
((lp922
g317
atp923
Rp924
sVsco
p925
g237
((lp926
g317
atp927
Rp928
sVope
p929
g237
((lp930
g317
atp931
Rp932
sVscop
p933
g237
((lp934
g317
atp935
Rp936
sVpe
p937
g237
((lp938
g317
atp939
Rp940
sVmemory-file
p941
g237
((lp942
V77d95ad0452f4ab8976b908d6c2b07b6
p943
atp944
Rp945
sVm
p946
g237
((lp947
g317
atp948
Rp949
sVme
p950
g237
((lp951
g317
atp952
Rp953
sVemory-file
p954
g237
((lp955
g317
atp956
Rp957
sVmem
p958
g237
((lp959
g317
atp960
Rp961
sVmory-file
p962
g237
((lp963
g317
atp964
Rp965
sVmemo
p966
g237
((lp967
g317
atp968
Rp969
sVory-file
p970
g237
((lp971
g317
atp972
Rp973
sVmemor
p974
g237
((lp975
g317
atp976
Rp977
sVry-file
p978
g237
((lp979
g317
atp980
Rp981
sVmemory
p982
g237
((lp983
g317
atp984
Rp985
sVy-file
p986
g237
((lp987
g317
atp988
Rp989
sVmemory-
p990
g237
((lp991
g317
atp992
Rp993
sV-file
p994
g237
((lp995
g317
atp996
Rp997
sVmemory-f
p998
g237
((lp999
g317
atp1000
Rp1001
sVmemory-fi
p1002
g237
((lp1003
g317
atp1004
Rp1005
sVile
p1006
g237
((lp1007
g317
atp1008
Rp1009
sVmemory-fil
p1010
g237
((lp1011
g317
atp1012
Rp1013
sVle
p1014
g237
((lp1015
g317
atp1016
Rp1017
sVimport
p1018
g237
((lp1019
V77d95ad0452f4ab8976b908d6c2b07b6
p1020
atp1021
Rp1022
sVi
p1023
g237
((lp1024
g317
atp1025
Rp1026
sVim
p1027
g237
((lp1028
g317
atp1029
Rp1030
sVmport
p1031
g237
((lp1032
g317
atp1033
Rp1034
sVimp
p1035
g237
((lp1036
g317
atp1037
Rp1038
sVport
p1039
g237
((lp1040
g317
atp1041
Rp1042
sVimpo
p1043
g237
((lp1044
g317
atp1045
Rp1046
sVort
p1047
g237
((lp1048
g317
atp1049
Rp1050
sVimpor
p1051
g237
((lp1052
g317
atp1053
Rp1054
sVrt
p1055
g237
((lp1056
g317
atp1057
Rp1058
sVshared-link
p1059
g237
((lp1060
V77d95ad0452f4ab8976b908d6c2b07b6
p1061
atp1062
Rp1063
sVsh
p1064
g237
((lp1065
g317
atp1066
Rp1067
sVhared-link
p1068
g237
((lp1069
g317
atp1070
Rp1071
sVsha
p1072
g237
((lp1073
g317
atp1074
Rp1075
sVared-link
p1076
g237
((lp1077
g317
atp1078
Rp1079
sVshar
p1080
g237
((lp1081
g317
atp1082
Rp1083
sVred-link
p1084
g237
((lp1085
g317
atp1086
Rp1087
sVshare
p1088
g237
((lp1089
g317
atp1090
Rp1091
sVed-link
p1092
g237
((lp1093
g317
atp1094
Rp1095
sVshared
p1096
g237
((lp1097
g317
atp1098
Rp1099
sVd-link
p1100
g237
((lp1101
g317
atp1102
Rp1103
sVshared-
p1104
g237
((lp1105
g317
atp1106
Rp1107
sV-link
p1108
g237
((lp1109
g317
atp1110
Rp1111
sVshared-l
p1112
g237
((lp1113
g317
atp1114
Rp1115
sVlink
p1116
g237
((lp1117
g317
atp1118
Rp1119
sVshared-li
p1120
g237
((lp1121
g317
atp1122
Rp1123
sVink
p1124
g237
((lp1125
g317
atp1126
Rp1127
sVshared-lin
p1128
g237
((lp1129
g317
atp1130
Rp1131
sVnk
p1132
g237
((lp1133
g317
atp1134
Rp1135
sVk
p1136
g237
((lp1137
g317
atp1138
Rp1139
sVshall
p1140
g237
((lp1141
V77d95ad0452f4ab8976b908d6c2b07b6
p1142
atp1143
Rp1144
sVhall
p1145
g237
((lp1146
g317
atp1147
Rp1148
sVall
p1149
g237
((lp1150
g317
atp1151
Rp1152
sVshal
p1153
g237
((lp1154
g317
atp1155
Rp1156
sVll
p1157
g237
((lp1158
g317
atp1159
Rp1160
sVl
p1161
g237
((lp1162
g317
atp1163
Rp1164
sVserver-side
p1165
g237
((lp1166
V77d95ad0452f4ab8976b908d6c2b07b6
p1167
atp1168
Rp1169
sVse
p1170
g237
((lp1171
g317
atp1172
Rp1173
sVerver-side
p1174
g237
((lp1175
g317
atp1176
Rp1177
sVser
p1178
g237
((lp1179
g317
atp1180
Rp1181
sVrver-side
p1182
g237
((lp1183
g317
atp1184
Rp1185
sVserv
p1186
g237
((lp1187
g317
atp1188
Rp1189
sVver-side
p1190
g237
((lp1191
g317
atp1192
Rp1193
sVserve
p1194
g237
((lp1195
g317
atp1196
Rp1197
sVer-side
p1198
g237
((lp1199
g317
atp1200
Rp1201
sVserver
p1202
g237
((lp1203
g317
atp1204
Rp1205
sVr-side
p1206
g237
((lp1207
g317
atp1208
Rp1209
sVserver-
p1210
g237
((lp1211
g317
atp1212
Rp1213
sV-side
p1214
g237
((lp1215
g317
atp1216
Rp1217
sVserver-s
p1218
g237
((lp1219
g317
atp1220
Rp1221
sVside
p1222
g237
((lp1223
g317
atp1224
Rp1225
sVserver-si
p1226
g237
((lp1227
g317
atp1228
Rp1229
sVide
p1230
g237
((lp1231
g317
atp1232
Rp1233
sVserver-sid
p1234
g237
((lp1235
g317
atp1236
Rp1237
sVimported
p1238
g237
((lp1239
V77d95ad0452f4ab8976b908d6c2b07b6
p1240
atp1241
Rp1242
sVmported
p1243
g237
((lp1244
g317
atp1245
Rp1246
sVported
p1247
g237
((lp1248
g317
atp1249
Rp1250
sVorted
p1251
g237
((lp1252
g317
atp1253
Rp1254
sVrted
p1255
g237
((lp1256
g317
atp1257
Rp1258
sVted
p1259
g237
((lp1260
g317
atp1261
Rp1262
sVimporte
p1263
g237
((lp1264
g317
atp1265
Rp1266
sVatomic
p1267
g237
((lp1268
V77d95ad0452f4ab8976b908d6c2b07b6
p1269
atp1270
Rp1271
sVa
p1272
g237
((lp1273
g317
atp1274
Rp1275
sVat
p1276
g237
((lp1277
g317
atp1278
Rp1279
sVtomic
p1280
g237
((lp1281
g317
atp1282
Rp1283
sVato
p1284
g237
((lp1285
g317
atp1286
Rp1287
sVomic
p1288
g237
((lp1289
g317
atp1290
Rp1291
sVatom
p1292
g237
((lp1293
g317
atp1294
Rp1295
sVmic
p1296
g237
((lp1297
g317
atp1298
Rp1299
sVatomi
p1300
g237
((lp1301
g317
atp1302
Rp1303
sVic
p1304
g237
((lp1305
g317
atp1306
Rp1307
sVhuman
p1308
g237
((lp1309
V77d95ad0452f4ab8976b908d6c2b07b6
p1310
atp1311
Rp1312
sVhu
p1313
g237
((lp1314
g317
atp1315
Rp1316
sVuman
p1317
g237
((lp1318
g317
atp1319
Rp1320
sVhum
p1321
g237
((lp1322
g317
atp1323
Rp1324
sVman
p1325
g237
((lp1326
g317
atp1327
Rp1328
sVhuma
p1329
g237
((lp1330
g317
atp1331
Rp1332
sVan
p1333
g237
((lp1334
g317
atp1335
Rp1336
sVn
p1337
g237
((lp1338
g317
atp1339
Rp1340
sVhistory
p1341
g237
((lp1342
V77d95ad0452f4ab8976b908d6c2b07b6
p1343
atp1344
Rp1345
sVistory
p1346
g237
((lp1347
g317
atp1348
Rp1349
sVstory
p1350
g237
((lp1351
g317
atp1352
Rp1353
sVtory
p1354
g237
((lp1355
g317
atp1356
Rp1357
sVory
p1358
g237
((lp1359
g317
atp1360
Rp1361
sVry
p1362
g237
((lp1363
g317
atp1364
Rp1365
sVy
p1366
g237
((lp1367
g317
atp1368
Rp1369
sVgovernance
p1370
g237
((lp1371
V77d95ad0452f4ab8976b908d6c2b07b6
p1372
atp1373
Rp1374
sVgo
p1375
g237
((lp1376
g317
atp1377
Rp1378
sVovernance
p1379
g237
((lp1380
g317
atp1381
Rp1382
sVgov
p1383
g237
((lp1384
g317
atp1385
Rp1386
sVvernance
p1387
g237
((lp1388
g317
atp1389
Rp1390
sVgove
p1391
g237
((lp1392
g317
atp1393
Rp1394
sVernance
p1395
g237
((lp1396
g317
atp1397
Rp1398
sVgover
p1399
g237
((lp1400
g317
atp1401
Rp1402
sVrnance
p1403
g237
((lp1404
g317
atp1405
Rp1406
sVgovern
p1407
g237
((lp1408
g317
atp1409
Rp1410
sVnance
p1411
g237
((lp1412
g317
atp1413
Rp1414
sVgoverna
p1415
g237
((lp1416
g317
atp1417
Rp1418
sVance
p1419
g237
((lp1420
g317
atp1421
Rp1422
sVgovernan
p1423
g237
((lp1424
g317
atp1425
Rp1426
sVnce
p1427
g237
((lp1428
g317
atp1429
Rp1430
sVgovernanc
p1431
g237
((lp1432
g317
atp1433
Rp1434
sVce
p1435
g237
((lp1436
g317
atp1437
Rp1438
sVafter
p1439
g237
((lp1440
V77d95ad0452f4ab8976b908d6c2b07b6
p1441
atp1442
Rp1443
sVaf
p1444
g237
((lp1445
g317
atp1446
Rp1447
sVfter
p1448
g237
((lp1449
g317
atp1450
Rp1451
sVaft
p1452
g237
((lp1453
g317
atp1454
Rp1455
sVter
p1456
g237
((lp1457
g317
atp1458
Rp1459
sVafte
p1460
g237
((lp1461
g317
atp1462
Rp1463
sVand
p1464
g237
((lp1465
V77d95ad0452f4ab8976b908d6c2b07b6
p1466
atp1467
Rp1468
sVnd
p1469
g237
((lp1470
g317
atp1471
Rp1472
sVis
p1473
g237
((lp1474
V77d95ad0452f4ab8976b908d6c2b07b6
p1475
atp1476
Rp1477
sVapproval
p1478
g237
((lp1479
V77d95ad0452f4ab8976b908d6c2b07b6
p1480
atp1481
Rp1482
sVap
p1483
g237
((lp1484
g317
atp1485
Rp1486
sVpproval
p1487
g237
((lp1488
g317
atp1489
Rp1490
sVapp
p1491
g237
((lp1492
g317
atp1493
Rp1494
sVproval
p1495
g237
((lp1496
g317
atp1497
Rp1498
sVappr
p1499
g237
((lp1500
g317
atp1501
Rp1502
sVroval
p1503
g237
((lp1504
g317
atp1505
Rp1506
sVappro
p1507
g237
((lp1508
g317
atp1509
Rp1510
sVoval
p1511
g237
((lp1512
g317
atp1513
Rp1514
sVapprov
p1515
g237
((lp1516
g317
atp1517
Rp1518
sVval
p1519
g237
((lp1520
g317
atp1521
Rp1522
sVapprova
p1523
g237
((lp1524
g317
atp1525
Rp1526
sVal
p1527
g237
((lp1528
g317
atp1529
Rp1530
sVmanagement
p1531
g237
((lp1532
V77d95ad0452f4ab8976b908d6c2b07b6
p1533
atp1534
Rp1535
sVma
p1536
g237
((lp1537
g317
atp1538
Rp1539
sVanagement
p1540
g237
((lp1541
g317
atp1542
Rp1543
sVnagement
p1544
g237
((lp1545
g317
atp1546
Rp1547
sVmana
p1548
g237
((lp1549
g317
atp1550
Rp1551
sVagement
p1552
g237
((lp1553
g317
atp1554
Rp1555
sVmanag
p1556
g237
((lp1557
g317
atp1558
Rp1559
sVgement
p1560
g237
((lp1561
g317
atp1562
Rp1563
sVmanage
p1564
g237
((lp1565
g317
atp1566
Rp1567
sVement
p1568
g237
((lp1569
g317
atp1570
Rp1571
sVmanagem
p1572
g237
((lp1573
g317
atp1574
Rp1575
sVmanageme
p1576
g237
((lp1577
g317
atp1578
Rp1579
sVmanagemen
p1580
g237
((lp1581
g317
atp1582
Rp1583
sVcreation
p1584
g237
((lp1585
V77d95ad0452f4ab8976b908d6c2b07b6
p1586
atp1587
Rp1588
sVcr
p1589
g237
((lp1590
g317
atp1591
Rp1592
sVreation
p1593
g237
((lp1594
g317
atp1595
Rp1596
sVcre
p1597
g237
((lp1598
g317
atp1599
Rp1600
sVeation
p1601
g237
((lp1602
g317
atp1603
Rp1604
sVcrea
p1605
g237
((lp1606
g317
atp1607
Rp1608
sVation
p1609
g237
((lp1610
g317
atp1611
Rp1612
sVcreat
p1613
g237
((lp1614
g317
atp1615
Rp1616
sVtion
p1617
g237
((lp1618
g317
atp1619
Rp1620
sVcreati
p1621
g237
((lp1622
g317
atp1623
Rp1624
sVion
p1625
g237
((lp1626
g317
atp1627
Rp1628
sVcreatio
p1629
g237
((lp1630
g317
atp1631
Rp1632
sVon
p1633
g237
((lp1634
g317
atp1635
Rp1636
sVlater
p1637
g237
((lp1638
V77d95ad0452f4ab8976b908d6c2b07b6
p1639
atp1640
Rp1641
sVla
p1642
g237
((lp1643
g317
atp1644
Rp1645
sVater
p1646
g237
((lp1647
g317
atp1648
Rp1649
sVlat
p1650
g237
((lp1651
g317
atp1652
Rp1653
sVlate
p1654
g237
((lp1655
g317
atp1656
Rp1657
sVthis
p1658
g237
((lp1659
V77d95ad0452f4ab8976b908d6c2b07b6
p1660
atp1661
Rp1662
sVth
p1663
g237
((lp1664
g317
atp1665
Rp1666
sVthi
p1667
g237
((lp1668
g317
atp1669
Rp1670
sVemory
p1671
g237
((lp1672
g317
atp1673
Rp1674
sVmory
p1675
g237
((lp1676
g317
atp1677
Rp1678
sVadded
p1679
g237
((lp1680
V77d95ad0452f4ab8976b908d6c2b07b6
p1681
atp1682
Rp1683
sVad
p1684
g237
((lp1685
g317
atp1686
Rp1687
sVdded
p1688
g237
((lp1689
g317
atp1690
Rp1691
sVadd
p1692
g237
((lp1693
g317
atp1694
Rp1695
sVded
p1696
g237
((lp1697
g317
atp1698
Rp1699
sVadde
p1700
g237
((lp1701
g317
atp1702
Rp1703
sVbehavior
p1704
g237
((lp1705
V77d95ad0452f4ab8976b908d6c2b07b6
p1706
atp1707
Rp1708
sVehavior
p1709
g237
((lp1710
g317
atp1711
Rp1712
sVbeh
p1713
g237
((lp1714
g317
atp1715
Rp1716
sVhavior
p1717
g237
((lp1718
g317
atp1719
Rp1720
sVbeha
p1721
g237
((lp1722
g317
atp1723
Rp1724
sVavior
p1725
g237
((lp1726
g317
atp1727
Rp1728
sVbehav
p1729
g237
((lp1730
g317
atp1731
Rp1732
sVvior
p1733
g237
((lp1734
g317
atp1735
Rp1736
sVbehavi
p1737
g237
((lp1738
g317
atp1739
Rp1740
sVior
p1741
g237
((lp1742
g317
atp1743
Rp1744
sVbehavio
p1745
g237
((lp1746
g317
atp1747
Rp1748
ssVmap_nodes_by_mid
p1749
(dp1750
V7af5332f199f48129da108e1ae33b05d
p1751
(dp1752
VMID
p1753
V7af5332f199f48129da108e1ae33b05d
p1754
sg259
g262
ssV77d95ad0452f4ab8976b908d6c2b07b6
p1755
(dp1756
g1753
V77d95ad0452f4ab8976b908d6c2b07b6
p1757
sg281
g283
sssbsVng_source_content
p1758
Nsg323
I00
sV_tx_attrs
p1759
NsV_tx_peg_rule
p1760
Nsb.