ccopy_reg
_reconstructor
p0
(cstrictdoc.backend.sdoc.models.document
SDocDocument
p1
c__builtin__
object
p2
Ntp3
Rp4
(dp5
Vmid
p6
NsVtitle
p7
VGUI Workbench Requirements
p8
sVconfig
p9
g0
(cstrictdoc.backend.sdoc.models.document_config
DocumentConfig
p10
g2
Ntp11
Rp12
(dp13
Vuid
p14
VGHOST-REQ-GUI-WORKBENCH
p15
sVversion
p16
V0.1-dummy
p17
sVdate
p18
NsVclassification
p19
NsVrequirement_prefix
p20
NsVroot
p21
NsVenable_mid
p22
NsVrelation_field
p23
NsVmarkup
p24
VText
p25
sVauto_levels
p26
I01
sVlayout
p27
NsVview_style_tag
p28
V
p29
sVrequirement_style
p30
NsVnode_in_toc_tag
p31
VNODE_IN_TOC
p32
sVrequirement_in_toc
p33
VTrue
p34
sVdefault_view
p35
NsVcustom_metadata
p36
NsV_tx_position
p37
I45
sV_tx_position_end
p38
I155
sVparent
p39
g4
sVng_auto_levels_specified
p40
I01
sVng_line_start
p41
I3
sVng_col_start
p42
I1
sbsVview
p43
g0
(cstrictdoc.backend.sdoc.models.document_view
DocumentView
p44
g2
Ntp45
Rp46
(dp47
g39
g4
sVviews
p48
(lp49
g0
(cstrictdoc.backend.sdoc.models.document_view
DefaultViewElement
p50
g2
Ntp51
Rp52
(dp53
g39
g46
sVview_id
p54
VNOT_RELEVANT
p55
sVtags
p56
(lp57
sVhidden_tags
p58
(lp59
sVname
p60
Nsbasg41
I32
sg42
I794
sbsVgrammar
p61
g0
(cstrictdoc.backend.sdoc.models.document_grammar
DocumentGrammar
p62
g2
Ntp63
Rp64
(dp65
g39
g4
sVelements
p66
(lp67
g0
(cstrictdoc.backend.sdoc.models.grammar_element
GrammarElement
p68
g2
Ntp69
Rp70
(dp71
g39
g64
sVtag
p72
VSECTION
p73
sVproperty_is_composite
p74
I01
sVproperty_prefix
p75
NsVproperty_view_style
p76
NsVproperty_view_style_lower
p77
NsVfields
p78
(lp79
g0
(cstrictdoc.backend.sdoc.models.grammar_element
GrammarElementFieldString
p80
g2
Ntp81
Rp82
(dp83
g7
VUID
p84
sVhuman_title
p85
NsVgef_type
p86
VString
p87
sVrequired
p88
I00
sg6
g0
(cstrictdoc.helpers.mid
MID
p89
c__builtin__
unicode
p90
V48cc5ae8a4284bc58de9be0eba0778cb
p91
tp92
Rp93
sg39
Nsbag0
(g80
g2
Ntp94
Rp95
(dp96
g7
VLEVEL
p97
sg85
Nsg86
g87
sg88
I00
sg6
g0
(g89
g90
Vedb6cdce1b5a4c70abfdff7ab8b7fd02
p98
tp99
Rp100
sg39
Nsbag0
(g80
g2
Ntp101
Rp102
(dp103
g7
VPREFIX
p104
sg85
Nsg86
g87
sg88
I00
sg6
g0
(g89
g90
Va9fdad8562bc4eefb720c534517fd3b0
p105
tp106
Rp107
sg39
Nsbag0
(g80
g2
Ntp108
Rp109
(dp110
g7
VTITLE
p111
sg85
Nsg86
g87
sg88
I01
sg6
g0
(g89
g90
V07a2fc576d3042d28795b89417b510f6
p112
tp113
Rp114
sg39
NsbasVrelations
p115
(lp116
sVfields_map
p117
ccollections
OrderedDict
p118
(tRp119
g84
g82
sg97
g95
sg104
g102
sg111
g109
ssVfield_titles
p120
(lp121
g84
ag97
ag104
ag111
asVcontent_field
p122
(g29
I-1
tp123
sV_multiline_field_index
p124
I4
sg6
g0
(g89
g90
Vca0e98ec83f84a21b92a900aae974105
p125
tp126
Rp127
sg41
Nsg42
Nsbag0
(g68
g2
Ntp128
Rp129
(dp130
g39
g64
sg72
VTEXT
p131
sg74
Nsg75
Nsg76
Nsg77
Nsg78
(lp132
g0
(g80
g2
Ntp133
Rp134
(dp135
g7
g84
sg85
Nsg86
g87
sg88
I00
sg6
g0
(g89
g90
Vd81682c45fa742afb9e251e29503a433
p136
tp137
Rp138
sg39
Nsbag0
(g80
g2
Ntp139
Rp140
(dp141
g7
VSTATEMENT
p142
sg85
Nsg86
g87
sg88
I01
sg6
g0
(g89
g90
V37ea3b379bf040e29d3299401203ee57
p143
tp144
Rp145
sg39
Nsbasg115
(lp146
sg117
g118
(tRp147
g84
g134
sg142
g140
ssg120
(lp148
g84
ag142
asg122
(g142
I1
tp149
sg124
I1
sg6
g0
(g89
g90
V1cdda1e2c04944c888dad11036312d35
p150
tp151
Rp152
sg41
Nsg42
Nsbag0
(g68
g2
Ntp153
Rp154
(dp155
g39
g64
sg72
VREQUIREMENT
p156
sg74
Nsg75
Nsg76
Nsg77
Nsg78
(lp157
g0
(g80
g2
Ntp158
Rp159
(dp160
g7
g84
sg85
Nsg86
g87
sg88
I00
sg6
g0
(g89
g90
V95cad2772be94802bd2025f9dfb465cb
p161
tp162
Rp163
sg39
Nsbag0
(g80
g2
Ntp164
Rp165
(dp166
g7
g97
sg85
Nsg86
g87
sg88
I00
sg6
g0
(g89
g90
V550993c70f2e42a8bf5f58c3d520a5a1
p167
tp168
Rp169
sg39
Nsbag0
(g80
g2
Ntp170
Rp171
(dp172
g7
VSTATUS
p173
sg85
Nsg86
g87
sg88
I00
sg6
g0
(g89
g90
V019abe31716e434f8543e669edcfd6d8
p174
tp175
Rp176
sg39
Nsbag0
(g80
g2
Ntp177
Rp178
(dp179
g7
VTAGS
p180
sg85
Nsg86
g87
sg88
I00
sg6
g0
(g89
g90
Vd1a7588994614fc78130a6a604ed7482
p181
tp182
Rp183
sg39
Nsbag0
(g80
g2
Ntp184
Rp185
(dp186
g7
g111
sg85
Nsg86
g87
sg88
I00
sg6
g0
(g89
g90
Vc112b9f8dd884cd8885fbb40957d7b61
p187
tp188
Rp189
sg39
Nsbag0
(g80
g2
Ntp190
Rp191
(dp192
g7
g142
sg85
Nsg86
g87
sg88
I00
sg6
g0
(g89
g90
Vdc6069cc7af948a19de607b8c2144910
p193
tp194
Rp195
sg39
Nsbag0
(g80
g2
Ntp196
Rp197
(dp198
g7
VRATIONALE
p199
sg85
Nsg86
g87
sg88
I00
sg6
g0
(g89
g90
V5439109a136c48db9daba62cd8aafb91
p200
tp201
Rp202
sg39
Nsbag0
(g80
g2
Ntp203
Rp204
(dp205
g7
VCOMMENT
p206
sg85
Nsg86
g87
sg88
I00
sg6
g0
(g89
g90
Vc3c3f2ef392f4428b6d9f5f3345bbd58
p207
tp208
Rp209
sg39
Nsbasg115
(lp210
g0
(cstrictdoc.backend.sdoc.models.grammar_element
GrammarElementRelationParent
p211
g2
Ntp212
Rp213
(dp214
g39
g154
sVrelation_type
p215
VParent
p216
sVrelation_role
p217
NsVreverse_relation_role
p218
Nsg6
g0
(g89
g90
V37cfd25e22144810a7b76297fc6fafa3
p219
tp220
Rp221
sbag0
(cstrictdoc.backend.sdoc.models.grammar_element
GrammarElementRelationFile
p222
g2
Ntp223
Rp224
(dp225
g39
g154
sg215
VFile
p226
sg217
Nsg218
Nsg6
g0
(g89
g90
V662b48aa5e3d4cd79172064f8c94b72a
p227
tp228
Rp229
sbasg117
g118
(tRp230
g84
g159
sg97
g165
sg173
g171
sg180
g178
sg111
g185
sg142
g191
sg199
g197
sg206
g204
ssg120
(lp231
g84
ag97
ag173
ag180
ag111
ag142
ag199
ag206
asg122
(g142
I5
tp232
sg124
I5
sg6
g0
(g89
g90
V731c8c91e3d24498a3c2e00fcf9e3f1c
p233
tp234
Rp235
sg41
Nsg42
NsbasVregistered_elements
p236
c__builtin__
set
p237
((lp238
g73
ag156
ag131
atp239
Rp240
sVelements_by_type
p241
(dp242
g73
g70
sg131
g129
sg156
g154
ssVimport_from_file
p243
NsVis_default
p244
I01
sg41
Nsg42
NsbsVsection_contents
p245
(lp246
g0
(cstrictdoc.backend.sdoc.models.node
SDocCompositeNode
p247
g2
Ntp248
Rp249
(dp250
Vnode_type
p251
VSECTION
p252
sg78
(lp253
g0
(cstrictdoc.backend.sdoc.models.node
SDocNodeField
p254
g2
Ntp255
Rp256
(dp257
Vfield_name
p258
VTITLE
p259
sVparts
p260
(lp261
VPlaceholder
p262
asVmultiline__
p263
g29
sg37
I168
sg38
I187
sg39
g249
sVmultiline
p264
I00
sVorigin
p265
cstrictdoc.backend.sdoc.models.node
SDocNodeFieldOrigin
p266
(VDOCUMENT
p267
tp268
Rp269
sbasg115
(lp270
sg245
(lp271
g0
(cstrictdoc.backend.sdoc.models.node
SDocNode
p272
g2
Ntp273
Rp274
(dp275
g251
VTEXT
p276
sg78
(lp277
g0
(g254
g2
Ntp278
Rp279
(dp280
g258
VSTATEMENT
p281
sg260
(lp282
VThis is a placeholder child requirements document for the GHOST GUI workbench.\u000a\u000aPlanned scope:\u000a- Streamlit GUI\u000a- workspace behavior\u000a- files tab\u000a- metrics tab demo boundary\u000a- memory controls\u000a- runtime logs\u000a- settings placeholders\u000a- upload limits\u000a- prompt-only mode proposal\u000a\u000aDetailed atomic requirements shall be added later after human approval.\u000a
p283
asg263
V>>>\u000a
p284
sg37
I195
sg38
I560
sg39
g274
sg264
I01
sg265
g269
sbasg115
(lp285
sg37
I188
sg38
I560
sg39
g249
sVis_composite
p286
I00
sg245
(lp287
sVhas_meta
p288
I00
sVfields_as_parsed
p289
g277
sVordered_fields_lookup
p290
g118
(tRp291
g281
(lp292
g279
assVng_document_reference
p293
g0
(cstrictdoc.backend.sdoc.document_reference
DocumentReference
p294
g2
Ntp295
Rp296
(dp297
V_document
p298
g4
sbsVng_including_document_reference
p299
g0
(g294
g2
Ntp300
Rp301
(dp302
g298
Nsbsg41
I13
sVng_line_end
p303
I30
sg42
I1
sVng_col_end
p304
I1
sVng_byte_start
p305
I188
sVng_byte_end
p306
I560
sVcontext
p307
g0
(cstrictdoc.backend.sdoc.models.node
SDocNodeContext
p308
g2
Ntp309
Rp310
(dp311
Vtitle_number_string
p312
g29
sVng_level
p313
I2
sbsVreserved_mid
p314
g0
(g89
g90
Vdb18c007f6134d37b45f5cf692ffe16f
p315
tp316
Rp317
sVmid_permanent
p318
I00
sVng_resolved_custom_level
p319
VNone
p320
sVcustom_level
p321
NsVng_has_requirements
p322
I00
sVautogen
p323
I00
sbasVnode_type_close
p324
VSECTION
p325
sg37
I156
sg38
I574
sg39
g4
sg286
I01
sg288
I00
sg289
g253
sg290
g118
(tRp326
g259
(lp327
g256
assg293
g296
sg299
g301
sg41
I10
sg303
I32
sg42
I1
sg304
I1
sg305
I156
sg306
I574
sg307
g0
(g308
g2
Ntp328
Rp329
(dp330
g312
V1
p331
sg313
I1
sbsg314
g0
(g89
g90
Vb8a006a4804c4307a0faf31be0e4f092
p332
tp333
Rp334
sg318
I00
sg319
Nsg321
Nsg322
I00
sg323
I00
sbasg37
I0
sg38
I574
sV_tx_filename
p335
V/home/rusbeh_ab/project/RAGstream/doc/01-Requirements/strictdoc/50_gui_workbench.sdoc
p336
sV_tx_metamodel
p337
NsV_tx_model_params
p338
NsV_tx_parser
p339
NsVreserved_title
p340
g8
sVis_bundle_document
p341
I00
sVfragments_from_files
p342
(lp343
sg322
I00
sVmeta
p344
Nsg314
g0
(g89
g90
Vadc87b3036fc4fdaaaa77ac9968580df
p345
tp346
Rp347
sg318
I00
sVincluded_documents
p348
(lp349
sg307
g0
(g308
g2
Ntp350
Rp351
(dp352
g312
Nsg313
I0
sbsg299
g301
sVng_including_document_from_file
p353
NsVsearch_index
p354
g0
(cstrictdoc.backend.sdoc.models.document
SDocDocumentSearchIndex
p355
g2
Ntp356
Rp357
(dp358
Vdocument_index
p359
ccollections
defaultdict
p360
(g237
tp361
Rp362
Vplaceholder
p363
g237
((lp364
Vdb18c007f6134d37b45f5cf692ffe16f
p365
aVb8a006a4804c4307a0faf31be0e4f092
p366
atp367
Rp368
sVp
p369
g237
((lp370
g317
ag334
atp371
Rp372
sVpl
p373
g237
((lp374
g317
ag334
atp375
Rp376
sVlaceholder
p377
g237
((lp378
g317
ag334
atp379
Rp380
sVpla
p381
g237
((lp382
g317
ag334
atp383
Rp384
sVaceholder
p385
g237
((lp386
g317
ag334
atp387
Rp388
sVplac
p389
g237
((lp390
g317
ag334
atp391
Rp392
sVceholder
p393
g237
((lp394
g317
ag334
atp395
Rp396
sVplace
p397
g237
((lp398
g317
ag334
atp399
Rp400
sVeholder
p401
g237
((lp402
g317
ag334
atp403
Rp404
sVplaceh
p405
g237
((lp406
g317
ag334
atp407
Rp408
sVholder
p409
g237
((lp410
g317
ag334
atp411
Rp412
sVplaceho
p413
g237
((lp414
g317
ag334
atp415
Rp416
sVolder
p417
g237
((lp418
g317
ag334
atp419
Rp420
sVplacehol
p421
g237
((lp422
g317
ag334
atp423
Rp424
sVlder
p425
g237
((lp426
g317
ag334
atp427
Rp428
sVplacehold
p429
g237
((lp430
g317
ag334
atp431
Rp432
sVder
p433
g237
((lp434
g317
ag334
atp435
Rp436
sVplaceholde
p437
g237
((lp438
g317
ag334
atp439
Rp440
sVer
p441
g237
((lp442
g317
ag334
atp443
Rp444
sVr
p445
g237
((lp446
g317
ag334
atp447
Rp448
sVrequirements
p449
g237
((lp450
Vdb18c007f6134d37b45f5cf692ffe16f
p451
atp452
Rp453
sVre
p454
g237
((lp455
g317
atp456
Rp457
sVequirements
p458
g237
((lp459
g317
atp460
Rp461
sVreq
p462
g237
((lp463
g317
atp464
Rp465
sVquirements
p466
g237
((lp467
g317
atp468
Rp469
sVrequ
p470
g237
((lp471
g317
atp472
Rp473
sVuirements
p474
g237
((lp475
g317
atp476
Rp477
sVrequi
p478
g237
((lp479
g317
atp480
Rp481
sVirements
p482
g237
((lp483
g317
atp484
Rp485
sVrequir
p486
g237
((lp487
g317
atp488
Rp489
sVrements
p490
g237
((lp491
g317
atp492
Rp493
sVrequire
p494
g237
((lp495
g317
atp496
Rp497
sVements
p498
g237
((lp499
g317
atp500
Rp501
sVrequirem
p502
g237
((lp503
g317
atp504
Rp505
sVments
p506
g237
((lp507
g317
atp508
Rp509
sVrequireme
p510
g237
((lp511
g317
atp512
Rp513
sVents
p514
g237
((lp515
g317
atp516
Rp517
sVrequiremen
p518
g237
((lp519
g317
atp520
Rp521
sVnts
p522
g237
((lp523
g317
atp524
Rp525
sVrequirement
p526
g237
((lp527
g317
atp528
Rp529
sVts
p530
g237
((lp531
g317
atp532
Rp533
sVs
p534
g237
((lp535
g317
atp536
Rp537
sVproposal
p538
g237
((lp539
Vdb18c007f6134d37b45f5cf692ffe16f
p540
atp541
Rp542
sVpr
p543
g237
((lp544
g317
atp545
Rp546
sVroposal
p547
g237
((lp548
g317
atp549
Rp550
sVpro
p551
g237
((lp552
g317
atp553
Rp554
sVoposal
p555
g237
((lp556
g317
atp557
Rp558
sVprop
p559
g237
((lp560
g317
atp561
Rp562
sVposal
p563
g237
((lp564
g317
atp565
Rp566
sVpropo
p567
g237
((lp568
g317
atp569
Rp570
sVosal
p571
g237
((lp572
g317
atp573
Rp574
sVpropos
p575
g237
((lp576
g317
atp577
Rp578
sVsal
p579
g237
((lp580
g317
atp581
Rp582
sVproposa
p583
g237
((lp584
g317
atp585
Rp586
sVal
p587
g237
((lp588
g317
atp589
Rp590
sVl
p591
g237
((lp592
g317
atp593
Rp594
sVdocument
p595
g237
((lp596
Vdb18c007f6134d37b45f5cf692ffe16f
p597
atp598
Rp599
sVd
p600
g237
((lp601
g317
atp602
Rp603
sVdo
p604
g237
((lp605
g317
atp606
Rp607
sVocument
p608
g237
((lp609
g317
atp610
Rp611
sVdoc
p612
g237
((lp613
g317
atp614
Rp615
sVcument
p616
g237
((lp617
g317
atp618
Rp619
sVdocu
p620
g237
((lp621
g317
atp622
Rp623
sVument
p624
g237
((lp625
g317
atp626
Rp627
sVdocum
p628
g237
((lp629
g317
atp630
Rp631
sVment
p632
g237
((lp633
g317
atp634
Rp635
sVdocume
p636
g237
((lp637
g317
atp638
Rp639
sVent
p640
g237
((lp641
g317
atp642
Rp643
sVdocumen
p644
g237
((lp645
g317
atp646
Rp647
sVnt
p648
g237
((lp649
g317
atp650
Rp651
sVt
p652
g237
((lp653
g317
atp654
Rp655
sVmetrics
p656
g237
((lp657
Vdb18c007f6134d37b45f5cf692ffe16f
p658
atp659
Rp660
sVm
p661
g237
((lp662
g317
atp663
Rp664
sVme
p665
g237
((lp666
g317
atp667
Rp668
sVetrics
p669
g237
((lp670
g317
atp671
Rp672
sVmet
p673
g237
((lp674
g317
atp675
Rp676
sVtrics
p677
g237
((lp678
g317
atp679
Rp680
sVmetr
p681
g237
((lp682
g317
atp683
Rp684
sVrics
p685
g237
((lp686
g317
atp687
Rp688
sVmetri
p689
g237
((lp690
g317
atp691
Rp692
sVics
p693
g237
((lp694
g317
atp695
Rp696
sVmetric
p697
g237
((lp698
g317
atp699
Rp700
sVcs
p701
g237
((lp702
g317
atp703
Rp704
sVlogs
p705
g237
((lp706
Vdb18c007f6134d37b45f5cf692ffe16f
p707
atp708
Rp709
sVlo
p710
g237
((lp711
g317
atp712
Rp713
sVogs
p714
g237
((lp715
g317
atp716
Rp717
sVlog
p718
g237
((lp719
g317
atp720
Rp721
sVgs
p722
g237
((lp723
g317
atp724
Rp725
sVghost
p726
g237
((lp727
Vdb18c007f6134d37b45f5cf692ffe16f
p728
atp729
Rp730
sVg
p731
g237
((lp732
g317
atp733
Rp734
sVgh
p735
g237
((lp736
g317
atp737
Rp738
sVhost
p739
g237
((lp740
g317
atp741
Rp742
sVgho
p743
g237
((lp744
g317
atp745
Rp746
sVost
p747
g237
((lp748
g317
atp749
Rp750
sVghos
p751
g237
((lp752
g317
atp753
Rp754
sVst
p755
g237
((lp756
g317
atp757
Rp758
sVgui
p759
g237
((lp760
Vdb18c007f6134d37b45f5cf692ffe16f
p761
atp762
Rp763
sVgu
p764
g237
((lp765
g317
atp766
Rp767
sVui
p768
g237
((lp769
g317
atp770
Rp771
sVi
p772
g237
((lp773
g317
atp774
Rp775
sVchild
p776
g237
((lp777
Vdb18c007f6134d37b45f5cf692ffe16f
p778
atp779
Rp780
sVc
p781
g237
((lp782
g317
atp783
Rp784
sVch
p785
g237
((lp786
g317
atp787
Rp788
sVhild
p789
g237
((lp790
g317
atp791
Rp792
sVchi
p793
g237
((lp794
g317
atp795
Rp796
sVild
p797
g237
((lp798
g317
atp799
Rp800
sVchil
p801
g237
((lp802
g317
atp803
Rp804
sVld
p805
g237
((lp806
g317
atp807
Rp808
sVlimits
p809
g237
((lp810
Vdb18c007f6134d37b45f5cf692ffe16f
p811
atp812
Rp813
sVli
p814
g237
((lp815
g317
atp816
Rp817
sVimits
p818
g237
((lp819
g317
atp820
Rp821
sVlim
p822
g237
((lp823
g317
atp824
Rp825
sVmits
p826
g237
((lp827
g317
atp828
Rp829
sVlimi
p830
g237
((lp831
g317
atp832
Rp833
sVits
p834
g237
((lp835
g317
atp836
Rp837
sVlimit
p838
g237
((lp839
g317
atp840
Rp841
sVplaceholders
p842
g237
((lp843
Vdb18c007f6134d37b45f5cf692ffe16f
p844
atp845
Rp846
sVlaceholders
p847
g237
((lp848
g317
atp849
Rp850
sVaceholders
p851
g237
((lp852
g317
atp853
Rp854
sVceholders
p855
g237
((lp856
g317
atp857
Rp858
sVeholders
p859
g237
((lp860
g317
atp861
Rp862
sVholders
p863
g237
((lp864
g317
atp865
Rp866
sVolders
p867
g237
((lp868
g317
atp869
Rp870
sVlders
p871
g237
((lp872
g317
atp873
Rp874
sVders
p875
g237
((lp876
g317
atp877
Rp878
sVers
p879
g237
((lp880
g317
atp881
Rp882
sVrs
p883
g237
((lp884
g317
atp885
Rp886
sVdetailed
p887
g237
((lp888
Vdb18c007f6134d37b45f5cf692ffe16f
p889
atp890
Rp891
sVde
p892
g237
((lp893
g317
atp894
Rp895
sVetailed
p896
g237
((lp897
g317
atp898
Rp899
sVdet
p900
g237
((lp901
g317
atp902
Rp903
sVtailed
p904
g237
((lp905
g317
atp906
Rp907
sVdeta
p908
g237
((lp909
g317
atp910
Rp911
sVailed
p912
g237
((lp913
g317
atp914
Rp915
sVdetai
p916
g237
((lp917
g317
atp918
Rp919
sViled
p920
g237
((lp921
g317
atp922
Rp923
sVdetail
p924
g237
((lp925
g317
atp926
Rp927
sVled
p928
g237
((lp929
g317
atp930
Rp931
sVdetaile
p932
g237
((lp933
g317
atp934
Rp935
sVed
p936
g237
((lp937
g317
atp938
Rp939
sVdemo
p940
g237
((lp941
Vdb18c007f6134d37b45f5cf692ffe16f
p942
atp943
Rp944
sVemo
p945
g237
((lp946
g317
atp947
Rp948
sVdem
p949
g237
((lp950
g317
atp951
Rp952
sVmo
p953
g237
((lp954
g317
atp955
Rp956
sVo
p957
g237
((lp958
g317
atp959
Rp960
sVplanned
p961
g237
((lp962
Vdb18c007f6134d37b45f5cf692ffe16f
p963
atp964
Rp965
sVlanned
p966
g237
((lp967
g317
atp968
Rp969
sVanned
p970
g237
((lp971
g317
atp972
Rp973
sVplan
p974
g237
((lp975
g317
atp976
Rp977
sVnned
p978
g237
((lp979
g317
atp980
Rp981
sVplann
p982
g237
((lp983
g317
atp984
Rp985
sVned
p986
g237
((lp987
g317
atp988
Rp989
sVplanne
p990
g237
((lp991
g317
atp992
Rp993
sVfor
p994
g237
((lp995
Vdb18c007f6134d37b45f5cf692ffe16f
p996
atp997
Rp998
sVf
p999
g237
((lp1000
g317
atp1001
Rp1002
sVfo
p1003
g237
((lp1004
g317
atp1005
Rp1006
sVor
p1007
g237
((lp1008
g317
atp1009
Rp1010
sVbe
p1011
g237
((lp1012
Vdb18c007f6134d37b45f5cf692ffe16f
p1013
atp1014
Rp1015
sVb
p1016
g237
((lp1017
g317
atp1018
Rp1019
sVe
p1020
g237
((lp1021
g317
atp1022
Rp1023
sVfiles
p1024
g237
((lp1025
Vdb18c007f6134d37b45f5cf692ffe16f
p1026
atp1027
Rp1028
sVfi
p1029
g237
((lp1030
g317
atp1031
Rp1032
sViles
p1033
g237
((lp1034
g317
atp1035
Rp1036
sVfil
p1037
g237
((lp1038
g317
atp1039
Rp1040
sVles
p1041
g237
((lp1042
g317
atp1043
Rp1044
sVfile
p1045
g237
((lp1046
g317
atp1047
Rp1048
sVes
p1049
g237
((lp1050
g317
atp1051
Rp1052
sVthe
p1053
g237
((lp1054
Vdb18c007f6134d37b45f5cf692ffe16f
p1055
atp1056
Rp1057
sVth
p1058
g237
((lp1059
g317
atp1060
Rp1061
sVhe
p1062
g237
((lp1063
g317
atp1064
Rp1065
sVscope
p1066
g237
((lp1067
Vdb18c007f6134d37b45f5cf692ffe16f
p1068
atp1069
Rp1070
sVsc
p1071
g237
((lp1072
g317
atp1073
Rp1074
sVcope
p1075
g237
((lp1076
g317
atp1077
Rp1078
sVsco
p1079
g237
((lp1080
g317
atp1081
Rp1082
sVope
p1083
g237
((lp1084
g317
atp1085
Rp1086
sVscop
p1087
g237
((lp1088
g317
atp1089
Rp1090
sVpe
p1091
g237
((lp1092
g317
atp1093
Rp1094
sVtab
p1095
g237
((lp1096
Vdb18c007f6134d37b45f5cf692ffe16f
p1097
atp1098
Rp1099
sVta
p1100
g237
((lp1101
g317
atp1102
Rp1103
sVab
p1104
g237
((lp1105
g317
atp1106
Rp1107
sVstreamlit
p1108
g237
((lp1109
Vdb18c007f6134d37b45f5cf692ffe16f
p1110
atp1111
Rp1112
sVtreamlit
p1113
g237
((lp1114
g317
atp1115
Rp1116
sVstr
p1117
g237
((lp1118
g317
atp1119
Rp1120
sVreamlit
p1121
g237
((lp1122
g317
atp1123
Rp1124
sVstre
p1125
g237
((lp1126
g317
atp1127
Rp1128
sVeamlit
p1129
g237
((lp1130
g317
atp1131
Rp1132
sVstrea
p1133
g237
((lp1134
g317
atp1135
Rp1136
sVamlit
p1137
g237
((lp1138
g317
atp1139
Rp1140
sVstream
p1141
g237
((lp1142
g317
atp1143
Rp1144
sVmlit
p1145
g237
((lp1146
g317
atp1147
Rp1148
sVstreaml
p1149
g237
((lp1150
g317
atp1151
Rp1152
sVlit
p1153
g237
((lp1154
g317
atp1155
Rp1156
sVstreamli
p1157
g237
((lp1158
g317
atp1159
Rp1160
sVit
p1161
g237
((lp1162
g317
atp1163
Rp1164
sVupload
p1165
g237
((lp1166
Vdb18c007f6134d37b45f5cf692ffe16f
p1167
atp1168
Rp1169
sVu
p1170
g237
((lp1171
g317
atp1172
Rp1173
sVup
p1174
g237
((lp1175
g317
atp1176
Rp1177
sVpload
p1178
g237
((lp1179
g317
atp1180
Rp1181
sVupl
p1182
g237
((lp1183
g317
atp1184
Rp1185
sVload
p1186
g237
((lp1187
g317
atp1188
Rp1189
sVuplo
p1190
g237
((lp1191
g317
atp1192
Rp1193
sVoad
p1194
g237
((lp1195
g317
atp1196
Rp1197
sVuploa
p1198
g237
((lp1199
g317
atp1200
Rp1201
sVad
p1202
g237
((lp1203
g317
atp1204
Rp1205
sVworkspace
p1206
g237
((lp1207
Vdb18c007f6134d37b45f5cf692ffe16f
p1208
atp1209
Rp1210
sVw
p1211
g237
((lp1212
g317
atp1213
Rp1214
sVwo
p1215
g237
((lp1216
g317
atp1217
Rp1218
sVorkspace
p1219
g237
((lp1220
g317
atp1221
Rp1222
sVwor
p1223
g237
((lp1224
g317
atp1225
Rp1226
sVrkspace
p1227
g237
((lp1228
g317
atp1229
Rp1230
sVwork
p1231
g237
((lp1232
g317
atp1233
Rp1234
sVkspace
p1235
g237
((lp1236
g317
atp1237
Rp1238
sVworks
p1239
g237
((lp1240
g317
atp1241
Rp1242
sVspace
p1243
g237
((lp1244
g317
atp1245
Rp1246
sVworksp
p1247
g237
((lp1248
g317
atp1249
Rp1250
sVpace
p1251
g237
((lp1252
g317
atp1253
Rp1254
sVworkspa
p1255
g237
((lp1256
g317
atp1257
Rp1258
sVace
p1259
g237
((lp1260
g317
atp1261
Rp1262
sVworkspac
p1263
g237
((lp1264
g317
atp1265
Rp1266
sVce
p1267
g237
((lp1268
g317
atp1269
Rp1270
sVprompt-only
p1271
g237
((lp1272
Vdb18c007f6134d37b45f5cf692ffe16f
p1273
atp1274
Rp1275
sVrompt-only
p1276
g237
((lp1277
g317
atp1278
Rp1279
sVompt-only
p1280
g237
((lp1281
g317
atp1282
Rp1283
sVprom
p1284
g237
((lp1285
g317
atp1286
Rp1287
sVmpt-only
p1288
g237
((lp1289
g317
atp1290
Rp1291
sVpromp
p1292
g237
((lp1293
g317
atp1294
Rp1295
sVpt-only
p1296
g237
((lp1297
g317
atp1298
Rp1299
sVprompt
p1300
g237
((lp1301
g317
atp1302
Rp1303
sVt-only
p1304
g237
((lp1305
g317
atp1306
Rp1307
sVprompt-
p1308
g237
((lp1309
g317
atp1310
Rp1311
sV-only
p1312
g237
((lp1313
g317
atp1314
Rp1315
sVprompt-o
p1316
g237
((lp1317
g317
atp1318
Rp1319
sVonly
p1320
g237
((lp1321
g317
atp1322
Rp1323
sVprompt-on
p1324
g237
((lp1325
g317
atp1326
Rp1327
sVnly
p1328
g237
((lp1329
g317
atp1330
Rp1331
sVprompt-onl
p1332
g237
((lp1333
g317
atp1334
Rp1335
sVly
p1336
g237
((lp1337
g317
atp1338
Rp1339
sVy
p1340
g237
((lp1341
g317
atp1342
Rp1343
sVworkbench
p1344
g237
((lp1345
Vdb18c007f6134d37b45f5cf692ffe16f
p1346
atp1347
Rp1348
sVorkbench
p1349
g237
((lp1350
g317
atp1351
Rp1352
sVrkbench
p1353
g237
((lp1354
g317
atp1355
Rp1356
sVkbench
p1357
g237
((lp1358
g317
atp1359
Rp1360
sVworkb
p1361
g237
((lp1362
g317
atp1363
Rp1364
sVbench
p1365
g237
((lp1366
g317
atp1367
Rp1368
sVworkbe
p1369
g237
((lp1370
g317
atp1371
Rp1372
sVench
p1373
g237
((lp1374
g317
atp1375
Rp1376
sVworkben
p1377
g237
((lp1378
g317
atp1379
Rp1380
sVnch
p1381
g237
((lp1382
g317
atp1383
Rp1384
sVworkbenc
p1385
g237
((lp1386
g317
atp1387
Rp1388
sVh
p1389
g237
((lp1390
g317
atp1391
Rp1392
sVshall
p1393
g237
((lp1394
Vdb18c007f6134d37b45f5cf692ffe16f
p1395
atp1396
Rp1397
sVsh
p1398
g237
((lp1399
g317
atp1400
Rp1401
sVhall
p1402
g237
((lp1403
g317
atp1404
Rp1405
sVsha
p1406
g237
((lp1407
g317
atp1408
Rp1409
sVall
p1410
g237
((lp1411
g317
atp1412
Rp1413
sVshal
p1414
g237
((lp1415
g317
atp1416
Rp1417
sVll
p1418
g237
((lp1419
g317
atp1420
Rp1421
sVsettings
p1422
g237
((lp1423
Vdb18c007f6134d37b45f5cf692ffe16f
p1424
atp1425
Rp1426
sVse
p1427
g237
((lp1428
g317
atp1429
Rp1430
sVettings
p1431
g237
((lp1432
g317
atp1433
Rp1434
sVset
p1435
g237
((lp1436
g317
atp1437
Rp1438
sVttings
p1439
g237
((lp1440
g317
atp1441
Rp1442
sVsett
p1443
g237
((lp1444
g317
atp1445
Rp1446
sVtings
p1447
g237
((lp1448
g317
atp1449
Rp1450
sVsetti
p1451
g237
((lp1452
g317
atp1453
Rp1454
sVings
p1455
g237
((lp1456
g317
atp1457
Rp1458
sVsettin
p1459
g237
((lp1460
g317
atp1461
Rp1462
sVngs
p1463
g237
((lp1464
g317
atp1465
Rp1466
sVsetting
p1467
g237
((lp1468
g317
atp1469
Rp1470
sVruntime
p1471
g237
((lp1472
Vdb18c007f6134d37b45f5cf692ffe16f
p1473
atp1474
Rp1475
sVru
p1476
g237
((lp1477
g317
atp1478
Rp1479
sVuntime
p1480
g237
((lp1481
g317
atp1482
Rp1483
sVrun
p1484
g237
((lp1485
g317
atp1486
Rp1487
sVntime
p1488
g237
((lp1489
g317
atp1490
Rp1491
sVrunt
p1492
g237
((lp1493
g317
atp1494
Rp1495
sVtime
p1496
g237
((lp1497
g317
atp1498
Rp1499
sVrunti
p1500
g237
((lp1501
g317
atp1502
Rp1503
sVime
p1504
g237
((lp1505
g317
atp1506
Rp1507
sVruntim
p1508
g237
((lp1509
g317
atp1510
Rp1511
sVmode
p1512
g237
((lp1513
Vdb18c007f6134d37b45f5cf692ffe16f
p1514
atp1515
Rp1516
sVode
p1517
g237
((lp1518
g317
atp1519
Rp1520
sVmod
p1521
g237
((lp1522
g317
atp1523
Rp1524
sVatomic
p1525
g237
((lp1526
Vdb18c007f6134d37b45f5cf692ffe16f
p1527
atp1528
Rp1529
sVa
p1530
g237
((lp1531
g317
atp1532
Rp1533
sVat
p1534
g237
((lp1535
g317
atp1536
Rp1537
sVtomic
p1538
g237
((lp1539
g317
atp1540
Rp1541
sVato
p1542
g237
((lp1543
g317
atp1544
Rp1545
sVomic
p1546
g237
((lp1547
g317
atp1548
Rp1549
sVatom
p1550
g237
((lp1551
g317
atp1552
Rp1553
sVmic
p1554
g237
((lp1555
g317
atp1556
Rp1557
sVatomi
p1558
g237
((lp1559
g317
atp1560
Rp1561
sVic
p1562
g237
((lp1563
g317
atp1564
Rp1565
sVhuman
p1566
g237
((lp1567
Vdb18c007f6134d37b45f5cf692ffe16f
p1568
atp1569
Rp1570
sVhu
p1571
g237
((lp1572
g317
atp1573
Rp1574
sVuman
p1575
g237
((lp1576
g317
atp1577
Rp1578
sVhum
p1579
g237
((lp1580
g317
atp1581
Rp1582
sVman
p1583
g237
((lp1584
g317
atp1585
Rp1586
sVhuma
p1587
g237
((lp1588
g317
atp1589
Rp1590
sVan
p1591
g237
((lp1592
g317
atp1593
Rp1594
sVn
p1595
g237
((lp1596
g317
atp1597
Rp1598
sVafter
p1599
g237
((lp1600
Vdb18c007f6134d37b45f5cf692ffe16f
p1601
atp1602
Rp1603
sVaf
p1604
g237
((lp1605
g317
atp1606
Rp1607
sVfter
p1608
g237
((lp1609
g317
atp1610
Rp1611
sVaft
p1612
g237
((lp1613
g317
atp1614
Rp1615
sVter
p1616
g237
((lp1617
g317
atp1618
Rp1619
sVafte
p1620
g237
((lp1621
g317
atp1622
Rp1623
sVis
p1624
g237
((lp1625
Vdb18c007f6134d37b45f5cf692ffe16f
p1626
atp1627
Rp1628
sVapproval
p1629
g237
((lp1630
Vdb18c007f6134d37b45f5cf692ffe16f
p1631
atp1632
Rp1633
sVap
p1634
g237
((lp1635
g317
atp1636
Rp1637
sVpproval
p1638
g237
((lp1639
g317
atp1640
Rp1641
sVapp
p1642
g237
((lp1643
g317
atp1644
Rp1645
sVproval
p1646
g237
((lp1647
g317
atp1648
Rp1649
sVappr
p1650
g237
((lp1651
g317
atp1652
Rp1653
sVroval
p1654
g237
((lp1655
g317
atp1656
Rp1657
sVappro
p1658
g237
((lp1659
g317
atp1660
Rp1661
sVoval
p1662
g237
((lp1663
g317
atp1664
Rp1665
sVapprov
p1666
g237
((lp1667
g317
atp1668
Rp1669
sVval
p1670
g237
((lp1671
g317
atp1672
Rp1673
sVapprova
p1674
g237
((lp1675
g317
atp1676
Rp1677
sVboundary
p1678
g237
((lp1679
Vdb18c007f6134d37b45f5cf692ffe16f
p1680
atp1681
Rp1682
sVbo
p1683
g237
((lp1684
g317
atp1685
Rp1686
sVoundary
p1687
g237
((lp1688
g317
atp1689
Rp1690
sVbou
p1691
g237
((lp1692
g317
atp1693
Rp1694
sVundary
p1695
g237
((lp1696
g317
atp1697
Rp1698
sVboun
p1699
g237
((lp1700
g317
atp1701
Rp1702
sVndary
p1703
g237
((lp1704
g317
atp1705
Rp1706
sVbound
p1707
g237
((lp1708
g317
atp1709
Rp1710
sVdary
p1711
g237
((lp1712
g317
atp1713
Rp1714
sVbounda
p1715
g237
((lp1716
g317
atp1717
Rp1718
sVary
p1719
g237
((lp1720
g317
atp1721
Rp1722
sVboundar
p1723
g237
((lp1724
g317
atp1725
Rp1726
sVry
p1727
g237
((lp1728
g317
atp1729
Rp1730
sVlater
p1731
g237
((lp1732
Vdb18c007f6134d37b45f5cf692ffe16f
p1733
atp1734
Rp1735
sVla
p1736
g237
((lp1737
g317
atp1738
Rp1739
sVater
p1740
g237
((lp1741
g317
atp1742
Rp1743
sVlat
p1744
g237
((lp1745
g317
atp1746
Rp1747
sVlate
p1748
g237
((lp1749
g317
atp1750
Rp1751
sVthis
p1752
g237
((lp1753
Vdb18c007f6134d37b45f5cf692ffe16f
p1754
atp1755
Rp1756
sVhis
p1757
g237
((lp1758
g317
atp1759
Rp1760
sVthi
p1761
g237
((lp1762
g317
atp1763
Rp1764
sVmemory
p1765
g237
((lp1766
Vdb18c007f6134d37b45f5cf692ffe16f
p1767
atp1768
Rp1769
sVemory
p1770
g237
((lp1771
g317
atp1772
Rp1773
sVmem
p1774
g237
((lp1775
g317
atp1776
Rp1777
sVmory
p1778
g237
((lp1779
g317
atp1780
Rp1781
sVmemo
p1782
g237
((lp1783
g317
atp1784
Rp1785
sVory
p1786
g237
((lp1787
g317
atp1788
Rp1789
sVmemor
p1790
g237
((lp1791
g317
atp1792
Rp1793
sVcontrols
p1794
g237
((lp1795
Vdb18c007f6134d37b45f5cf692ffe16f
p1796
atp1797
Rp1798
sVco
p1799
g237
((lp1800
g317
atp1801
Rp1802
sVontrols
p1803
g237
((lp1804
g317
atp1805
Rp1806
sVcon
p1807
g237
((lp1808
g317
atp1809
Rp1810
sVntrols
p1811
g237
((lp1812
g317
atp1813
Rp1814
sVcont
p1815
g237
((lp1816
g317
atp1817
Rp1818
sVtrols
p1819
g237
((lp1820
g317
atp1821
Rp1822
sVcontr
p1823
g237
((lp1824
g317
atp1825
Rp1826
sVrols
p1827
g237
((lp1828
g317
atp1829
Rp1830
sVcontro
p1831
g237
((lp1832
g317
atp1833
Rp1834
sVols
p1835
g237
((lp1836
g317
atp1837
Rp1838
sVcontrol
p1839
g237
((lp1840
g317
atp1841
Rp1842
sVls
p1843
g237
((lp1844
g317
atp1845
Rp1846
sVadded
p1847
g237
((lp1848
Vdb18c007f6134d37b45f5cf692ffe16f
p1849
atp1850
Rp1851
sVdded
p1852
g237
((lp1853
g317
atp1854
Rp1855
sVadd
p1856
g237
((lp1857
g317
atp1858
Rp1859
sVded
p1860
g237
((lp1861
g317
atp1862
Rp1863
sVadde
p1864
g237
((lp1865
g317
atp1866
Rp1867
sVbehavior
p1868
g237
((lp1869
Vdb18c007f6134d37b45f5cf692ffe16f
p1870
atp1871
Rp1872
sVehavior
p1873
g237
((lp1874
g317
atp1875
Rp1876
sVbeh
p1877
g237
((lp1878
g317
atp1879
Rp1880
sVhavior
p1881
g237
((lp1882
g317
atp1883
Rp1884
sVbeha
p1885
g237
((lp1886
g317
atp1887
Rp1888
sVavior
p1889
g237
((lp1890
g317
atp1891
Rp1892
sVbehav
p1893
g237
((lp1894
g317
atp1895
Rp1896
sVvior
p1897
g237
((lp1898
g317
atp1899
Rp1900
sVbehavi
p1901
g237
((lp1902
g317
atp1903
Rp1904
sVior
p1905
g237
((lp1906
g317
atp1907
Rp1908
sVbehavio
p1909
g237
((lp1910
g317
atp1911
Rp1912
ssVmap_nodes_by_mid
p1913
(dp1914
Vb8a006a4804c4307a0faf31be0e4f092
p1915
(dp1916
VMID
p1917
Vb8a006a4804c4307a0faf31be0e4f092
p1918
sg259
g262
ssVdb18c007f6134d37b45f5cf692ffe16f
p1919
(dp1920
g1917
Vdb18c007f6134d37b45f5cf692ffe16f
p1921
sg281
g283
sssbsVng_source_content
p1922
Nsg323
I00
sV_tx_attrs
p1923
NsV_tx_peg_rule
p1924
Nsb.