ccopy_reg
_reconstructor
p0
(cstrictdoc.backend.sdoc.models.document
SDocDocument
p1
c__builtin__
object
p2
Ntp3
Rp4
(dp5
Vmid
p6
NsVtitle
p7
VRuntime Operations Requirements
p8
sVconfig
p9
g0
(cstrictdoc.backend.sdoc.models.document_config
DocumentConfig
p10
g2
Ntp11
Rp12
(dp13
Vuid
p14
VGHOST-REQ-RUNTIME-OPERATIONS
p15
sVversion
p16
V0.1-dummy
p17
sVdate
p18
NsVclassification
p19
NsVrequirement_prefix
p20
NsVroot
p21
NsVenable_mid
p22
NsVrelation_field
p23
NsVmarkup
p24
VText
p25
sVauto_levels
p26
I01
sVlayout
p27
NsVview_style_tag
p28
V
p29
sVrequirement_style
p30
NsVnode_in_toc_tag
p31
VNODE_IN_TOC
p32
sVrequirement_in_toc
p33
VTrue
p34
sVdefault_view
p35
NsVcustom_metadata
p36
NsV_tx_position
p37
I50
sV_tx_position_end
p38
I165
sVparent
p39
g4
sVng_auto_levels_specified
p40
I01
sVng_line_start
p41
I3
sVng_col_start
p42
I1
sbsVview
p43
g0
(cstrictdoc.backend.sdoc.models.document_view
DocumentView
p44
g2
Ntp45
Rp46
(dp47
g39
g4
sVviews
p48
(lp49
g0
(cstrictdoc.backend.sdoc.models.document_view
DefaultViewElement
p50
g2
Ntp51
Rp52
(dp53
g39
g46
sVview_id
p54
VNOT_RELEVANT
p55
sVtags
p56
(lp57
sVhidden_tags
p58
(lp59
sVname
p60
Nsbasg41
I33
sg42
I836
sbsVgrammar
p61
g0
(cstrictdoc.backend.sdoc.models.document_grammar
DocumentGrammar
p62
g2
Ntp63
Rp64
(dp65
g39
g4
sVelements
p66
(lp67
g0
(cstrictdoc.backend.sdoc.models.grammar_element
GrammarElement
p68
g2
Ntp69
Rp70
(dp71
g39
g64
sVtag
p72
VSECTION
p73
sVproperty_is_composite
p74
I01
sVproperty_prefix
p75
NsVproperty_view_style
p76
NsVproperty_view_style_lower
p77
NsVfields
p78
(lp79
g0
(cstrictdoc.backend.sdoc.models.grammar_element
GrammarElementFieldString
p80
g2
Ntp81
Rp82
(dp83
g7
VUID
p84
sVhuman_title
p85
NsVgef_type
p86
VString
p87
sVrequired
p88
I00
sg6
g0
(cstrictdoc.helpers.mid
MID
p89
c__builtin__
unicode
p90
Va9af7c2472cf49bdbacecab6bc0ea7e9
p91
tp92
Rp93
sg39
Nsbag0
(g80
g2
Ntp94
Rp95
(dp96
g7
VLEVEL
p97
sg85
Nsg86
g87
sg88
I00
sg6
g0
(g89
g90
Vdc521faeb2dc4b62b65e7367b7cbf436
p98
tp99
Rp100
sg39
Nsbag0
(g80
g2
Ntp101
Rp102
(dp103
g7
VPREFIX
p104
sg85
Nsg86
g87
sg88
I00
sg6
g0
(g89
g90
Vea8a6f975748492a83548f3829f85e52
p105
tp106
Rp107
sg39
Nsbag0
(g80
g2
Ntp108
Rp109
(dp110
g7
VTITLE
p111
sg85
Nsg86
g87
sg88
I01
sg6
g0
(g89
g90
Vad33293314ff467d9eecbf769609760f
p112
tp113
Rp114
sg39
NsbasVrelations
p115
(lp116
sVfields_map
p117
ccollections
OrderedDict
p118
(tRp119
g84
g82
sg97
g95
sg104
g102
sg111
g109
ssVfield_titles
p120
(lp121
g84
ag97
ag104
ag111
asVcontent_field
p122
(g29
I-1
tp123
sV_multiline_field_index
p124
I4
sg6
g0
(g89
g90
V390ae00a260b40a89bdac523e4308d37
p125
tp126
Rp127
sg41
Nsg42
Nsbag0
(g68
g2
Ntp128
Rp129
(dp130
g39
g64
sg72
VTEXT
p131
sg74
Nsg75
Nsg76
Nsg77
Nsg78
(lp132
g0
(g80
g2
Ntp133
Rp134
(dp135
g7
g84
sg85
Nsg86
g87
sg88
I00
sg6
g0
(g89
g90
V058c713c248045b29faf4cca9705f05c
p136
tp137
Rp138
sg39
Nsbag0
(g80
g2
Ntp139
Rp140
(dp141
g7
VSTATEMENT
p142
sg85
Nsg86
g87
sg88
I01
sg6
g0
(g89
g90
Vcf2578260e2b40229836a2fc09d149e4
p143
tp144
Rp145
sg39
Nsbasg115
(lp146
sg117
g118
(tRp147
g84
g134
sg142
g140
ssg120
(lp148
g84
ag142
asg122
(g142
I1
tp149
sg124
I1
sg6
g0
(g89
g90
V5f96efad89884c5c997f9bb94c536038
p150
tp151
Rp152
sg41
Nsg42
Nsbag0
(g68
g2
Ntp153
Rp154
(dp155
g39
g64
sg72
VREQUIREMENT
p156
sg74
Nsg75
Nsg76
Nsg77
Nsg78
(lp157
g0
(g80
g2
Ntp158
Rp159
(dp160
g7
g84
sg85
Nsg86
g87
sg88
I00
sg6
g0
(g89
g90
Vddf80790f63c413ea9a752ce1348095a
p161
tp162
Rp163
sg39
Nsbag0
(g80
g2
Ntp164
Rp165
(dp166
g7
g97
sg85
Nsg86
g87
sg88
I00
sg6
g0
(g89
g90
V1b35139e2cf7431193467132dfec1664
p167
tp168
Rp169
sg39
Nsbag0
(g80
g2
Ntp170
Rp171
(dp172
g7
VSTATUS
p173
sg85
Nsg86
g87
sg88
I00
sg6
g0
(g89
g90
Vcf7a6396b5e9408f9854313f0f5e95bc
p174
tp175
Rp176
sg39
Nsbag0
(g80
g2
Ntp177
Rp178
(dp179
g7
VTAGS
p180
sg85
Nsg86
g87
sg88
I00
sg6
g0
(g89
g90
Va296239dd74b4c6aabb9c90a82ea9e48
p181
tp182
Rp183
sg39
Nsbag0
(g80
g2
Ntp184
Rp185
(dp186
g7
g111
sg85
Nsg86
g87
sg88
I00
sg6
g0
(g89
g90
Ve4a56c70d5384b1f821fd2009ea677d5
p187
tp188
Rp189
sg39
Nsbag0
(g80
g2
Ntp190
Rp191
(dp192
g7
g142
sg85
Nsg86
g87
sg88
I00
sg6
g0
(g89
g90
Vbb27cea7c3984e5983069869cc281fdb
p193
tp194
Rp195
sg39
Nsbag0
(g80
g2
Ntp196
Rp197
(dp198
g7
VRATIONALE
p199
sg85
Nsg86
g87
sg88
I00
sg6
g0
(g89
g90
V4d6e0faac73d40f58eff1e938cb35458
p200
tp201
Rp202
sg39
Nsbag0
(g80
g2
Ntp203
Rp204
(dp205
g7
VCOMMENT
p206
sg85
Nsg86
g87
sg88
I00
sg6
g0
(g89
g90
Vce0c25d9b5684a9496c6ae382186d469
p207
tp208
Rp209
sg39
Nsbasg115
(lp210
g0
(cstrictdoc.backend.sdoc.models.grammar_element
GrammarElementRelationParent
p211
g2
Ntp212
Rp213
(dp214
g39
g154
sVrelation_type
p215
VParent
p216
sVrelation_role
p217
NsVreverse_relation_role
p218
Nsg6
g0
(g89
g90
V53b45ed501314fac8e1311dd3a7f1cdd
p219
tp220
Rp221
sbag0
(cstrictdoc.backend.sdoc.models.grammar_element
GrammarElementRelationFile
p222
g2
Ntp223
Rp224
(dp225
g39
g154
sg215
VFile
p226
sg217
Nsg218
Nsg6
g0
(g89
g90
V11891c5276d846ce89cec737b568dc1d
p227
tp228
Rp229
sbasg117
g118
(tRp230
g84
g159
sg97
g165
sg173
g171
sg180
g178
sg111
g185
sg142
g191
sg199
g197
sg206
g204
ssg120
(lp231
g84
ag97
ag173
ag180
ag111
ag142
ag199
ag206
asg122
(g142
I5
tp232
sg124
I5
sg6
g0
(g89
g90
Vba61fe29b68d412db3ebfd1faa435c20
p233
tp234
Rp235
sg41
Nsg42
NsbasVregistered_elements
p236
c__builtin__
set
p237
((lp238
g73
ag156
ag131
atp239
Rp240
sVelements_by_type
p241
(dp242
g73
g70
sg131
g129
sg156
g154
ssVimport_from_file
p243
NsVis_default
p244
I01
sg41
Nsg42
NsbsVsection_contents
p245
(lp246
g0
(cstrictdoc.backend.sdoc.models.node
SDocCompositeNode
p247
g2
Ntp248
Rp249
(dp250
Vnode_type
p251
VSECTION
p252
sg78
(lp253
g0
(cstrictdoc.backend.sdoc.models.node
SDocNodeField
p254
g2
Ntp255
Rp256
(dp257
Vfield_name
p258
VTITLE
p259
sVparts
p260
(lp261
VPlaceholder
p262
asVmultiline__
p263
g29
sg37
I178
sg38
I197
sg39
g249
sVmultiline
p264
I00
sVorigin
p265
cstrictdoc.backend.sdoc.models.node
SDocNodeFieldOrigin
p266
(VDOCUMENT
p267
tp268
Rp269
sbasg115
(lp270
sg245
(lp271
g0
(cstrictdoc.backend.sdoc.models.node
SDocNode
p272
g2
Ntp273
Rp274
(dp275
g251
VTEXT
p276
sg78
(lp277
g0
(g254
g2
Ntp278
Rp279
(dp280
g258
VSTATEMENT
p281
sg260
(lp282
VThis is a placeholder child requirements document for GHOST runtime operations.\u000a\u000aPlanned scope:\u000a- local runtime\u000a- AWS runtime\u000a- Docker\u000a- EC2\u000a- ECR\u000a- nginx\u000a- HTTPS\u000a- Route53\u000a- SSM Parameter Store\u000a- persistent runtime data\u000a\u000aDetailed atomic requirements shall be added later after human approval.\u000a
p283
asg263
V>>>\u000a
p284
sg37
I205
sg38
I518
sg39
g274
sg264
I01
sg265
g269
sbasg115
(lp285
sg37
I198
sg38
I518
sg39
g249
sVis_composite
p286
I00
sg245
(lp287
sVhas_meta
p288
I00
sVfields_as_parsed
p289
g277
sVordered_fields_lookup
p290
g118
(tRp291
g281
(lp292
g279
assVng_document_reference
p293
g0
(cstrictdoc.backend.sdoc.document_reference
DocumentReference
p294
g2
Ntp295
Rp296
(dp297
V_document
p298
g4
sbsVng_including_document_reference
p299
g0
(g294
g2
Ntp300
Rp301
(dp302
g298
Nsbsg41
I13
sVng_line_end
p303
I31
sg42
I1
sVng_col_end
p304
I1
sVng_byte_start
p305
I198
sVng_byte_end
p306
I518
sVcontext
p307
g0
(cstrictdoc.backend.sdoc.models.node
SDocNodeContext
p308
g2
Ntp309
Rp310
(dp311
Vtitle_number_string
p312
g29
sVng_level
p313
I2
sbsVreserved_mid
p314
g0
(g89
g90
Vd1b7c3b7c26d4c0c8a93f981c44dc6b6
p315
tp316
Rp317
sVmid_permanent
p318
I00
sVng_resolved_custom_level
p319
VNone
p320
sVcustom_level
p321
NsVng_has_requirements
p322
I00
sVautogen
p323
I00
sbasVnode_type_close
p324
VSECTION
p325
sg37
I166
sg38
I532
sg39
g4
sg286
I01
sg288
I00
sg289
g253
sg290
g118
(tRp326
g259
(lp327
g256
assg293
g296
sg299
g301
sg41
I10
sg303
I33
sg42
I1
sg304
I1
sg305
I166
sg306
I532
sg307
g0
(g308
g2
Ntp328
Rp329
(dp330
g312
V1
p331
sg313
I1
sbsg314
g0
(g89
g90
V1e8b88f0d77447c1b4ded9185622705e
p332
tp333
Rp334
sg318
I00
sg319
Nsg321
Nsg322
I00
sg323
I00
sbasg37
I0
sg38
I532
sV_tx_filename
p335
V/home/rusbeh_ab/project/RAGstream/doc/01-Requirements/strictdoc/60_runtime_operations.sdoc
p336
sV_tx_metamodel
p337
NsV_tx_model_params
p338
NsV_tx_parser
p339
NsVreserved_title
p340
g8
sVis_bundle_document
p341
I00
sVfragments_from_files
p342
(lp343
sg322
I00
sVmeta
p344
Nsg314
g0
(g89
g90
V8ce3a1a2884f417a99a66f26080b3719
p345
tp346
Rp347
sg318
I00
sVincluded_documents
p348
(lp349
sg307
g0
(g308
g2
Ntp350
Rp351
(dp352
g312
Nsg313
I0
sbsg299
g301
sVng_including_document_from_file
p353
NsVsearch_index
p354
g0
(cstrictdoc.backend.sdoc.models.document
SDocDocumentSearchIndex
p355
g2
Ntp356
Rp357
(dp358
Vdocument_index
p359
ccollections
defaultdict
p360
(g237
tp361
Rp362
Vplaceholder
p363
g237
((lp364
Vd1b7c3b7c26d4c0c8a93f981c44dc6b6
p365
aV1e8b88f0d77447c1b4ded9185622705e
p366
atp367
Rp368
sVp
p369
g237
((lp370
g317
ag334
atp371
Rp372
sVpl
p373
g237
((lp374
g317
ag334
atp375
Rp376
sVlaceholder
p377
g237
((lp378
g317
ag334
atp379
Rp380
sVpla
p381
g237
((lp382
g317
ag334
atp383
Rp384
sVaceholder
p385
g237
((lp386
g317
ag334
atp387
Rp388
sVplac
p389
g237
((lp390
g317
ag334
atp391
Rp392
sVceholder
p393
g237
((lp394
g317
ag334
atp395
Rp396
sVplace
p397
g237
((lp398
g317
ag334
atp399
Rp400
sVeholder
p401
g237
((lp402
g317
ag334
atp403
Rp404
sVplaceh
p405
g237
((lp406
g317
ag334
atp407
Rp408
sVholder
p409
g237
((lp410
g317
ag334
atp411
Rp412
sVplaceho
p413
g237
((lp414
g317
ag334
atp415
Rp416
sVolder
p417
g237
((lp418
g317
ag334
atp419
Rp420
sVplacehol
p421
g237
((lp422
g317
ag334
atp423
Rp424
sVlder
p425
g237
((lp426
g317
ag334
atp427
Rp428
sVplacehold
p429
g237
((lp430
g317
ag334
atp431
Rp432
sVder
p433
g237
((lp434
g317
ag334
atp435
Rp436
sVplaceholde
p437
g237
((lp438
g317
ag334
atp439
Rp440
sVer
p441
g237
((lp442
g317
ag334
atp443
Rp444
sVr
p445
g237
((lp446
g317
ag334
atp447
Rp448
sVrequirements
p449
g237
((lp450
Vd1b7c3b7c26d4c0c8a93f981c44dc6b6
p451
atp452
Rp453
sVre
p454
g237
((lp455
g317
atp456
Rp457
sVequirements
p458
g237
((lp459
g317
atp460
Rp461
sVreq
p462
g237
((lp463
g317
atp464
Rp465
sVquirements
p466
g237
((lp467
g317
atp468
Rp469
sVrequ
p470
g237
((lp471
g317
atp472
Rp473
sVuirements
p474
g237
((lp475
g317
atp476
Rp477
sVrequi
p478
g237
((lp479
g317
atp480
Rp481
sVirements
p482
g237
((lp483
g317
atp484
Rp485
sVrequir
p486
g237
((lp487
g317
atp488
Rp489
sVrements
p490
g237
((lp491
g317
atp492
Rp493
sVrequire
p494
g237
((lp495
g317
atp496
Rp497
sVements
p498
g237
((lp499
g317
atp500
Rp501
sVrequirem
p502
g237
((lp503
g317
atp504
Rp505
sVments
p506
g237
((lp507
g317
atp508
Rp509
sVrequireme
p510
g237
((lp511
g317
atp512
Rp513
sVents
p514
g237
((lp515
g317
atp516
Rp517
sVrequiremen
p518
g237
((lp519
g317
atp520
Rp521
sVnts
p522
g237
((lp523
g317
atp524
Rp525
sVrequirement
p526
g237
((lp527
g317
atp528
Rp529
sVts
p530
g237
((lp531
g317
atp532
Rp533
sVs
p534
g237
((lp535
g317
atp536
Rp537
sVdocument
p538
g237
((lp539
Vd1b7c3b7c26d4c0c8a93f981c44dc6b6
p540
atp541
Rp542
sVd
p543
g237
((lp544
g317
atp545
Rp546
sVdo
p547
g237
((lp548
g317
atp549
Rp550
sVocument
p551
g237
((lp552
g317
atp553
Rp554
sVdoc
p555
g237
((lp556
g317
atp557
Rp558
sVcument
p559
g237
((lp560
g317
atp561
Rp562
sVdocu
p563
g237
((lp564
g317
atp565
Rp566
sVument
p567
g237
((lp568
g317
atp569
Rp570
sVdocum
p571
g237
((lp572
g317
atp573
Rp574
sVment
p575
g237
((lp576
g317
atp577
Rp578
sVdocume
p579
g237
((lp580
g317
atp581
Rp582
sVent
p583
g237
((lp584
g317
atp585
Rp586
sVdocumen
p587
g237
((lp588
g317
atp589
Rp590
sVnt
p591
g237
((lp592
g317
atp593
Rp594
sVt
p595
g237
((lp596
g317
atp597
Rp598
sVec2
p599
g237
((lp600
Vd1b7c3b7c26d4c0c8a93f981c44dc6b6
p601
atp602
Rp603
sVe
p604
g237
((lp605
g317
atp606
Rp607
sVec
p608
g237
((lp609
g317
atp610
Rp611
sVc2
p612
g237
((lp613
g317
atp614
Rp615
sV2
p616
g237
((lp617
g317
atp618
Rp619
sVecr
p620
g237
((lp621
Vd1b7c3b7c26d4c0c8a93f981c44dc6b6
p622
atp623
Rp624
sVcr
p625
g237
((lp626
g317
atp627
Rp628
sVnginx
p629
g237
((lp630
Vd1b7c3b7c26d4c0c8a93f981c44dc6b6
p631
atp632
Rp633
sVn
p634
g237
((lp635
g317
atp636
Rp637
sVng
p638
g237
((lp639
g317
atp640
Rp641
sVginx
p642
g237
((lp643
g317
atp644
Rp645
sVngi
p646
g237
((lp647
g317
atp648
Rp649
sVinx
p650
g237
((lp651
g317
atp652
Rp653
sVngin
p654
g237
((lp655
g317
atp656
Rp657
sVnx
p658
g237
((lp659
g317
atp660
Rp661
sVx
p662
g237
((lp663
g317
atp664
Rp665
sVssm
p666
g237
((lp667
Vd1b7c3b7c26d4c0c8a93f981c44dc6b6
p668
atp669
Rp670
sVss
p671
g237
((lp672
g317
atp673
Rp674
sVsm
p675
g237
((lp676
g317
atp677
Rp678
sVm
p679
g237
((lp680
g317
atp681
Rp682
sVghost
p683
g237
((lp684
Vd1b7c3b7c26d4c0c8a93f981c44dc6b6
p685
atp686
Rp687
sVg
p688
g237
((lp689
g317
atp690
Rp691
sVgh
p692
g237
((lp693
g317
atp694
Rp695
sVhost
p696
g237
((lp697
g317
atp698
Rp699
sVgho
p700
g237
((lp701
g317
atp702
Rp703
sVost
p704
g237
((lp705
g317
atp706
Rp707
sVghos
p708
g237
((lp709
g317
atp710
Rp711
sVst
p712
g237
((lp713
g317
atp714
Rp715
sVchild
p716
g237
((lp717
Vd1b7c3b7c26d4c0c8a93f981c44dc6b6
p718
atp719
Rp720
sVc
p721
g237
((lp722
g317
atp723
Rp724
sVch
p725
g237
((lp726
g317
atp727
Rp728
sVhild
p729
g237
((lp730
g317
atp731
Rp732
sVchi
p733
g237
((lp734
g317
atp735
Rp736
sVild
p737
g237
((lp738
g317
atp739
Rp740
sVchil
p741
g237
((lp742
g317
atp743
Rp744
sVld
p745
g237
((lp746
g317
atp747
Rp748
sVdetailed
p749
g237
((lp750
Vd1b7c3b7c26d4c0c8a93f981c44dc6b6
p751
atp752
Rp753
sVde
p754
g237
((lp755
g317
atp756
Rp757
sVetailed
p758
g237
((lp759
g317
atp760
Rp761
sVdet
p762
g237
((lp763
g317
atp764
Rp765
sVtailed
p766
g237
((lp767
g317
atp768
Rp769
sVdeta
p770
g237
((lp771
g317
atp772
Rp773
sVailed
p774
g237
((lp775
g317
atp776
Rp777
sVdetai
p778
g237
((lp779
g317
atp780
Rp781
sViled
p782
g237
((lp783
g317
atp784
Rp785
sVdetail
p786
g237
((lp787
g317
atp788
Rp789
sVled
p790
g237
((lp791
g317
atp792
Rp793
sVdetaile
p794
g237
((lp795
g317
atp796
Rp797
sVed
p798
g237
((lp799
g317
atp800
Rp801
sVplanned
p802
g237
((lp803
Vd1b7c3b7c26d4c0c8a93f981c44dc6b6
p804
atp805
Rp806
sVlanned
p807
g237
((lp808
g317
atp809
Rp810
sVanned
p811
g237
((lp812
g317
atp813
Rp814
sVplan
p815
g237
((lp816
g317
atp817
Rp818
sVnned
p819
g237
((lp820
g317
atp821
Rp822
sVplann
p823
g237
((lp824
g317
atp825
Rp826
sVned
p827
g237
((lp828
g317
atp829
Rp830
sVplanne
p831
g237
((lp832
g317
atp833
Rp834
sVfor
p835
g237
((lp836
Vd1b7c3b7c26d4c0c8a93f981c44dc6b6
p837
atp838
Rp839
sVf
p840
g237
((lp841
g317
atp842
Rp843
sVfo
p844
g237
((lp845
g317
atp846
Rp847
sVor
p848
g237
((lp849
g317
atp850
Rp851
sVbe
p852
g237
((lp853
Vd1b7c3b7c26d4c0c8a93f981c44dc6b6
p854
atp855
Rp856
sVb
p857
g237
((lp858
g317
atp859
Rp860
sVlocal
p861
g237
((lp862
Vd1b7c3b7c26d4c0c8a93f981c44dc6b6
p863
atp864
Rp865
sVl
p866
g237
((lp867
g317
atp868
Rp869
sVlo
p870
g237
((lp871
g317
atp872
Rp873
sVocal
p874
g237
((lp875
g317
atp876
Rp877
sVloc
p878
g237
((lp879
g317
atp880
Rp881
sVcal
p882
g237
((lp883
g317
atp884
Rp885
sVloca
p886
g237
((lp887
g317
atp888
Rp889
sVal
p890
g237
((lp891
g317
atp892
Rp893
sVscope
p894
g237
((lp895
Vd1b7c3b7c26d4c0c8a93f981c44dc6b6
p896
atp897
Rp898
sVsc
p899
g237
((lp900
g317
atp901
Rp902
sVcope
p903
g237
((lp904
g317
atp905
Rp906
sVsco
p907
g237
((lp908
g317
atp909
Rp910
sVope
p911
g237
((lp912
g317
atp913
Rp914
sVscop
p915
g237
((lp916
g317
atp917
Rp918
sVpe
p919
g237
((lp920
g317
atp921
Rp922
sVparameter
p923
g237
((lp924
Vd1b7c3b7c26d4c0c8a93f981c44dc6b6
p925
atp926
Rp927
sVpa
p928
g237
((lp929
g317
atp930
Rp931
sVarameter
p932
g237
((lp933
g317
atp934
Rp935
sVpar
p936
g237
((lp937
g317
atp938
Rp939
sVrameter
p940
g237
((lp941
g317
atp942
Rp943
sVpara
p944
g237
((lp945
g317
atp946
Rp947
sVameter
p948
g237
((lp949
g317
atp950
Rp951
sVparam
p952
g237
((lp953
g317
atp954
Rp955
sVmeter
p956
g237
((lp957
g317
atp958
Rp959
sVparame
p960
g237
((lp961
g317
atp962
Rp963
sVeter
p964
g237
((lp965
g317
atp966
Rp967
sVparamet
p968
g237
((lp969
g317
atp970
Rp971
sVter
p972
g237
((lp973
g317
atp974
Rp975
sVparamete
p976
g237
((lp977
g317
atp978
Rp979
sVhttps
p980
g237
((lp981
Vd1b7c3b7c26d4c0c8a93f981c44dc6b6
p982
atp983
Rp984
sVh
p985
g237
((lp986
g317
atp987
Rp988
sVht
p989
g237
((lp990
g317
atp991
Rp992
sVttps
p993
g237
((lp994
g317
atp995
Rp996
sVhtt
p997
g237
((lp998
g317
atp999
Rp1000
sVtps
p1001
g237
((lp1002
g317
atp1003
Rp1004
sVhttp
p1005
g237
((lp1006
g317
atp1007
Rp1008
sVps
p1009
g237
((lp1010
g317
atp1011
Rp1012
sVshall
p1013
g237
((lp1014
Vd1b7c3b7c26d4c0c8a93f981c44dc6b6
p1015
atp1016
Rp1017
sVsh
p1018
g237
((lp1019
g317
atp1020
Rp1021
sVhall
p1022
g237
((lp1023
g317
atp1024
Rp1025
sVsha
p1026
g237
((lp1027
g317
atp1028
Rp1029
sVall
p1030
g237
((lp1031
g317
atp1032
Rp1033
sVshal
p1034
g237
((lp1035
g317
atp1036
Rp1037
sVll
p1038
g237
((lp1039
g317
atp1040
Rp1041
sVruntime
p1042
g237
((lp1043
Vd1b7c3b7c26d4c0c8a93f981c44dc6b6
p1044
atp1045
Rp1046
sVru
p1047
g237
((lp1048
g317
atp1049
Rp1050
sVuntime
p1051
g237
((lp1052
g317
atp1053
Rp1054
sVrun
p1055
g237
((lp1056
g317
atp1057
Rp1058
sVntime
p1059
g237
((lp1060
g317
atp1061
Rp1062
sVrunt
p1063
g237
((lp1064
g317
atp1065
Rp1066
sVtime
p1067
g237
((lp1068
g317
atp1069
Rp1070
sVrunti
p1071
g237
((lp1072
g317
atp1073
Rp1074
sVime
p1075
g237
((lp1076
g317
atp1077
Rp1078
sVruntim
p1079
g237
((lp1080
g317
atp1081
Rp1082
sVme
p1083
g237
((lp1084
g317
atp1085
Rp1086
sVatomic
p1087
g237
((lp1088
Vd1b7c3b7c26d4c0c8a93f981c44dc6b6
p1089
atp1090
Rp1091
sVa
p1092
g237
((lp1093
g317
atp1094
Rp1095
sVat
p1096
g237
((lp1097
g317
atp1098
Rp1099
sVtomic
p1100
g237
((lp1101
g317
atp1102
Rp1103
sVato
p1104
g237
((lp1105
g317
atp1106
Rp1107
sVomic
p1108
g237
((lp1109
g317
atp1110
Rp1111
sVatom
p1112
g237
((lp1113
g317
atp1114
Rp1115
sVmic
p1116
g237
((lp1117
g317
atp1118
Rp1119
sVatomi
p1120
g237
((lp1121
g317
atp1122
Rp1123
sVic
p1124
g237
((lp1125
g317
atp1126
Rp1127
sVroute53
p1128
g237
((lp1129
Vd1b7c3b7c26d4c0c8a93f981c44dc6b6
p1130
atp1131
Rp1132
sVro
p1133
g237
((lp1134
g317
atp1135
Rp1136
sVoute53
p1137
g237
((lp1138
g317
atp1139
Rp1140
sVrou
p1141
g237
((lp1142
g317
atp1143
Rp1144
sVute53
p1145
g237
((lp1146
g317
atp1147
Rp1148
sVrout
p1149
g237
((lp1150
g317
atp1151
Rp1152
sVte53
p1153
g237
((lp1154
g317
atp1155
Rp1156
sVroute
p1157
g237
((lp1158
g317
atp1159
Rp1160
sVe53
p1161
g237
((lp1162
g317
atp1163
Rp1164
sVroute5
p1165
g237
((lp1166
g317
atp1167
Rp1168
sV53
p1169
g237
((lp1170
g317
atp1171
Rp1172
sV3
p1173
g237
((lp1174
g317
atp1175
Rp1176
sVpersistent
p1177
g237
((lp1178
Vd1b7c3b7c26d4c0c8a93f981c44dc6b6
p1179
atp1180
Rp1181
sVersistent
p1182
g237
((lp1183
g317
atp1184
Rp1185
sVper
p1186
g237
((lp1187
g317
atp1188
Rp1189
sVrsistent
p1190
g237
((lp1191
g317
atp1192
Rp1193
sVpers
p1194
g237
((lp1195
g317
atp1196
Rp1197
sVsistent
p1198
g237
((lp1199
g317
atp1200
Rp1201
sVpersi
p1202
g237
((lp1203
g317
atp1204
Rp1205
sVistent
p1206
g237
((lp1207
g317
atp1208
Rp1209
sVpersis
p1210
g237
((lp1211
g317
atp1212
Rp1213
sVstent
p1214
g237
((lp1215
g317
atp1216
Rp1217
sVpersist
p1218
g237
((lp1219
g317
atp1220
Rp1221
sVtent
p1222
g237
((lp1223
g317
atp1224
Rp1225
sVpersiste
p1226
g237
((lp1227
g317
atp1228
Rp1229
sVpersisten
p1230
g237
((lp1231
g317
atp1232
Rp1233
sVhuman
p1234
g237
((lp1235
Vd1b7c3b7c26d4c0c8a93f981c44dc6b6
p1236
atp1237
Rp1238
sVhu
p1239
g237
((lp1240
g317
atp1241
Rp1242
sVuman
p1243
g237
((lp1244
g317
atp1245
Rp1246
sVhum
p1247
g237
((lp1248
g317
atp1249
Rp1250
sVman
p1251
g237
((lp1252
g317
atp1253
Rp1254
sVhuma
p1255
g237
((lp1256
g317
atp1257
Rp1258
sVan
p1259
g237
((lp1260
g317
atp1261
Rp1262
sVstore
p1263
g237
((lp1264
Vd1b7c3b7c26d4c0c8a93f981c44dc6b6
p1265
atp1266
Rp1267
sVtore
p1268
g237
((lp1269
g317
atp1270
Rp1271
sVsto
p1272
g237
((lp1273
g317
atp1274
Rp1275
sVore
p1276
g237
((lp1277
g317
atp1278
Rp1279
sVstor
p1280
g237
((lp1281
g317
atp1282
Rp1283
sVaws
p1284
g237
((lp1285
Vd1b7c3b7c26d4c0c8a93f981c44dc6b6
p1286
atp1287
Rp1288
sVaw
p1289
g237
((lp1290
g317
atp1291
Rp1292
sVws
p1293
g237
((lp1294
g317
atp1295
Rp1296
sVdocker
p1297
g237
((lp1298
Vd1b7c3b7c26d4c0c8a93f981c44dc6b6
p1299
atp1300
Rp1301
sVocker
p1302
g237
((lp1303
g317
atp1304
Rp1305
sVcker
p1306
g237
((lp1307
g317
atp1308
Rp1309
sVdock
p1310
g237
((lp1311
g317
atp1312
Rp1313
sVker
p1314
g237
((lp1315
g317
atp1316
Rp1317
sVdocke
p1318
g237
((lp1319
g317
atp1320
Rp1321
sVafter
p1322
g237
((lp1323
Vd1b7c3b7c26d4c0c8a93f981c44dc6b6
p1324
atp1325
Rp1326
sVaf
p1327
g237
((lp1328
g317
atp1329
Rp1330
sVfter
p1331
g237
((lp1332
g317
atp1333
Rp1334
sVaft
p1335
g237
((lp1336
g317
atp1337
Rp1338
sVafte
p1339
g237
((lp1340
g317
atp1341
Rp1342
sVapproval
p1343
g237
((lp1344
Vd1b7c3b7c26d4c0c8a93f981c44dc6b6
p1345
atp1346
Rp1347
sVap
p1348
g237
((lp1349
g317
atp1350
Rp1351
sVpproval
p1352
g237
((lp1353
g317
atp1354
Rp1355
sVapp
p1356
g237
((lp1357
g317
atp1358
Rp1359
sVproval
p1360
g237
((lp1361
g317
atp1362
Rp1363
sVappr
p1364
g237
((lp1365
g317
atp1366
Rp1367
sVroval
p1368
g237
((lp1369
g317
atp1370
Rp1371
sVappro
p1372
g237
((lp1373
g317
atp1374
Rp1375
sVoval
p1376
g237
((lp1377
g317
atp1378
Rp1379
sVapprov
p1380
g237
((lp1381
g317
atp1382
Rp1383
sVval
p1384
g237
((lp1385
g317
atp1386
Rp1387
sVapprova
p1388
g237
((lp1389
g317
atp1390
Rp1391
sVdata
p1392
g237
((lp1393
Vd1b7c3b7c26d4c0c8a93f981c44dc6b6
p1394
atp1395
Rp1396
sVda
p1397
g237
((lp1398
g317
atp1399
Rp1400
sVata
p1401
g237
((lp1402
g317
atp1403
Rp1404
sVdat
p1405
g237
((lp1406
g317
atp1407
Rp1408
sVta
p1409
g237
((lp1410
g317
atp1411
Rp1412
sVlater
p1413
g237
((lp1414
Vd1b7c3b7c26d4c0c8a93f981c44dc6b6
p1415
atp1416
Rp1417
sVla
p1418
g237
((lp1419
g317
atp1420
Rp1421
sVater
p1422
g237
((lp1423
g317
atp1424
Rp1425
sVlat
p1426
g237
((lp1427
g317
atp1428
Rp1429
sVlate
p1430
g237
((lp1431
g317
atp1432
Rp1433
sVthis
p1434
g237
((lp1435
Vd1b7c3b7c26d4c0c8a93f981c44dc6b6
p1436
atp1437
Rp1438
sVth
p1439
g237
((lp1440
g317
atp1441
Rp1442
sVhis
p1443
g237
((lp1444
g317
atp1445
Rp1446
sVthi
p1447
g237
((lp1448
g317
atp1449
Rp1450
sVis
p1451
g237
((lp1452
g317
atp1453
Rp1454
sVadded
p1455
g237
((lp1456
Vd1b7c3b7c26d4c0c8a93f981c44dc6b6
p1457
atp1458
Rp1459
sVad
p1460
g237
((lp1461
g317
atp1462
Rp1463
sVdded
p1464
g237
((lp1465
g317
atp1466
Rp1467
sVadd
p1468
g237
((lp1469
g317
atp1470
Rp1471
sVded
p1472
g237
((lp1473
g317
atp1474
Rp1475
sVadde
p1476
g237
((lp1477
g317
atp1478
Rp1479
sVi
p1480
g237
((lp1481
g317
atp1482
Rp1483
sVoperations
p1484
g237
((lp1485
Vd1b7c3b7c26d4c0c8a93f981c44dc6b6
p1486
atp1487
Rp1488
sVo
p1489
g237
((lp1490
g317
atp1491
Rp1492
sVop
p1493
g237
((lp1494
g317
atp1495
Rp1496
sVperations
p1497
g237
((lp1498
g317
atp1499
Rp1500
sVerations
p1501
g237
((lp1502
g317
atp1503
Rp1504
sVoper
p1505
g237
((lp1506
g317
atp1507
Rp1508
sVrations
p1509
g237
((lp1510
g317
atp1511
Rp1512
sVopera
p1513
g237
((lp1514
g317
atp1515
Rp1516
sVations
p1517
g237
((lp1518
g317
atp1519
Rp1520
sVoperat
p1521
g237
((lp1522
g317
atp1523
Rp1524
sVtions
p1525
g237
((lp1526
g317
atp1527
Rp1528
sVoperati
p1529
g237
((lp1530
g317
atp1531
Rp1532
sVions
p1533
g237
((lp1534
g317
atp1535
Rp1536
sVoperatio
p1537
g237
((lp1538
g317
atp1539
Rp1540
sVons
p1541
g237
((lp1542
g317
atp1543
Rp1544
sVoperation
p1545
g237
((lp1546
g317
atp1547
Rp1548
sVns
p1549
g237
((lp1550
g317
atp1551
Rp1552
ssVmap_nodes_by_mid
p1553
(dp1554
V1e8b88f0d77447c1b4ded9185622705e
p1555
(dp1556
VMID
p1557
V1e8b88f0d77447c1b4ded9185622705e
p1558
sg259
g262
ssVd1b7c3b7c26d4c0c8a93f981c44dc6b6
p1559
(dp1560
g1557
Vd1b7c3b7c26d4c0c8a93f981c44dc6b6
p1561
sg281
g283
sssbsVng_source_content
p1562
Nsg323
I00
sV_tx_attrs
p1563
NsV_tx_peg_rule
p1564
Nsb.