ccopy_reg
_reconstructor
p0
(cstrictdoc.backend.sdoc.models.document
SDocDocument
p1
c__builtin__
object
p2
Ntp3
Rp4
(dp5
Vmid
p6
NsVtitle
p7
VQuality Governance Requirements
p8
sVconfig
p9
g0
(cstrictdoc.backend.sdoc.models.document_config
DocumentConfig
p10
g2
Ntp11
Rp12
(dp13
Vuid
p14
VGHOST-REQ-QUALITY-GOVERNANCE
p15
sVversion
p16
V0.1-dummy
p17
sVdate
p18
NsVclassification
p19
NsVrequirement_prefix
p20
NsVroot
p21
NsVenable_mid
p22
NsVrelation_field
p23
NsVmarkup
p24
VText
p25
sVauto_levels
p26
I01
sVlayout
p27
NsVview_style_tag
p28
V
p29
sVrequirement_style
p30
NsVnode_in_toc_tag
p31
VNODE_IN_TOC
p32
sVrequirement_in_toc
p33
VTrue
p34
sVdefault_view
p35
NsVcustom_metadata
p36
NsV_tx_position
p37
I50
sV_tx_position_end
p38
I165
sVparent
p39
g4
sVng_auto_levels_specified
p40
I01
sVng_line_start
p41
I3
sVng_col_start
p42
I1
sbsVview
p43
g0
(cstrictdoc.backend.sdoc.models.document_view
DocumentView
p44
g2
Ntp45
Rp46
(dp47
g39
g4
sVviews
p48
(lp49
g0
(cstrictdoc.backend.sdoc.models.document_view
DefaultViewElement
p50
g2
Ntp51
Rp52
(dp53
g39
g46
sVview_id
p54
VNOT_RELEVANT
p55
sVtags
p56
(lp57
sVhidden_tags
p58
(lp59
sVname
p60
Nsbasg41
I32
sg42
I787
sbsVgrammar
p61
g0
(cstrictdoc.backend.sdoc.models.document_grammar
DocumentGrammar
p62
g2
Ntp63
Rp64
(dp65
g39
g4
sVelements
p66
(lp67
g0
(cstrictdoc.backend.sdoc.models.grammar_element
GrammarElement
p68
g2
Ntp69
Rp70
(dp71
g39
g64
sVtag
p72
VSECTION
p73
sVproperty_is_composite
p74
I01
sVproperty_prefix
p75
NsVproperty_view_style
p76
NsVproperty_view_style_lower
p77
NsVfields
p78
(lp79
g0
(cstrictdoc.backend.sdoc.models.grammar_element
GrammarElementFieldString
p80
g2
Ntp81
Rp82
(dp83
g7
VUID
p84
sVhuman_title
p85
NsVgef_type
p86
VString
p87
sVrequired
p88
I00
sg6
g0
(cstrictdoc.helpers.mid
MID
p89
c__builtin__
unicode
p90
V08e0c25a3bb84c10b15afa39edf57d4a
p91
tp92
Rp93
sg39
Nsbag0
(g80
g2
Ntp94
Rp95
(dp96
g7
VLEVEL
p97
sg85
Nsg86
g87
sg88
I00
sg6
g0
(g89
g90
Vd47394c918ac42f1a478434052ecd08a
p98
tp99
Rp100
sg39
Nsbag0
(g80
g2
Ntp101
Rp102
(dp103
g7
VPREFIX
p104
sg85
Nsg86
g87
sg88
I00
sg6
g0
(g89
g90
V94977513fa154accbe4a9a12a55a1233
p105
tp106
Rp107
sg39
Nsbag0
(g80
g2
Ntp108
Rp109
(dp110
g7
VTITLE
p111
sg85
Nsg86
g87
sg88
I01
sg6
g0
(g89
g90
Vdcd891ca5e024fca8dedc53b1165c979
p112
tp113
Rp114
sg39
NsbasVrelations
p115
(lp116
sVfields_map
p117
ccollections
OrderedDict
p118
(tRp119
g84
g82
sg97
g95
sg104
g102
sg111
g109
ssVfield_titles
p120
(lp121
g84
ag97
ag104
ag111
asVcontent_field
p122
(g29
I-1
tp123
sV_multiline_field_index
p124
I4
sg6
g0
(g89
g90
Ve74136ad77ea4777aa240ba9d6d84e9d
p125
tp126
Rp127
sg41
Nsg42
Nsbag0
(g68
g2
Ntp128
Rp129
(dp130
g39
g64
sg72
VTEXT
p131
sg74
Nsg75
Nsg76
Nsg77
Nsg78
(lp132
g0
(g80
g2
Ntp133
Rp134
(dp135
g7
g84
sg85
Nsg86
g87
sg88
I00
sg6
g0
(g89
g90
Va2a5a45482544c979f9ce9bad9ab99a9
p136
tp137
Rp138
sg39
Nsbag0
(g80
g2
Ntp139
Rp140
(dp141
g7
VSTATEMENT
p142
sg85
Nsg86
g87
sg88
I01
sg6
g0
(g89
g90
V9d7d02f8edc943719122b1fd2d14241d
p143
tp144
Rp145
sg39
Nsbasg115
(lp146
sg117
g118
(tRp147
g84
g134
sg142
g140
ssg120
(lp148
g84
ag142
asg122
(g142
I1
tp149
sg124
I1
sg6
g0
(g89
g90
V74f80150742a4861bad17df26f40ecbf
p150
tp151
Rp152
sg41
Nsg42
Nsbag0
(g68
g2
Ntp153
Rp154
(dp155
g39
g64
sg72
VREQUIREMENT
p156
sg74
Nsg75
Nsg76
Nsg77
Nsg78
(lp157
g0
(g80
g2
Ntp158
Rp159
(dp160
g7
g84
sg85
Nsg86
g87
sg88
I00
sg6
g0
(g89
g90
V45005ced81234102ac404280031d8e85
p161
tp162
Rp163
sg39
Nsbag0
(g80
g2
Ntp164
Rp165
(dp166
g7
g97
sg85
Nsg86
g87
sg88
I00
sg6
g0
(g89
g90
V7e955c962b0e464486527d11be851899
p167
tp168
Rp169
sg39
Nsbag0
(g80
g2
Ntp170
Rp171
(dp172
g7
VSTATUS
p173
sg85
Nsg86
g87
sg88
I00
sg6
g0
(g89
g90
V6370e7e21e914ad7a2e2f7f6323a8b74
p174
tp175
Rp176
sg39
Nsbag0
(g80
g2
Ntp177
Rp178
(dp179
g7
VTAGS
p180
sg85
Nsg86
g87
sg88
I00
sg6
g0
(g89
g90
Vf6c9cea9e8a442f89e7f75fda0566f18
p181
tp182
Rp183
sg39
Nsbag0
(g80
g2
Ntp184
Rp185
(dp186
g7
g111
sg85
Nsg86
g87
sg88
I00
sg6
g0
(g89
g90
Ve99713bb23f44e79902f4891ac53c180
p187
tp188
Rp189
sg39
Nsbag0
(g80
g2
Ntp190
Rp191
(dp192
g7
g142
sg85
Nsg86
g87
sg88
I00
sg6
g0
(g89
g90
V3ee1db91c40445a798c802ad977d7f50
p193
tp194
Rp195
sg39
Nsbag0
(g80
g2
Ntp196
Rp197
(dp198
g7
VRATIONALE
p199
sg85
Nsg86
g87
sg88
I00
sg6
g0
(g89
g90
V9a01b17bd237431494b67dd1b26023d4
p200
tp201
Rp202
sg39
Nsbag0
(g80
g2
Ntp203
Rp204
(dp205
g7
VCOMMENT
p206
sg85
Nsg86
g87
sg88
I00
sg6
g0
(g89
g90
V1fef580742ec4c028871e963492788d3
p207
tp208
Rp209
sg39
Nsbasg115
(lp210
g0
(cstrictdoc.backend.sdoc.models.grammar_element
GrammarElementRelationParent
p211
g2
Ntp212
Rp213
(dp214
g39
g154
sVrelation_type
p215
VParent
p216
sVrelation_role
p217
NsVreverse_relation_role
p218
Nsg6
g0
(g89
g90
V20b50f68452c4f68afe205d1595ee5e0
p219
tp220
Rp221
sbag0
(cstrictdoc.backend.sdoc.models.grammar_element
GrammarElementRelationFile
p222
g2
Ntp223
Rp224
(dp225
g39
g154
sg215
VFile
p226
sg217
Nsg218
Nsg6
g0
(g89
g90
Vdf60650da19d42c1a19e55fbe7c9be5f
p227
tp228
Rp229
sbasg117
g118
(tRp230
g84
g159
sg97
g165
sg173
g171
sg180
g178
sg111
g185
sg142
g191
sg199
g197
sg206
g204
ssg120
(lp231
g84
ag97
ag173
ag180
ag111
ag142
ag199
ag206
asg122
(g142
I5
tp232
sg124
I5
sg6
g0
(g89
g90
Vc3c5994bdf0d4d279bea044a4f01fee3
p233
tp234
Rp235
sg41
Nsg42
NsbasVregistered_elements
p236
c__builtin__
set
p237
((lp238
g73
ag156
ag131
atp239
Rp240
sVelements_by_type
p241
(dp242
g73
g70
sg131
g129
sg156
g154
ssVimport_from_file
p243
NsVis_default
p244
I01
sg41
Nsg42
NsbsVsection_contents
p245
(lp246
g0
(cstrictdoc.backend.sdoc.models.node
SDocCompositeNode
p247
g2
Ntp248
Rp249
(dp250
Vnode_type
p251
VSECTION
p252
sg78
(lp253
g0
(cstrictdoc.backend.sdoc.models.node
SDocNodeField
p254
g2
Ntp255
Rp256
(dp257
Vfield_name
p258
VTITLE
p259
sVparts
p260
(lp261
VPlaceholder
p262
asVmultiline__
p263
g29
sg37
I178
sg38
I197
sg39
g249
sVmultiline
p264
I00
sVorigin
p265
cstrictdoc.backend.sdoc.models.node
SDocNodeFieldOrigin
p266
(VDOCUMENT
p267
tp268
Rp269
sbasg115
(lp270
sg245
(lp271
g0
(cstrictdoc.backend.sdoc.models.node
SDocNode
p272
g2
Ntp273
Rp274
(dp275
g251
VTEXT
p276
sg78
(lp277
g0
(g254
g2
Ntp278
Rp279
(dp280
g258
VSTATEMENT
p281
sg260
(lp282
VThis is a placeholder child requirements document for GHOST quality governance.\u000a\u000aPlanned scope:\u000a- testing\u000a- logging\u000a- evaluation\u000a- security hardening\u000a- operational monitoring\u000a- component cards\u000a- source-of-truth governance\u000a- change control\u000a- measurable target definition\u000a\u000aDetailed atomic requirements shall be added later after human approval.\u000a
p283
asg263
V>>>\u000a
p284
sg37
I205
sg38
I567
sg39
g274
sg264
I01
sg265
g269
sbasg115
(lp285
sg37
I198
sg38
I567
sg39
g249
sVis_composite
p286
I00
sg245
(lp287
sVhas_meta
p288
I00
sVfields_as_parsed
p289
g277
sVordered_fields_lookup
p290
g118
(tRp291
g281
(lp292
g279
assVng_document_reference
p293
g0
(cstrictdoc.backend.sdoc.document_reference
DocumentReference
p294
g2
Ntp295
Rp296
(dp297
V_document
p298
g4
sbsVng_including_document_reference
p299
g0
(g294
g2
Ntp300
Rp301
(dp302
g298
Nsbsg41
I13
sVng_line_end
p303
I30
sg42
I1
sVng_col_end
p304
I1
sVng_byte_start
p305
I198
sVng_byte_end
p306
I567
sVcontext
p307
g0
(cstrictdoc.backend.sdoc.models.node
SDocNodeContext
p308
g2
Ntp309
Rp310
(dp311
Vtitle_number_string
p312
g29
sVng_level
p313
I2
sbsVreserved_mid
p314
g0
(g89
g90
Vfd9e993c09284ef98c3aade29f707ae1
p315
tp316
Rp317
sVmid_permanent
p318
I00
sVng_resolved_custom_level
p319
VNone
p320
sVcustom_level
p321
NsVng_has_requirements
p322
I00
sVautogen
p323
I00
sbasVnode_type_close
p324
VSECTION
p325
sg37
I166
sg38
I581
sg39
g4
sg286
I01
sg288
I00
sg289
g253
sg290
g118
(tRp326
g259
(lp327
g256
assg293
g296
sg299
g301
sg41
I10
sg303
I32
sg42
I1
sg304
I1
sg305
I166
sg306
I581
sg307
g0
(g308
g2
Ntp328
Rp329
(dp330
g312
V1
p331
sg313
I1
sbsg314
g0
(g89
g90
V9bc8603d3a594aa88fc1cef297409dc7
p332
tp333
Rp334
sg318
I00
sg319
Nsg321
Nsg322
I00
sg323
I00
sbasg37
I0
sg38
I581
sV_tx_filename
p335
V/home/rusbeh_ab/project/RAGstream/doc/01-Requirements/strictdoc/70_quality_governance.sdoc
p336
sV_tx_metamodel
p337
NsV_tx_model_params
p338
NsV_tx_parser
p339
NsVreserved_title
p340
g8
sVis_bundle_document
p341
I00
sVfragments_from_files
p342
(lp343
sg322
I00
sVmeta
p344
Nsg314
g0
(g89
g90
Vd9bfa41177c046a8a1ad4fb2f9e53e41
p345
tp346
Rp347
sg318
I00
sVincluded_documents
p348
(lp349
sg307
g0
(g308
g2
Ntp350
Rp351
(dp352
g312
Nsg313
I0
sbsg299
g301
sVng_including_document_from_file
p353
NsVsearch_index
p354
g0
(cstrictdoc.backend.sdoc.models.document
SDocDocumentSearchIndex
p355
g2
Ntp356
Rp357
(dp358
Vdocument_index
p359
ccollections
defaultdict
p360
(g237
tp361
Rp362
Vplaceholder
p363
g237
((lp364
Vfd9e993c09284ef98c3aade29f707ae1
p365
aV9bc8603d3a594aa88fc1cef297409dc7
p366
atp367
Rp368
sVp
p369
g237
((lp370
g317
ag334
atp371
Rp372
sVpl
p373
g237
((lp374
g317
ag334
atp375
Rp376
sVlaceholder
p377
g237
((lp378
g317
ag334
atp379
Rp380
sVpla
p381
g237
((lp382
g317
ag334
atp383
Rp384
sVaceholder
p385
g237
((lp386
g317
ag334
atp387
Rp388
sVplac
p389
g237
((lp390
g317
ag334
atp391
Rp392
sVceholder
p393
g237
((lp394
g317
ag334
atp395
Rp396
sVplace
p397
g237
((lp398
g317
ag334
atp399
Rp400
sVeholder
p401
g237
((lp402
g317
ag334
atp403
Rp404
sVplaceh
p405
g237
((lp406
g317
ag334
atp407
Rp408
sVholder
p409
g237
((lp410
g317
ag334
atp411
Rp412
sVplaceho
p413
g237
((lp414
g317
ag334
atp415
Rp416
sVolder
p417
g237
((lp418
g317
ag334
atp419
Rp420
sVplacehol
p421
g237
((lp422
g317
ag334
atp423
Rp424
sVlder
p425
g237
((lp426
g317
ag334
atp427
Rp428
sVplacehold
p429
g237
((lp430
g317
ag334
atp431
Rp432
sVder
p433
g237
((lp434
g317
ag334
atp435
Rp436
sVplaceholde
p437
g237
((lp438
g317
ag334
atp439
Rp440
sVer
p441
g237
((lp442
g317
ag334
atp443
Rp444
sVr
p445
g237
((lp446
g317
ag334
atp447
Rp448
sVrequirements
p449
g237
((lp450
Vfd9e993c09284ef98c3aade29f707ae1
p451
atp452
Rp453
sVre
p454
g237
((lp455
g317
atp456
Rp457
sVequirements
p458
g237
((lp459
g317
atp460
Rp461
sVreq
p462
g237
((lp463
g317
atp464
Rp465
sVquirements
p466
g237
((lp467
g317
atp468
Rp469
sVrequ
p470
g237
((lp471
g317
atp472
Rp473
sVuirements
p474
g237
((lp475
g317
atp476
Rp477
sVrequi
p478
g237
((lp479
g317
atp480
Rp481
sVirements
p482
g237
((lp483
g317
atp484
Rp485
sVrequir
p486
g237
((lp487
g317
atp488
Rp489
sVrements
p490
g237
((lp491
g317
atp492
Rp493
sVrequire
p494
g237
((lp495
g317
atp496
Rp497
sVements
p498
g237
((lp499
g317
atp500
Rp501
sVrequirem
p502
g237
((lp503
g317
atp504
Rp505
sVments
p506
g237
((lp507
g317
atp508
Rp509
sVrequireme
p510
g237
((lp511
g317
atp512
Rp513
sVents
p514
g237
((lp515
g317
atp516
Rp517
sVrequiremen
p518
g237
((lp519
g317
atp520
Rp521
sVnts
p522
g237
((lp523
g317
atp524
Rp525
sVrequirement
p526
g237
((lp527
g317
atp528
Rp529
sVts
p530
g237
((lp531
g317
atp532
Rp533
sVs
p534
g237
((lp535
g317
atp536
Rp537
sVdocument
p538
g237
((lp539
Vfd9e993c09284ef98c3aade29f707ae1
p540
atp541
Rp542
sVd
p543
g237
((lp544
g317
atp545
Rp546
sVdo
p547
g237
((lp548
g317
atp549
Rp550
sVocument
p551
g237
((lp552
g317
atp553
Rp554
sVdoc
p555
g237
((lp556
g317
atp557
Rp558
sVcument
p559
g237
((lp560
g317
atp561
Rp562
sVdocu
p563
g237
((lp564
g317
atp565
Rp566
sVument
p567
g237
((lp568
g317
atp569
Rp570
sVdocum
p571
g237
((lp572
g317
atp573
Rp574
sVment
p575
g237
((lp576
g317
atp577
Rp578
sVdocume
p579
g237
((lp580
g317
atp581
Rp582
sVent
p583
g237
((lp584
g317
atp585
Rp586
sVdocumen
p587
g237
((lp588
g317
atp589
Rp590
sVnt
p591
g237
((lp592
g317
atp593
Rp594
sVt
p595
g237
((lp596
g317
atp597
Rp598
sVevaluation
p599
g237
((lp600
Vfd9e993c09284ef98c3aade29f707ae1
p601
atp602
Rp603
sVe
p604
g237
((lp605
g317
atp606
Rp607
sVev
p608
g237
((lp609
g317
atp610
Rp611
sVvaluation
p612
g237
((lp613
g317
atp614
Rp615
sVeva
p616
g237
((lp617
g317
atp618
Rp619
sValuation
p620
g237
((lp621
g317
atp622
Rp623
sVeval
p624
g237
((lp625
g317
atp626
Rp627
sVluation
p628
g237
((lp629
g317
atp630
Rp631
sVevalu
p632
g237
((lp633
g317
atp634
Rp635
sVuation
p636
g237
((lp637
g317
atp638
Rp639
sVevalua
p640
g237
((lp641
g317
atp642
Rp643
sVation
p644
g237
((lp645
g317
atp646
Rp647
sVevaluat
p648
g237
((lp649
g317
atp650
Rp651
sVtion
p652
g237
((lp653
g317
atp654
Rp655
sVevaluati
p656
g237
((lp657
g317
atp658
Rp659
sVion
p660
g237
((lp661
g317
atp662
Rp663
sVevaluatio
p664
g237
((lp665
g317
atp666
Rp667
sVon
p668
g237
((lp669
g317
atp670
Rp671
sVn
p672
g237
((lp673
g317
atp674
Rp675
sVoperational
p676
g237
((lp677
Vfd9e993c09284ef98c3aade29f707ae1
p678
atp679
Rp680
sVo
p681
g237
((lp682
g317
atp683
Rp684
sVop
p685
g237
((lp686
g317
atp687
Rp688
sVperational
p689
g237
((lp690
g317
atp691
Rp692
sVope
p693
g237
((lp694
g317
atp695
Rp696
sVerational
p697
g237
((lp698
g317
atp699
Rp700
sVoper
p701
g237
((lp702
g317
atp703
Rp704
sVrational
p705
g237
((lp706
g317
atp707
Rp708
sVopera
p709
g237
((lp710
g317
atp711
Rp712
sVational
p713
g237
((lp714
g317
atp715
Rp716
sVoperat
p717
g237
((lp718
g317
atp719
Rp720
sVtional
p721
g237
((lp722
g317
atp723
Rp724
sVoperati
p725
g237
((lp726
g317
atp727
Rp728
sVional
p729
g237
((lp730
g317
atp731
Rp732
sVoperatio
p733
g237
((lp734
g317
atp735
Rp736
sVonal
p737
g237
((lp738
g317
atp739
Rp740
sVoperation
p741
g237
((lp742
g317
atp743
Rp744
sVnal
p745
g237
((lp746
g317
atp747
Rp748
sVoperationa
p749
g237
((lp750
g317
atp751
Rp752
sVal
p753
g237
((lp754
g317
atp755
Rp756
sVl
p757
g237
((lp758
g317
atp759
Rp760
sVsecurity
p761
g237
((lp762
Vfd9e993c09284ef98c3aade29f707ae1
p763
atp764
Rp765
sVse
p766
g237
((lp767
g317
atp768
Rp769
sVecurity
p770
g237
((lp771
g317
atp772
Rp773
sVsec
p774
g237
((lp775
g317
atp776
Rp777
sVcurity
p778
g237
((lp779
g317
atp780
Rp781
sVsecu
p782
g237
((lp783
g317
atp784
Rp785
sVurity
p786
g237
((lp787
g317
atp788
Rp789
sVsecur
p790
g237
((lp791
g317
atp792
Rp793
sVrity
p794
g237
((lp795
g317
atp796
Rp797
sVsecuri
p798
g237
((lp799
g317
atp800
Rp801
sVity
p802
g237
((lp803
g317
atp804
Rp805
sVsecurit
p806
g237
((lp807
g317
atp808
Rp809
sVty
p810
g237
((lp811
g317
atp812
Rp813
sVy
p814
g237
((lp815
g317
atp816
Rp817
sVquality
p818
g237
((lp819
Vfd9e993c09284ef98c3aade29f707ae1
p820
atp821
Rp822
sVq
p823
g237
((lp824
g317
atp825
Rp826
sVqu
p827
g237
((lp828
g317
atp829
Rp830
sVuality
p831
g237
((lp832
g317
atp833
Rp834
sVqua
p835
g237
((lp836
g317
atp837
Rp838
sVality
p839
g237
((lp840
g317
atp841
Rp842
sVqual
p843
g237
((lp844
g317
atp845
Rp846
sVlity
p847
g237
((lp848
g317
atp849
Rp850
sVquali
p851
g237
((lp852
g317
atp853
Rp854
sVqualit
p855
g237
((lp856
g317
atp857
Rp858
sVghost
p859
g237
((lp860
Vfd9e993c09284ef98c3aade29f707ae1
p861
atp862
Rp863
sVg
p864
g237
((lp865
g317
atp866
Rp867
sVgh
p868
g237
((lp869
g317
atp870
Rp871
sVhost
p872
g237
((lp873
g317
atp874
Rp875
sVgho
p876
g237
((lp877
g317
atp878
Rp879
sVost
p880
g237
((lp881
g317
atp882
Rp883
sVghos
p884
g237
((lp885
g317
atp886
Rp887
sVst
p888
g237
((lp889
g317
atp890
Rp891
sVtesting
p892
g237
((lp893
Vfd9e993c09284ef98c3aade29f707ae1
p894
atp895
Rp896
sVte
p897
g237
((lp898
g317
atp899
Rp900
sVesting
p901
g237
((lp902
g317
atp903
Rp904
sVtes
p905
g237
((lp906
g317
atp907
Rp908
sVsting
p909
g237
((lp910
g317
atp911
Rp912
sVtest
p913
g237
((lp914
g317
atp915
Rp916
sVting
p917
g237
((lp918
g317
atp919
Rp920
sVtesti
p921
g237
((lp922
g317
atp923
Rp924
sVing
p925
g237
((lp926
g317
atp927
Rp928
sVtestin
p929
g237
((lp930
g317
atp931
Rp932
sVng
p933
g237
((lp934
g317
atp935
Rp936
sVlogging
p937
g237
((lp938
Vfd9e993c09284ef98c3aade29f707ae1
p939
atp940
Rp941
sVlo
p942
g237
((lp943
g317
atp944
Rp945
sVogging
p946
g237
((lp947
g317
atp948
Rp949
sVlog
p950
g237
((lp951
g317
atp952
Rp953
sVgging
p954
g237
((lp955
g317
atp956
Rp957
sVlogg
p958
g237
((lp959
g317
atp960
Rp961
sVging
p962
g237
((lp963
g317
atp964
Rp965
sVloggi
p966
g237
((lp967
g317
atp968
Rp969
sVloggin
p970
g237
((lp971
g317
atp972
Rp973
sVchild
p974
g237
((lp975
Vfd9e993c09284ef98c3aade29f707ae1
p976
atp977
Rp978
sVc
p979
g237
((lp980
g317
atp981
Rp982
sVch
p983
g237
((lp984
g317
atp985
Rp986
sVhild
p987
g237
((lp988
g317
atp989
Rp990
sVchi
p991
g237
((lp992
g317
atp993
Rp994
sVild
p995
g237
((lp996
g317
atp997
Rp998
sVchil
p999
g237
((lp1000
g317
atp1001
Rp1002
sVld
p1003
g237
((lp1004
g317
atp1005
Rp1006
sVdetailed
p1007
g237
((lp1008
Vfd9e993c09284ef98c3aade29f707ae1
p1009
atp1010
Rp1011
sVde
p1012
g237
((lp1013
g317
atp1014
Rp1015
sVetailed
p1016
g237
((lp1017
g317
atp1018
Rp1019
sVdet
p1020
g237
((lp1021
g317
atp1022
Rp1023
sVtailed
p1024
g237
((lp1025
g317
atp1026
Rp1027
sVdeta
p1028
g237
((lp1029
g317
atp1030
Rp1031
sVailed
p1032
g237
((lp1033
g317
atp1034
Rp1035
sVdetai
p1036
g237
((lp1037
g317
atp1038
Rp1039
sViled
p1040
g237
((lp1041
g317
atp1042
Rp1043
sVdetail
p1044
g237
((lp1045
g317
atp1046
Rp1047
sVled
p1048
g237
((lp1049
g317
atp1050
Rp1051
sVdetaile
p1052
g237
((lp1053
g317
atp1054
Rp1055
sVed
p1056
g237
((lp1057
g317
atp1058
Rp1059
sVplanned
p1060
g237
((lp1061
Vfd9e993c09284ef98c3aade29f707ae1
p1062
atp1063
Rp1064
sVlanned
p1065
g237
((lp1066
g317
atp1067
Rp1068
sVanned
p1069
g237
((lp1070
g317
atp1071
Rp1072
sVplan
p1073
g237
((lp1074
g317
atp1075
Rp1076
sVnned
p1077
g237
((lp1078
g317
atp1079
Rp1080
sVplann
p1081
g237
((lp1082
g317
atp1083
Rp1084
sVned
p1085
g237
((lp1086
g317
atp1087
Rp1088
sVplanne
p1089
g237
((lp1090
g317
atp1091
Rp1092
sVfor
p1093
g237
((lp1094
Vfd9e993c09284ef98c3aade29f707ae1
p1095
atp1096
Rp1097
sVf
p1098
g237
((lp1099
g317
atp1100
Rp1101
sVfo
p1102
g237
((lp1103
g317
atp1104
Rp1105
sVor
p1106
g237
((lp1107
g317
atp1108
Rp1109
sVbe
p1110
g237
((lp1111
Vfd9e993c09284ef98c3aade29f707ae1
p1112
atp1113
Rp1114
sVb
p1115
g237
((lp1116
g317
atp1117
Rp1118
sVsource-of-truth
p1119
g237
((lp1120
Vfd9e993c09284ef98c3aade29f707ae1
p1121
atp1122
Rp1123
sVso
p1124
g237
((lp1125
g317
atp1126
Rp1127
sVource-of-truth
p1128
g237
((lp1129
g317
atp1130
Rp1131
sVsou
p1132
g237
((lp1133
g317
atp1134
Rp1135
sVurce-of-truth
p1136
g237
((lp1137
g317
atp1138
Rp1139
sVsour
p1140
g237
((lp1141
g317
atp1142
Rp1143
sVrce-of-truth
p1144
g237
((lp1145
g317
atp1146
Rp1147
sVsourc
p1148
g237
((lp1149
g317
atp1150
Rp1151
sVce-of-truth
p1152
g237
((lp1153
g317
atp1154
Rp1155
sVsource
p1156
g237
((lp1157
g317
atp1158
Rp1159
sVe-of-truth
p1160
g237
((lp1161
g317
atp1162
Rp1163
sVsource-
p1164
g237
((lp1165
g317
atp1166
Rp1167
sV-of-truth
p1168
g237
((lp1169
g317
atp1170
Rp1171
sVsource-o
p1172
g237
((lp1173
g317
atp1174
Rp1175
sVof-truth
p1176
g237
((lp1177
g317
atp1178
Rp1179
sVsource-of
p1180
g237
((lp1181
g317
atp1182
Rp1183
sVf-truth
p1184
g237
((lp1185
g317
atp1186
Rp1187
sVsource-of-
p1188
g237
((lp1189
g317
atp1190
Rp1191
sV-truth
p1192
g237
((lp1193
g317
atp1194
Rp1195
sVsource-of-t
p1196
g237
((lp1197
g317
atp1198
Rp1199
sVtruth
p1200
g237
((lp1201
g317
atp1202
Rp1203
sVsource-of-tr
p1204
g237
((lp1205
g317
atp1206
Rp1207
sVruth
p1208
g237
((lp1209
g317
atp1210
Rp1211
sVsource-of-tru
p1212
g237
((lp1213
g317
atp1214
Rp1215
sVuth
p1216
g237
((lp1217
g317
atp1218
Rp1219
sVsource-of-trut
p1220
g237
((lp1221
g317
atp1222
Rp1223
sVth
p1224
g237
((lp1225
g317
atp1226
Rp1227
sVh
p1228
g237
((lp1229
g317
atp1230
Rp1231
sVscope
p1232
g237
((lp1233
Vfd9e993c09284ef98c3aade29f707ae1
p1234
atp1235
Rp1236
sVsc
p1237
g237
((lp1238
g317
atp1239
Rp1240
sVcope
p1241
g237
((lp1242
g317
atp1243
Rp1244
sVsco
p1245
g237
((lp1246
g317
atp1247
Rp1248
sVscop
p1249
g237
((lp1250
g317
atp1251
Rp1252
sVpe
p1253
g237
((lp1254
g317
atp1255
Rp1256
sVchange
p1257
g237
((lp1258
Vfd9e993c09284ef98c3aade29f707ae1
p1259
atp1260
Rp1261
sVhange
p1262
g237
((lp1263
g317
atp1264
Rp1265
sVcha
p1266
g237
((lp1267
g317
atp1268
Rp1269
sVange
p1270
g237
((lp1271
g317
atp1272
Rp1273
sVchan
p1274
g237
((lp1275
g317
atp1276
Rp1277
sVnge
p1278
g237
((lp1279
g317
atp1280
Rp1281
sVchang
p1282
g237
((lp1283
g317
atp1284
Rp1285
sVge
p1286
g237
((lp1287
g317
atp1288
Rp1289
sVcomponent
p1290
g237
((lp1291
Vfd9e993c09284ef98c3aade29f707ae1
p1292
atp1293
Rp1294
sVco
p1295
g237
((lp1296
g317
atp1297
Rp1298
sVomponent
p1299
g237
((lp1300
g317
atp1301
Rp1302
sVcom
p1303
g237
((lp1304
g317
atp1305
Rp1306
sVmponent
p1307
g237
((lp1308
g317
atp1309
Rp1310
sVcomp
p1311
g237
((lp1312
g317
atp1313
Rp1314
sVponent
p1315
g237
((lp1316
g317
atp1317
Rp1318
sVcompo
p1319
g237
((lp1320
g317
atp1321
Rp1322
sVonent
p1323
g237
((lp1324
g317
atp1325
Rp1326
sVcompon
p1327
g237
((lp1328
g317
atp1329
Rp1330
sVnent
p1331
g237
((lp1332
g317
atp1333
Rp1334
sVcompone
p1335
g237
((lp1336
g317
atp1337
Rp1338
sVcomponen
p1339
g237
((lp1340
g317
atp1341
Rp1342
sVtarget
p1343
g237
((lp1344
Vfd9e993c09284ef98c3aade29f707ae1
p1345
atp1346
Rp1347
sVta
p1348
g237
((lp1349
g317
atp1350
Rp1351
sVarget
p1352
g237
((lp1353
g317
atp1354
Rp1355
sVtar
p1356
g237
((lp1357
g317
atp1358
Rp1359
sVrget
p1360
g237
((lp1361
g317
atp1362
Rp1363
sVtarg
p1364
g237
((lp1365
g317
atp1366
Rp1367
sVget
p1368
g237
((lp1369
g317
atp1370
Rp1371
sVtarge
p1372
g237
((lp1373
g317
atp1374
Rp1375
sVet
p1376
g237
((lp1377
g317
atp1378
Rp1379
sVshall
p1380
g237
((lp1381
Vfd9e993c09284ef98c3aade29f707ae1
p1382
atp1383
Rp1384
sVsh
p1385
g237
((lp1386
g317
atp1387
Rp1388
sVhall
p1389
g237
((lp1390
g317
atp1391
Rp1392
sVsha
p1393
g237
((lp1394
g317
atp1395
Rp1396
sVall
p1397
g237
((lp1398
g317
atp1399
Rp1400
sVshal
p1401
g237
((lp1402
g317
atp1403
Rp1404
sVll
p1405
g237
((lp1406
g317
atp1407
Rp1408
sVdefinition
p1409
g237
((lp1410
Vfd9e993c09284ef98c3aade29f707ae1
p1411
atp1412
Rp1413
sVefinition
p1414
g237
((lp1415
g317
atp1416
Rp1417
sVdef
p1418
g237
((lp1419
g317
atp1420
Rp1421
sVfinition
p1422
g237
((lp1423
g317
atp1424
Rp1425
sVdefi
p1426
g237
((lp1427
g317
atp1428
Rp1429
sVinition
p1430
g237
((lp1431
g317
atp1432
Rp1433
sVdefin
p1434
g237
((lp1435
g317
atp1436
Rp1437
sVnition
p1438
g237
((lp1439
g317
atp1440
Rp1441
sVdefini
p1442
g237
((lp1443
g317
atp1444
Rp1445
sVition
p1446
g237
((lp1447
g317
atp1448
Rp1449
sVdefinit
p1450
g237
((lp1451
g317
atp1452
Rp1453
sVdefiniti
p1454
g237
((lp1455
g317
atp1456
Rp1457
sVdefinitio
p1458
g237
((lp1459
g317
atp1460
Rp1461
sVatomic
p1462
g237
((lp1463
Vfd9e993c09284ef98c3aade29f707ae1
p1464
atp1465
Rp1466
sVa
p1467
g237
((lp1468
g317
atp1469
Rp1470
sVat
p1471
g237
((lp1472
g317
atp1473
Rp1474
sVtomic
p1475
g237
((lp1476
g317
atp1477
Rp1478
sVato
p1479
g237
((lp1480
g317
atp1481
Rp1482
sVomic
p1483
g237
((lp1484
g317
atp1485
Rp1486
sVatom
p1487
g237
((lp1488
g317
atp1489
Rp1490
sVmic
p1491
g237
((lp1492
g317
atp1493
Rp1494
sVatomi
p1495
g237
((lp1496
g317
atp1497
Rp1498
sVic
p1499
g237
((lp1500
g317
atp1501
Rp1502
sVhuman
p1503
g237
((lp1504
Vfd9e993c09284ef98c3aade29f707ae1
p1505
atp1506
Rp1507
sVhu
p1508
g237
((lp1509
g317
atp1510
Rp1511
sVuman
p1512
g237
((lp1513
g317
atp1514
Rp1515
sVhum
p1516
g237
((lp1517
g317
atp1518
Rp1519
sVman
p1520
g237
((lp1521
g317
atp1522
Rp1523
sVhuma
p1524
g237
((lp1525
g317
atp1526
Rp1527
sVan
p1528
g237
((lp1529
g317
atp1530
Rp1531
sVgovernance
p1532
g237
((lp1533
Vfd9e993c09284ef98c3aade29f707ae1
p1534
atp1535
Rp1536
sVgo
p1537
g237
((lp1538
g317
atp1539
Rp1540
sVovernance
p1541
g237
((lp1542
g317
atp1543
Rp1544
sVgov
p1545
g237
((lp1546
g317
atp1547
Rp1548
sVvernance
p1549
g237
((lp1550
g317
atp1551
Rp1552
sVgove
p1553
g237
((lp1554
g317
atp1555
Rp1556
sVernance
p1557
g237
((lp1558
g317
atp1559
Rp1560
sVgover
p1561
g237
((lp1562
g317
atp1563
Rp1564
sVrnance
p1565
g237
((lp1566
g317
atp1567
Rp1568
sVgovern
p1569
g237
((lp1570
g317
atp1571
Rp1572
sVnance
p1573
g237
((lp1574
g317
atp1575
Rp1576
sVgoverna
p1577
g237
((lp1578
g317
atp1579
Rp1580
sVance
p1581
g237
((lp1582
g317
atp1583
Rp1584
sVgovernan
p1585
g237
((lp1586
g317
atp1587
Rp1588
sVnce
p1589
g237
((lp1590
g317
atp1591
Rp1592
sVgovernanc
p1593
g237
((lp1594
g317
atp1595
Rp1596
sVce
p1597
g237
((lp1598
g317
atp1599
Rp1600
sVmeasurable
p1601
g237
((lp1602
Vfd9e993c09284ef98c3aade29f707ae1
p1603
atp1604
Rp1605
sVm
p1606
g237
((lp1607
g317
atp1608
Rp1609
sVme
p1610
g237
((lp1611
g317
atp1612
Rp1613
sVeasurable
p1614
g237
((lp1615
g317
atp1616
Rp1617
sVmea
p1618
g237
((lp1619
g317
atp1620
Rp1621
sVasurable
p1622
g237
((lp1623
g317
atp1624
Rp1625
sVmeas
p1626
g237
((lp1627
g317
atp1628
Rp1629
sVsurable
p1630
g237
((lp1631
g317
atp1632
Rp1633
sVmeasu
p1634
g237
((lp1635
g317
atp1636
Rp1637
sVurable
p1638
g237
((lp1639
g317
atp1640
Rp1641
sVmeasur
p1642
g237
((lp1643
g317
atp1644
Rp1645
sVrable
p1646
g237
((lp1647
g317
atp1648
Rp1649
sVmeasura
p1650
g237
((lp1651
g317
atp1652
Rp1653
sVable
p1654
g237
((lp1655
g317
atp1656
Rp1657
sVmeasurab
p1658
g237
((lp1659
g317
atp1660
Rp1661
sVble
p1662
g237
((lp1663
g317
atp1664
Rp1665
sVmeasurabl
p1666
g237
((lp1667
g317
atp1668
Rp1669
sVle
p1670
g237
((lp1671
g317
atp1672
Rp1673
sVafter
p1674
g237
((lp1675
Vfd9e993c09284ef98c3aade29f707ae1
p1676
atp1677
Rp1678
sVaf
p1679
g237
((lp1680
g317
atp1681
Rp1682
sVfter
p1683
g237
((lp1684
g317
atp1685
Rp1686
sVaft
p1687
g237
((lp1688
g317
atp1689
Rp1690
sVter
p1691
g237
((lp1692
g317
atp1693
Rp1694
sVafte
p1695
g237
((lp1696
g317
atp1697
Rp1698
sVcontrol
p1699
g237
((lp1700
Vfd9e993c09284ef98c3aade29f707ae1
p1701
atp1702
Rp1703
sVontrol
p1704
g237
((lp1705
g317
atp1706
Rp1707
sVcon
p1708
g237
((lp1709
g317
atp1710
Rp1711
sVntrol
p1712
g237
((lp1713
g317
atp1714
Rp1715
sVcont
p1716
g237
((lp1717
g317
atp1718
Rp1719
sVtrol
p1720
g237
((lp1721
g317
atp1722
Rp1723
sVcontr
p1724
g237
((lp1725
g317
atp1726
Rp1727
sVrol
p1728
g237
((lp1729
g317
atp1730
Rp1731
sVcontro
p1732
g237
((lp1733
g317
atp1734
Rp1735
sVol
p1736
g237
((lp1737
g317
atp1738
Rp1739
sVapproval
p1740
g237
((lp1741
Vfd9e993c09284ef98c3aade29f707ae1
p1742
atp1743
Rp1744
sVap
p1745
g237
((lp1746
g317
atp1747
Rp1748
sVpproval
p1749
g237
((lp1750
g317
atp1751
Rp1752
sVapp
p1753
g237
((lp1754
g317
atp1755
Rp1756
sVproval
p1757
g237
((lp1758
g317
atp1759
Rp1760
sVappr
p1761
g237
((lp1762
g317
atp1763
Rp1764
sVroval
p1765
g237
((lp1766
g317
atp1767
Rp1768
sVappro
p1769
g237
((lp1770
g317
atp1771
Rp1772
sVoval
p1773
g237
((lp1774
g317
atp1775
Rp1776
sVapprov
p1777
g237
((lp1778
g317
atp1779
Rp1780
sVval
p1781
g237
((lp1782
g317
atp1783
Rp1784
sVapprova
p1785
g237
((lp1786
g317
atp1787
Rp1788
sVcards
p1789
g237
((lp1790
Vfd9e993c09284ef98c3aade29f707ae1
p1791
atp1792
Rp1793
sVca
p1794
g237
((lp1795
g317
atp1796
Rp1797
sVards
p1798
g237
((lp1799
g317
atp1800
Rp1801
sVcar
p1802
g237
((lp1803
g317
atp1804
Rp1805
sVrds
p1806
g237
((lp1807
g317
atp1808
Rp1809
sVcard
p1810
g237
((lp1811
g317
atp1812
Rp1813
sVds
p1814
g237
((lp1815
g317
atp1816
Rp1817
sVlater
p1818
g237
((lp1819
Vfd9e993c09284ef98c3aade29f707ae1
p1820
atp1821
Rp1822
sVla
p1823
g237
((lp1824
g317
atp1825
Rp1826
sVater
p1827
g237
((lp1828
g317
atp1829
Rp1830
sVlat
p1831
g237
((lp1832
g317
atp1833
Rp1834
sVlate
p1835
g237
((lp1836
g317
atp1837
Rp1838
sVthis
p1839
g237
((lp1840
Vfd9e993c09284ef98c3aade29f707ae1
p1841
atp1842
Rp1843
sVhis
p1844
g237
((lp1845
g317
atp1846
Rp1847
sVthi
p1848
g237
((lp1849
g317
atp1850
Rp1851
sVis
p1852
g237
((lp1853
g317
atp1854
Rp1855
sVadded
p1856
g237
((lp1857
Vfd9e993c09284ef98c3aade29f707ae1
p1858
atp1859
Rp1860
sVad
p1861
g237
((lp1862
g317
atp1863
Rp1864
sVdded
p1865
g237
((lp1866
g317
atp1867
Rp1868
sVadd
p1869
g237
((lp1870
g317
atp1871
Rp1872
sVded
p1873
g237
((lp1874
g317
atp1875
Rp1876
sVadde
p1877
g237
((lp1878
g317
atp1879
Rp1880
sVmonitoring
p1881
g237
((lp1882
Vfd9e993c09284ef98c3aade29f707ae1
p1883
atp1884
Rp1885
sVmo
p1886
g237
((lp1887
g317
atp1888
Rp1889
sVonitoring
p1890
g237
((lp1891
g317
atp1892
Rp1893
sVmon
p1894
g237
((lp1895
g317
atp1896
Rp1897
sVnitoring
p1898
g237
((lp1899
g317
atp1900
Rp1901
sVmoni
p1902
g237
((lp1903
g317
atp1904
Rp1905
sVitoring
p1906
g237
((lp1907
g317
atp1908
Rp1909
sVmonit
p1910
g237
((lp1911
g317
atp1912
Rp1913
sVtoring
p1914
g237
((lp1915
g317
atp1916
Rp1917
sVmonito
p1918
g237
((lp1919
g317
atp1920
Rp1921
sVoring
p1922
g237
((lp1923
g317
atp1924
Rp1925
sVmonitor
p1926
g237
((lp1927
g317
atp1928
Rp1929
sVring
p1930
g237
((lp1931
g317
atp1932
Rp1933
sVmonitori
p1934
g237
((lp1935
g317
atp1936
Rp1937
sVmonitorin
p1938
g237
((lp1939
g317
atp1940
Rp1941
sVi
p1942
g237
((lp1943
g317
atp1944
Rp1945
sVhardening
p1946
g237
((lp1947
Vfd9e993c09284ef98c3aade29f707ae1
p1948
atp1949
Rp1950
sVha
p1951
g237
((lp1952
g317
atp1953
Rp1954
sVardening
p1955
g237
((lp1956
g317
atp1957
Rp1958
sVhar
p1959
g237
((lp1960
g317
atp1961
Rp1962
sVrdening
p1963
g237
((lp1964
g317
atp1965
Rp1966
sVhard
p1967
g237
((lp1968
g317
atp1969
Rp1970
sVdening
p1971
g237
((lp1972
g317
atp1973
Rp1974
sVharde
p1975
g237
((lp1976
g317
atp1977
Rp1978
sVening
p1979
g237
((lp1980
g317
atp1981
Rp1982
sVharden
p1983
g237
((lp1984
g317
atp1985
Rp1986
sVning
p1987
g237
((lp1988
g317
atp1989
Rp1990
sVhardeni
p1991
g237
((lp1992
g317
atp1993
Rp1994
sVhardenin
p1995
g237
((lp1996
g317
atp1997
Rp1998
ssVmap_nodes_by_mid
p1999
(dp2000
V9bc8603d3a594aa88fc1cef297409dc7
p2001
(dp2002
VMID
p2003
V9bc8603d3a594aa88fc1cef297409dc7
p2004
sg259
g262
ssVfd9e993c09284ef98c3aade29f707ae1
p2005
(dp2006
g2003
Vfd9e993c09284ef98c3aade29f707ae1
p2007
sg281
g283
sssbsVng_source_content
p2008
Nsg323
I00
sV_tx_attrs
p2009
NsV_tx_peg_rule
p2010
Nsb.