ccopy_reg
_reconstructor
p0
(cstrictdoc.backend.sdoc.models.document
SDocDocument
p1
c__builtin__
object
p2
Ntp3
Rp4
(dp5
Vmid
p6
NsVtitle
p7
VRequirement Traceability Direction Requirements
p8
sVconfig
p9
g0
(cstrictdoc.backend.sdoc.models.document_config
DocumentConfig
p10
g2
Ntp11
Rp12
(dp13
Vuid
p14
VGHOST-REQ-TRACEABILITY-DIRECTION
p15
sVversion
p16
V0.1-dummy
p17
sVdate
p18
NsVclassification
p19
NsVrequirement_prefix
p20
NsVroot
p21
NsVenable_mid
p22
NsVrelation_field
p23
NsVmarkup
p24
VText
p25
sVauto_levels
p26
I01
sVlayout
p27
NsVview_style_tag
p28
V
p29
sVrequirement_style
p30
NsVnode_in_toc_tag
p31
VNODE_IN_TOC
p32
sVrequirement_in_toc
p33
VTrue
p34
sVdefault_view
p35
NsVcustom_metadata
p36
NsV_tx_position
p37
I66
sV_tx_position_end
p38
I185
sVparent
p39
g4
sVng_auto_levels_specified
p40
I01
sVng_line_start
p41
I3
sVng_col_start
p42
I1
sbsVview
p43
g0
(cstrictdoc.backend.sdoc.models.document_view
DocumentView
p44
g2
Ntp45
Rp46
(dp47
g39
g4
sVviews
p48
(lp49
g0
(cstrictdoc.backend.sdoc.models.document_view
DefaultViewElement
p50
g2
Ntp51
Rp52
(dp53
g39
g46
sVview_id
p54
VNOT_RELEVANT
p55
sVtags
p56
(lp57
sVhidden_tags
p58
(lp59
sVname
p60
Nsbasg41
I29
sg42
I750
sbsVgrammar
p61
g0
(cstrictdoc.backend.sdoc.models.document_grammar
DocumentGrammar
p62
g2
Ntp63
Rp64
(dp65
g39
g4
sVelements
p66
(lp67
g0
(cstrictdoc.backend.sdoc.models.grammar_element
GrammarElement
p68
g2
Ntp69
Rp70
(dp71
g39
g64
sVtag
p72
VSECTION
p73
sVproperty_is_composite
p74
I01
sVproperty_prefix
p75
NsVproperty_view_style
p76
NsVproperty_view_style_lower
p77
NsVfields
p78
(lp79
g0
(cstrictdoc.backend.sdoc.models.grammar_element
GrammarElementFieldString
p80
g2
Ntp81
Rp82
(dp83
g7
VUID
p84
sVhuman_title
p85
NsVgef_type
p86
VString
p87
sVrequired
p88
I00
sg6
g0
(cstrictdoc.helpers.mid
MID
p89
c__builtin__
unicode
p90
V92af9eebcaee4a5bba518e04a4ec6a7b
p91
tp92
Rp93
sg39
Nsbag0
(g80
g2
Ntp94
Rp95
(dp96
g7
VLEVEL
p97
sg85
Nsg86
g87
sg88
I00
sg6
g0
(g89
g90
Vb850ad654ef941d59f2ff3ddd5986dbe
p98
tp99
Rp100
sg39
Nsbag0
(g80
g2
Ntp101
Rp102
(dp103
g7
VPREFIX
p104
sg85
Nsg86
g87
sg88
I00
sg6
g0
(g89
g90
V16157f91e778481fbd5c28667ef1dbdb
p105
tp106
Rp107
sg39
Nsbag0
(g80
g2
Ntp108
Rp109
(dp110
g7
VTITLE
p111
sg85
Nsg86
g87
sg88
I01
sg6
g0
(g89
g90
Vab6b47a1d4cf4a4a8846831deac23b9b
p112
tp113
Rp114
sg39
NsbasVrelations
p115
(lp116
sVfields_map
p117
ccollections
OrderedDict
p118
(tRp119
g84
g82
sg97
g95
sg104
g102
sg111
g109
ssVfield_titles
p120
(lp121
g84
ag97
ag104
ag111
asVcontent_field
p122
(g29
I-1
tp123
sV_multiline_field_index
p124
I4
sg6
g0
(g89
g90
V37868e4b62364a0984ec0b14901af8e4
p125
tp126
Rp127
sg41
Nsg42
Nsbag0
(g68
g2
Ntp128
Rp129
(dp130
g39
g64
sg72
VTEXT
p131
sg74
Nsg75
Nsg76
Nsg77
Nsg78
(lp132
g0
(g80
g2
Ntp133
Rp134
(dp135
g7
g84
sg85
Nsg86
g87
sg88
I00
sg6
g0
(g89
g90
V188b04468f1341a7b2910dab600351e1
p136
tp137
Rp138
sg39
Nsbag0
(g80
g2
Ntp139
Rp140
(dp141
g7
VSTATEMENT
p142
sg85
Nsg86
g87
sg88
I01
sg6
g0
(g89
g90
V925428f69422413db58ccce96a3df9d6
p143
tp144
Rp145
sg39
Nsbasg115
(lp146
sg117
g118
(tRp147
g84
g134
sg142
g140
ssg120
(lp148
g84
ag142
asg122
(g142
I1
tp149
sg124
I1
sg6
g0
(g89
g90
Vece2bc9c700a41cfb4dfd4e95c194811
p150
tp151
Rp152
sg41
Nsg42
Nsbag0
(g68
g2
Ntp153
Rp154
(dp155
g39
g64
sg72
VREQUIREMENT
p156
sg74
Nsg75
Nsg76
Nsg77
Nsg78
(lp157
g0
(g80
g2
Ntp158
Rp159
(dp160
g7
g84
sg85
Nsg86
g87
sg88
I00
sg6
g0
(g89
g90
Ve74a5244ae9a459fb5fae449cadfbf1f
p161
tp162
Rp163
sg39
Nsbag0
(g80
g2
Ntp164
Rp165
(dp166
g7
g97
sg85
Nsg86
g87
sg88
I00
sg6
g0
(g89
g90
Ve21544b9dc48444fb1e49de5c3abfe06
p167
tp168
Rp169
sg39
Nsbag0
(g80
g2
Ntp170
Rp171
(dp172
g7
VSTATUS
p173
sg85
Nsg86
g87
sg88
I00
sg6
g0
(g89
g90
V774e74cfa4d64ae08fa05061802527d5
p174
tp175
Rp176
sg39
Nsbag0
(g80
g2
Ntp177
Rp178
(dp179
g7
VTAGS
p180
sg85
Nsg86
g87
sg88
I00
sg6
g0
(g89
g90
Vb42612fd1ecd456f8ed0a081e0532752
p181
tp182
Rp183
sg39
Nsbag0
(g80
g2
Ntp184
Rp185
(dp186
g7
g111
sg85
Nsg86
g87
sg88
I00
sg6
g0
(g89
g90
Vf53d8473b6df4ec286b0fe88041728a8
p187
tp188
Rp189
sg39
Nsbag0
(g80
g2
Ntp190
Rp191
(dp192
g7
g142
sg85
Nsg86
g87
sg88
I00
sg6
g0
(g89
g90
Vd5f99c313351403087a8c31b88b5e2f9
p193
tp194
Rp195
sg39
Nsbag0
(g80
g2
Ntp196
Rp197
(dp198
g7
VRATIONALE
p199
sg85
Nsg86
g87
sg88
I00
sg6
g0
(g89
g90
Vd09f2c96bbf8403fbf1ede92d067a103
p200
tp201
Rp202
sg39
Nsbag0
(g80
g2
Ntp203
Rp204
(dp205
g7
VCOMMENT
p206
sg85
Nsg86
g87
sg88
I00
sg6
g0
(g89
g90
V80e5c56d78364efc84638035cbc77aff
p207
tp208
Rp209
sg39
Nsbasg115
(lp210
g0
(cstrictdoc.backend.sdoc.models.grammar_element
GrammarElementRelationParent
p211
g2
Ntp212
Rp213
(dp214
g39
g154
sVrelation_type
p215
VParent
p216
sVrelation_role
p217
NsVreverse_relation_role
p218
Nsg6
g0
(g89
g90
Ve7858ba7190544f09e99bede614ee418
p219
tp220
Rp221
sbag0
(cstrictdoc.backend.sdoc.models.grammar_element
GrammarElementRelationFile
p222
g2
Ntp223
Rp224
(dp225
g39
g154
sg215
VFile
p226
sg217
Nsg218
Nsg6
g0
(g89
g90
Vf997c2ff91d44b39b87d6b8fcf2e87e0
p227
tp228
Rp229
sbasg117
g118
(tRp230
g84
g159
sg97
g165
sg173
g171
sg180
g178
sg111
g185
sg142
g191
sg199
g197
sg206
g204
ssg120
(lp231
g84
ag97
ag173
ag180
ag111
ag142
ag199
ag206
asg122
(g142
I5
tp232
sg124
I5
sg6
g0
(g89
g90
V09289437f4a143bcbc41aca82b8b7039
p233
tp234
Rp235
sg41
Nsg42
NsbasVregistered_elements
p236
c__builtin__
set
p237
((lp238
g73
ag156
ag131
atp239
Rp240
sVelements_by_type
p241
(dp242
g73
g70
sg131
g129
sg156
g154
ssVimport_from_file
p243
NsVis_default
p244
I01
sg41
Nsg42
NsbsVsection_contents
p245
(lp246
g0
(cstrictdoc.backend.sdoc.models.node
SDocCompositeNode
p247
g2
Ntp248
Rp249
(dp250
Vnode_type
p251
VSECTION
p252
sg78
(lp253
g0
(cstrictdoc.backend.sdoc.models.node
SDocNodeField
p254
g2
Ntp255
Rp256
(dp257
Vfield_name
p258
VTITLE
p259
sVparts
p260
(lp261
VPlaceholder
p262
asVmultiline__
p263
g29
sg37
I198
sg38
I217
sg39
g249
sVmultiline
p264
I00
sVorigin
p265
cstrictdoc.backend.sdoc.models.node
SDocNodeFieldOrigin
p266
(VDOCUMENT
p267
tp268
Rp269
sbasg115
(lp270
sg245
(lp271
g0
(cstrictdoc.backend.sdoc.models.node
SDocNode
p272
g2
Ntp273
Rp274
(dp275
g251
VTEXT
p276
sg78
(lp277
g0
(g254
g2
Ntp278
Rp279
(dp280
g258
VSTATEMENT
p281
sg260
(lp282
VThis is a placeholder child requirements document for GHOST requirement traceability direction.\u000a\u000aPlanned scope:\u000a- stable requirement UIDs\u000a- architecture mapping\u000a- code-side UID markers\u000a- test mapping\u000a- future synchronization-agent support\u000a- human-approved artifact modification boundary\u000a\u000aDetailed atomic requirements shall be added later after human approval.\u000a
p283
asg263
V>>>\u000a
p284
sg37
I225
sg38
I604
sg39
g274
sg264
I01
sg265
g269
sbasg115
(lp285
sg37
I218
sg38
I604
sg39
g249
sVis_composite
p286
I00
sg245
(lp287
sVhas_meta
p288
I00
sVfields_as_parsed
p289
g277
sVordered_fields_lookup
p290
g118
(tRp291
g281
(lp292
g279
assVng_document_reference
p293
g0
(cstrictdoc.backend.sdoc.document_reference
DocumentReference
p294
g2
Ntp295
Rp296
(dp297
V_document
p298
g4
sbsVng_including_document_reference
p299
g0
(g294
g2
Ntp300
Rp301
(dp302
g298
Nsbsg41
I13
sVng_line_end
p303
I27
sg42
I1
sVng_col_end
p304
I1
sVng_byte_start
p305
I218
sVng_byte_end
p306
I604
sVcontext
p307
g0
(cstrictdoc.backend.sdoc.models.node
SDocNodeContext
p308
g2
Ntp309
Rp310
(dp311
Vtitle_number_string
p312
g29
sVng_level
p313
I2
sbsVreserved_mid
p314
g0
(g89
g90
V9b065b6f4ea0477bb9473a4e3bdd0c8f
p315
tp316
Rp317
sVmid_permanent
p318
I00
sVng_resolved_custom_level
p319
VNone
p320
sVcustom_level
p321
NsVng_has_requirements
p322
I00
sVautogen
p323
I00
sbasVnode_type_close
p324
VSECTION
p325
sg37
I186
sg38
I618
sg39
g4
sg286
I01
sg288
I00
sg289
g253
sg290
g118
(tRp326
g259
(lp327
g256
assg293
g296
sg299
g301
sg41
I10
sg303
I29
sg42
I1
sg304
I1
sg305
I186
sg306
I618
sg307
g0
(g308
g2
Ntp328
Rp329
(dp330
g312
V1
p331
sg313
I1
sbsg314
g0
(g89
g90
V5d69b353aced4fb09ca416f3670e3d64
p332
tp333
Rp334
sg318
I00
sg319
Nsg321
Nsg322
I00
sg323
I00
sbasg37
I0
sg38
I618
sV_tx_filename
p335
V/home/rusbeh_ab/project/RAGstream/doc/01-Requirements/strictdoc/80_requirement_traceability_direction.sdoc
p336
sV_tx_metamodel
p337
NsV_tx_model_params
p338
NsV_tx_parser
p339
NsVreserved_title
p340
g8
sVis_bundle_document
p341
I00
sVfragments_from_files
p342
(lp343
sg322
I00
sVmeta
p344
Nsg314
g0
(g89
g90
V8e678a57044e44f7ab57d2eec8d7c820
p345
tp346
Rp347
sg318
I00
sVincluded_documents
p348
(lp349
sg307
g0
(g308
g2
Ntp350
Rp351
(dp352
g312
Nsg313
I0
sbsg299
g301
sVng_including_document_from_file
p353
NsVsearch_index
p354
g0
(cstrictdoc.backend.sdoc.models.document
SDocDocumentSearchIndex
p355
g2
Ntp356
Rp357
(dp358
Vdocument_index
p359
ccollections
defaultdict
p360
(g237
tp361
Rp362
Vplaceholder
p363
g237
((lp364
V5d69b353aced4fb09ca416f3670e3d64
p365
aV9b065b6f4ea0477bb9473a4e3bdd0c8f
p366
atp367
Rp368
sVp
p369
g237
((lp370
g334
ag317
atp371
Rp372
sVpl
p373
g237
((lp374
g334
ag317
atp375
Rp376
sVlaceholder
p377
g237
((lp378
g334
ag317
atp379
Rp380
sVpla
p381
g237
((lp382
g334
ag317
atp383
Rp384
sVaceholder
p385
g237
((lp386
g334
ag317
atp387
Rp388
sVplac
p389
g237
((lp390
g334
ag317
atp391
Rp392
sVceholder
p393
g237
((lp394
g334
ag317
atp395
Rp396
sVplace
p397
g237
((lp398
g334
ag317
atp399
Rp400
sVeholder
p401
g237
((lp402
g334
ag317
atp403
Rp404
sVplaceh
p405
g237
((lp406
g334
ag317
atp407
Rp408
sVholder
p409
g237
((lp410
g334
ag317
atp411
Rp412
sVplaceho
p413
g237
((lp414
g334
ag317
atp415
Rp416
sVolder
p417
g237
((lp418
g334
ag317
atp419
Rp420
sVplacehol
p421
g237
((lp422
g334
ag317
atp423
Rp424
sVlder
p425
g237
((lp426
g334
ag317
atp427
Rp428
sVplacehold
p429
g237
((lp430
g334
ag317
atp431
Rp432
sVder
p433
g237
((lp434
g334
ag317
atp435
Rp436
sVplaceholde
p437
g237
((lp438
g334
ag317
atp439
Rp440
sVer
p441
g237
((lp442
g334
ag317
atp443
Rp444
sVr
p445
g237
((lp446
g334
ag317
atp447
Rp448
sVrequirements
p449
g237
((lp450
V9b065b6f4ea0477bb9473a4e3bdd0c8f
p451
atp452
Rp453
sVre
p454
g237
((lp455
g317
atp456
Rp457
sVequirements
p458
g237
((lp459
g317
atp460
Rp461
sVreq
p462
g237
((lp463
g317
atp464
Rp465
sVquirements
p466
g237
((lp467
g317
atp468
Rp469
sVrequ
p470
g237
((lp471
g317
atp472
Rp473
sVuirements
p474
g237
((lp475
g317
atp476
Rp477
sVrequi
p478
g237
((lp479
g317
atp480
Rp481
sVirements
p482
g237
((lp483
g317
atp484
Rp485
sVrequir
p486
g237
((lp487
g317
atp488
Rp489
sVrements
p490
g237
((lp491
g317
atp492
Rp493
sVrequire
p494
g237
((lp495
g317
atp496
Rp497
sVements
p498
g237
((lp499
g317
atp500
Rp501
sVrequirem
p502
g237
((lp503
g317
atp504
Rp505
sVments
p506
g237
((lp507
g317
atp508
Rp509
sVrequireme
p510
g237
((lp511
g317
atp512
Rp513
sVents
p514
g237
((lp515
g317
atp516
Rp517
sVrequiremen
p518
g237
((lp519
g317
atp520
Rp521
sVnts
p522
g237
((lp523
g317
atp524
Rp525
sVrequirement
p526
g237
((lp527
g317
atp528
Rp529
sVts
p530
g237
((lp531
g317
atp532
Rp533
sVs
p534
g237
((lp535
g317
atp536
Rp537
sVdocument
p538
g237
((lp539
V9b065b6f4ea0477bb9473a4e3bdd0c8f
p540
atp541
Rp542
sVd
p543
g237
((lp544
g317
atp545
Rp546
sVdo
p547
g237
((lp548
g317
atp549
Rp550
sVocument
p551
g237
((lp552
g317
atp553
Rp554
sVdoc
p555
g237
((lp556
g317
atp557
Rp558
sVcument
p559
g237
((lp560
g317
atp561
Rp562
sVdocu
p563
g237
((lp564
g317
atp565
Rp566
sVument
p567
g237
((lp568
g317
atp569
Rp570
sVdocum
p571
g237
((lp572
g317
atp573
Rp574
sVment
p575
g237
((lp576
g317
atp577
Rp578
sVdocume
p579
g237
((lp580
g317
atp581
Rp582
sVent
p583
g237
((lp584
g317
atp585
Rp586
sVdocumen
p587
g237
((lp588
g317
atp589
Rp590
sVnt
p591
g237
((lp592
g317
atp593
Rp594
sVt
p595
g237
((lp596
g317
atp597
Rp598
sVuid
p599
g237
((lp600
V9b065b6f4ea0477bb9473a4e3bdd0c8f
p601
atp602
Rp603
sVu
p604
g237
((lp605
g317
atp606
Rp607
sVui
p608
g237
((lp609
g317
atp610
Rp611
sVid
p612
g237
((lp613
g317
atp614
Rp615
sVuids
p616
g237
((lp617
V9b065b6f4ea0477bb9473a4e3bdd0c8f
p618
atp619
Rp620
sVids
p621
g237
((lp622
g317
atp623
Rp624
sVds
p625
g237
((lp626
g317
atp627
Rp628
sVghost
p629
g237
((lp630
V9b065b6f4ea0477bb9473a4e3bdd0c8f
p631
atp632
Rp633
sVg
p634
g237
((lp635
g317
atp636
Rp637
sVgh
p638
g237
((lp639
g317
atp640
Rp641
sVhost
p642
g237
((lp643
g317
atp644
Rp645
sVgho
p646
g237
((lp647
g317
atp648
Rp649
sVost
p650
g237
((lp651
g317
atp652
Rp653
sVghos
p654
g237
((lp655
g317
atp656
Rp657
sVst
p658
g237
((lp659
g317
atp660
Rp661
sVtest
p662
g237
((lp663
V9b065b6f4ea0477bb9473a4e3bdd0c8f
p664
atp665
Rp666
sVte
p667
g237
((lp668
g317
atp669
Rp670
sVest
p671
g237
((lp672
g317
atp673
Rp674
sVtes
p675
g237
((lp676
g317
atp677
Rp678
sVchild
p679
g237
((lp680
V9b065b6f4ea0477bb9473a4e3bdd0c8f
p681
atp682
Rp683
sVc
p684
g237
((lp685
g317
atp686
Rp687
sVch
p688
g237
((lp689
g317
atp690
Rp691
sVhild
p692
g237
((lp693
g317
atp694
Rp695
sVchi
p696
g237
((lp697
g317
atp698
Rp699
sVild
p700
g237
((lp701
g317
atp702
Rp703
sVchil
p704
g237
((lp705
g317
atp706
Rp707
sVld
p708
g237
((lp709
g317
atp710
Rp711
sVdetailed
p712
g237
((lp713
V9b065b6f4ea0477bb9473a4e3bdd0c8f
p714
atp715
Rp716
sVde
p717
g237
((lp718
g317
atp719
Rp720
sVetailed
p721
g237
((lp722
g317
atp723
Rp724
sVdet
p725
g237
((lp726
g317
atp727
Rp728
sVtailed
p729
g237
((lp730
g317
atp731
Rp732
sVdeta
p733
g237
((lp734
g317
atp735
Rp736
sVailed
p737
g237
((lp738
g317
atp739
Rp740
sVdetai
p741
g237
((lp742
g317
atp743
Rp744
sViled
p745
g237
((lp746
g317
atp747
Rp748
sVdetail
p749
g237
((lp750
g317
atp751
Rp752
sVled
p753
g237
((lp754
g317
atp755
Rp756
sVdetaile
p757
g237
((lp758
g317
atp759
Rp760
sVed
p761
g237
((lp762
g317
atp763
Rp764
sVplanned
p765
g237
((lp766
V9b065b6f4ea0477bb9473a4e3bdd0c8f
p767
atp768
Rp769
sVlanned
p770
g237
((lp771
g317
atp772
Rp773
sVanned
p774
g237
((lp775
g317
atp776
Rp777
sVplan
p778
g237
((lp779
g317
atp780
Rp781
sVnned
p782
g237
((lp783
g317
atp784
Rp785
sVplann
p786
g237
((lp787
g317
atp788
Rp789
sVned
p790
g237
((lp791
g317
atp792
Rp793
sVplanne
p794
g237
((lp795
g317
atp796
Rp797
sVfor
p798
g237
((lp799
V9b065b6f4ea0477bb9473a4e3bdd0c8f
p800
atp801
Rp802
sVf
p803
g237
((lp804
g317
atp805
Rp806
sVfo
p807
g237
((lp808
g317
atp809
Rp810
sVor
p811
g237
((lp812
g317
atp813
Rp814
sVbe
p815
g237
((lp816
V9b065b6f4ea0477bb9473a4e3bdd0c8f
p817
atp818
Rp819
sVb
p820
g237
((lp821
g317
atp822
Rp823
sVe
p824
g237
((lp825
g317
atp826
Rp827
sVmodification
p828
g237
((lp829
V9b065b6f4ea0477bb9473a4e3bdd0c8f
p830
atp831
Rp832
sVm
p833
g237
((lp834
g317
atp835
Rp836
sVmo
p837
g237
((lp838
g317
atp839
Rp840
sVodification
p841
g237
((lp842
g317
atp843
Rp844
sVmod
p845
g237
((lp846
g317
atp847
Rp848
sVdification
p849
g237
((lp850
g317
atp851
Rp852
sVmodi
p853
g237
((lp854
g317
atp855
Rp856
sVification
p857
g237
((lp858
g317
atp859
Rp860
sVmodif
p861
g237
((lp862
g317
atp863
Rp864
sVfication
p865
g237
((lp866
g317
atp867
Rp868
sVmodifi
p869
g237
((lp870
g317
atp871
Rp872
sVication
p873
g237
((lp874
g317
atp875
Rp876
sVmodific
p877
g237
((lp878
g317
atp879
Rp880
sVcation
p881
g237
((lp882
g317
atp883
Rp884
sVmodifica
p885
g237
((lp886
g317
atp887
Rp888
sVation
p889
g237
((lp890
g317
atp891
Rp892
sVmodificat
p893
g237
((lp894
g317
atp895
Rp896
sVtion
p897
g237
((lp898
g317
atp899
Rp900
sVmodificati
p901
g237
((lp902
g317
atp903
Rp904
sVion
p905
g237
((lp906
g317
atp907
Rp908
sVmodificatio
p909
g237
((lp910
g317
atp911
Rp912
sVon
p913
g237
((lp914
g317
atp915
Rp916
sVn
p917
g237
((lp918
g317
atp919
Rp920
sVfuture
p921
g237
((lp922
V9b065b6f4ea0477bb9473a4e3bdd0c8f
p923
atp924
Rp925
sVfu
p926
g237
((lp927
g317
atp928
Rp929
sVuture
p930
g237
((lp931
g317
atp932
Rp933
sVfut
p934
g237
((lp935
g317
atp936
Rp937
sVture
p938
g237
((lp939
g317
atp940
Rp941
sVfutu
p942
g237
((lp943
g317
atp944
Rp945
sVure
p946
g237
((lp947
g317
atp948
Rp949
sVfutur
p950
g237
((lp951
g317
atp952
Rp953
sVscope
p954
g237
((lp955
V9b065b6f4ea0477bb9473a4e3bdd0c8f
p956
atp957
Rp958
sVsc
p959
g237
((lp960
g317
atp961
Rp962
sVcope
p963
g237
((lp964
g317
atp965
Rp966
sVsco
p967
g237
((lp968
g317
atp969
Rp970
sVope
p971
g237
((lp972
g317
atp973
Rp974
sVscop
p975
g237
((lp976
g317
atp977
Rp978
sVpe
p979
g237
((lp980
g317
atp981
Rp982
sVartifact
p983
g237
((lp984
V9b065b6f4ea0477bb9473a4e3bdd0c8f
p985
atp986
Rp987
sVa
p988
g237
((lp989
g317
atp990
Rp991
sVar
p992
g237
((lp993
g317
atp994
Rp995
sVrtifact
p996
g237
((lp997
g317
atp998
Rp999
sVart
p1000
g237
((lp1001
g317
atp1002
Rp1003
sVtifact
p1004
g237
((lp1005
g317
atp1006
Rp1007
sVarti
p1008
g237
((lp1009
g317
atp1010
Rp1011
sVifact
p1012
g237
((lp1013
g317
atp1014
Rp1015
sVartif
p1016
g237
((lp1017
g317
atp1018
Rp1019
sVfact
p1020
g237
((lp1021
g317
atp1022
Rp1023
sVartifa
p1024
g237
((lp1025
g317
atp1026
Rp1027
sVact
p1028
g237
((lp1029
g317
atp1030
Rp1031
sVartifac
p1032
g237
((lp1033
g317
atp1034
Rp1035
sVct
p1036
g237
((lp1037
g317
atp1038
Rp1039
sVsupport
p1040
g237
((lp1041
V9b065b6f4ea0477bb9473a4e3bdd0c8f
p1042
atp1043
Rp1044
sVsu
p1045
g237
((lp1046
g317
atp1047
Rp1048
sVupport
p1049
g237
((lp1050
g317
atp1051
Rp1052
sVsup
p1053
g237
((lp1054
g317
atp1055
Rp1056
sVpport
p1057
g237
((lp1058
g317
atp1059
Rp1060
sVsupp
p1061
g237
((lp1062
g317
atp1063
Rp1064
sVport
p1065
g237
((lp1066
g317
atp1067
Rp1068
sVsuppo
p1069
g237
((lp1070
g317
atp1071
Rp1072
sVort
p1073
g237
((lp1074
g317
atp1075
Rp1076
sVsuppor
p1077
g237
((lp1078
g317
atp1079
Rp1080
sVrt
p1081
g237
((lp1082
g317
atp1083
Rp1084
sVmapping
p1085
g237
((lp1086
V9b065b6f4ea0477bb9473a4e3bdd0c8f
p1087
atp1088
Rp1089
sVma
p1090
g237
((lp1091
g317
atp1092
Rp1093
sVapping
p1094
g237
((lp1095
g317
atp1096
Rp1097
sVmap
p1098
g237
((lp1099
g317
atp1100
Rp1101
sVpping
p1102
g237
((lp1103
g317
atp1104
Rp1105
sVmapp
p1106
g237
((lp1107
g317
atp1108
Rp1109
sVping
p1110
g237
((lp1111
g317
atp1112
Rp1113
sVmappi
p1114
g237
((lp1115
g317
atp1116
Rp1117
sVing
p1118
g237
((lp1119
g317
atp1120
Rp1121
sVmappin
p1122
g237
((lp1123
g317
atp1124
Rp1125
sVng
p1126
g237
((lp1127
g317
atp1128
Rp1129
sVcode-side
p1130
g237
((lp1131
V9b065b6f4ea0477bb9473a4e3bdd0c8f
p1132
atp1133
Rp1134
sVco
p1135
g237
((lp1136
g317
atp1137
Rp1138
sVode-side
p1139
g237
((lp1140
g317
atp1141
Rp1142
sVcod
p1143
g237
((lp1144
g317
atp1145
Rp1146
sVde-side
p1147
g237
((lp1148
g317
atp1149
Rp1150
sVcode
p1151
g237
((lp1152
g317
atp1153
Rp1154
sVe-side
p1155
g237
((lp1156
g317
atp1157
Rp1158
sVcode-
p1159
g237
((lp1160
g317
atp1161
Rp1162
sV-side
p1163
g237
((lp1164
g317
atp1165
Rp1166
sVcode-s
p1167
g237
((lp1168
g317
atp1169
Rp1170
sVside
p1171
g237
((lp1172
g317
atp1173
Rp1174
sVcode-si
p1175
g237
((lp1176
g317
atp1177
Rp1178
sVide
p1179
g237
((lp1180
g317
atp1181
Rp1182
sVcode-sid
p1183
g237
((lp1184
g317
atp1185
Rp1186
sVshall
p1187
g237
((lp1188
V9b065b6f4ea0477bb9473a4e3bdd0c8f
p1189
atp1190
Rp1191
sVsh
p1192
g237
((lp1193
g317
atp1194
Rp1195
sVhall
p1196
g237
((lp1197
g317
atp1198
Rp1199
sVsha
p1200
g237
((lp1201
g317
atp1202
Rp1203
sVall
p1204
g237
((lp1205
g317
atp1206
Rp1207
sVshal
p1208
g237
((lp1209
g317
atp1210
Rp1211
sVll
p1212
g237
((lp1213
g317
atp1214
Rp1215
sVl
p1216
g237
((lp1217
g317
atp1218
Rp1219
sVatomic
p1220
g237
((lp1221
V9b065b6f4ea0477bb9473a4e3bdd0c8f
p1222
atp1223
Rp1224
sVat
p1225
g237
((lp1226
g317
atp1227
Rp1228
sVtomic
p1229
g237
((lp1230
g317
atp1231
Rp1232
sVato
p1233
g237
((lp1234
g317
atp1235
Rp1236
sVomic
p1237
g237
((lp1238
g317
atp1239
Rp1240
sVatom
p1241
g237
((lp1242
g317
atp1243
Rp1244
sVmic
p1245
g237
((lp1246
g317
atp1247
Rp1248
sVatomi
p1249
g237
((lp1250
g317
atp1251
Rp1252
sVic
p1253
g237
((lp1254
g317
atp1255
Rp1256
sVdirection
p1257
g237
((lp1258
V9b065b6f4ea0477bb9473a4e3bdd0c8f
p1259
atp1260
Rp1261
sVdi
p1262
g237
((lp1263
g317
atp1264
Rp1265
sVirection
p1266
g237
((lp1267
g317
atp1268
Rp1269
sVdir
p1270
g237
((lp1271
g317
atp1272
Rp1273
sVrection
p1274
g237
((lp1275
g317
atp1276
Rp1277
sVdire
p1278
g237
((lp1279
g317
atp1280
Rp1281
sVection
p1282
g237
((lp1283
g317
atp1284
Rp1285
sVdirec
p1286
g237
((lp1287
g317
atp1288
Rp1289
sVction
p1290
g237
((lp1291
g317
atp1292
Rp1293
sVdirect
p1294
g237
((lp1295
g317
atp1296
Rp1297
sVdirecti
p1298
g237
((lp1299
g317
atp1300
Rp1301
sVdirectio
p1302
g237
((lp1303
g317
atp1304
Rp1305
sVstable
p1306
g237
((lp1307
V9b065b6f4ea0477bb9473a4e3bdd0c8f
p1308
atp1309
Rp1310
sVtable
p1311
g237
((lp1312
g317
atp1313
Rp1314
sVsta
p1315
g237
((lp1316
g317
atp1317
Rp1318
sVable
p1319
g237
((lp1320
g317
atp1321
Rp1322
sVstab
p1323
g237
((lp1324
g317
atp1325
Rp1326
sVble
p1327
g237
((lp1328
g317
atp1329
Rp1330
sVstabl
p1331
g237
((lp1332
g317
atp1333
Rp1334
sVle
p1335
g237
((lp1336
g317
atp1337
Rp1338
sVhuman
p1339
g237
((lp1340
V9b065b6f4ea0477bb9473a4e3bdd0c8f
p1341
atp1342
Rp1343
sVh
p1344
g237
((lp1345
g317
atp1346
Rp1347
sVhu
p1348
g237
((lp1349
g317
atp1350
Rp1351
sVuman
p1352
g237
((lp1353
g317
atp1354
Rp1355
sVhum
p1356
g237
((lp1357
g317
atp1358
Rp1359
sVman
p1360
g237
((lp1361
g317
atp1362
Rp1363
sVhuma
p1364
g237
((lp1365
g317
atp1366
Rp1367
sVan
p1368
g237
((lp1369
g317
atp1370
Rp1371
sVhuman-approved
p1372
g237
((lp1373
V9b065b6f4ea0477bb9473a4e3bdd0c8f
p1374
atp1375
Rp1376
sVuman-approved
p1377
g237
((lp1378
g317
atp1379
Rp1380
sVman-approved
p1381
g237
((lp1382
g317
atp1383
Rp1384
sVan-approved
p1385
g237
((lp1386
g317
atp1387
Rp1388
sVn-approved
p1389
g237
((lp1390
g317
atp1391
Rp1392
sVhuman-
p1393
g237
((lp1394
g317
atp1395
Rp1396
sV-approved
p1397
g237
((lp1398
g317
atp1399
Rp1400
sVhuman-a
p1401
g237
((lp1402
g317
atp1403
Rp1404
sVapproved
p1405
g237
((lp1406
g317
atp1407
Rp1408
sVhuman-ap
p1409
g237
((lp1410
g317
atp1411
Rp1412
sVpproved
p1413
g237
((lp1414
g317
atp1415
Rp1416
sVhuman-app
p1417
g237
((lp1418
g317
atp1419
Rp1420
sVproved
p1421
g237
((lp1422
g317
atp1423
Rp1424
sVhuman-appr
p1425
g237
((lp1426
g317
atp1427
Rp1428
sVroved
p1429
g237
((lp1430
g317
atp1431
Rp1432
sVhuman-appro
p1433
g237
((lp1434
g317
atp1435
Rp1436
sVoved
p1437
g237
((lp1438
g317
atp1439
Rp1440
sVhuman-approv
p1441
g237
((lp1442
g317
atp1443
Rp1444
sVved
p1445
g237
((lp1446
g317
atp1447
Rp1448
sVhuman-approve
p1449
g237
((lp1450
g317
atp1451
Rp1452
sVafter
p1453
g237
((lp1454
V9b065b6f4ea0477bb9473a4e3bdd0c8f
p1455
atp1456
Rp1457
sVaf
p1458
g237
((lp1459
g317
atp1460
Rp1461
sVfter
p1462
g237
((lp1463
g317
atp1464
Rp1465
sVaft
p1466
g237
((lp1467
g317
atp1468
Rp1469
sVter
p1470
g237
((lp1471
g317
atp1472
Rp1473
sVafte
p1474
g237
((lp1475
g317
atp1476
Rp1477
sVequirement
p1478
g237
((lp1479
g317
atp1480
Rp1481
sVquirement
p1482
g237
((lp1483
g317
atp1484
Rp1485
sVuirement
p1486
g237
((lp1487
g317
atp1488
Rp1489
sVirement
p1490
g237
((lp1491
g317
atp1492
Rp1493
sVrement
p1494
g237
((lp1495
g317
atp1496
Rp1497
sVement
p1498
g237
((lp1499
g317
atp1500
Rp1501
sVapproval
p1502
g237
((lp1503
V9b065b6f4ea0477bb9473a4e3bdd0c8f
p1504
atp1505
Rp1506
sVap
p1507
g237
((lp1508
g317
atp1509
Rp1510
sVpproval
p1511
g237
((lp1512
g317
atp1513
Rp1514
sVapp
p1515
g237
((lp1516
g317
atp1517
Rp1518
sVproval
p1519
g237
((lp1520
g317
atp1521
Rp1522
sVappr
p1523
g237
((lp1524
g317
atp1525
Rp1526
sVroval
p1527
g237
((lp1528
g317
atp1529
Rp1530
sVappro
p1531
g237
((lp1532
g317
atp1533
Rp1534
sVoval
p1535
g237
((lp1536
g317
atp1537
Rp1538
sVapprov
p1539
g237
((lp1540
g317
atp1541
Rp1542
sVval
p1543
g237
((lp1544
g317
atp1545
Rp1546
sVapprova
p1547
g237
((lp1548
g317
atp1549
Rp1550
sVal
p1551
g237
((lp1552
g317
atp1553
Rp1554
sVboundary
p1555
g237
((lp1556
V9b065b6f4ea0477bb9473a4e3bdd0c8f
p1557
atp1558
Rp1559
sVbo
p1560
g237
((lp1561
g317
atp1562
Rp1563
sVoundary
p1564
g237
((lp1565
g317
atp1566
Rp1567
sVbou
p1568
g237
((lp1569
g317
atp1570
Rp1571
sVundary
p1572
g237
((lp1573
g317
atp1574
Rp1575
sVboun
p1576
g237
((lp1577
g317
atp1578
Rp1579
sVndary
p1580
g237
((lp1581
g317
atp1582
Rp1583
sVbound
p1584
g237
((lp1585
g317
atp1586
Rp1587
sVdary
p1588
g237
((lp1589
g317
atp1590
Rp1591
sVbounda
p1592
g237
((lp1593
g317
atp1594
Rp1595
sVary
p1596
g237
((lp1597
g317
atp1598
Rp1599
sVboundar
p1600
g237
((lp1601
g317
atp1602
Rp1603
sVry
p1604
g237
((lp1605
g317
atp1606
Rp1607
sVy
p1608
g237
((lp1609
g317
atp1610
Rp1611
sVarchitecture
p1612
g237
((lp1613
V9b065b6f4ea0477bb9473a4e3bdd0c8f
p1614
atp1615
Rp1616
sVrchitecture
p1617
g237
((lp1618
g317
atp1619
Rp1620
sVarc
p1621
g237
((lp1622
g317
atp1623
Rp1624
sVchitecture
p1625
g237
((lp1626
g317
atp1627
Rp1628
sVarch
p1629
g237
((lp1630
g317
atp1631
Rp1632
sVhitecture
p1633
g237
((lp1634
g317
atp1635
Rp1636
sVarchi
p1637
g237
((lp1638
g317
atp1639
Rp1640
sVitecture
p1641
g237
((lp1642
g317
atp1643
Rp1644
sVarchit
p1645
g237
((lp1646
g317
atp1647
Rp1648
sVtecture
p1649
g237
((lp1650
g317
atp1651
Rp1652
sVarchite
p1653
g237
((lp1654
g317
atp1655
Rp1656
sVecture
p1657
g237
((lp1658
g317
atp1659
Rp1660
sVarchitec
p1661
g237
((lp1662
g317
atp1663
Rp1664
sVcture
p1665
g237
((lp1666
g317
atp1667
Rp1668
sVarchitect
p1669
g237
((lp1670
g317
atp1671
Rp1672
sVarchitectu
p1673
g237
((lp1674
g317
atp1675
Rp1676
sVarchitectur
p1677
g237
((lp1678
g317
atp1679
Rp1680
sVlater
p1681
g237
((lp1682
V9b065b6f4ea0477bb9473a4e3bdd0c8f
p1683
atp1684
Rp1685
sVla
p1686
g237
((lp1687
g317
atp1688
Rp1689
sVater
p1690
g237
((lp1691
g317
atp1692
Rp1693
sVlat
p1694
g237
((lp1695
g317
atp1696
Rp1697
sVlate
p1698
g237
((lp1699
g317
atp1700
Rp1701
sVthis
p1702
g237
((lp1703
V9b065b6f4ea0477bb9473a4e3bdd0c8f
p1704
atp1705
Rp1706
sVth
p1707
g237
((lp1708
g317
atp1709
Rp1710
sVhis
p1711
g237
((lp1712
g317
atp1713
Rp1714
sVthi
p1715
g237
((lp1716
g317
atp1717
Rp1718
sVis
p1719
g237
((lp1720
g317
atp1721
Rp1722
sVadded
p1723
g237
((lp1724
V9b065b6f4ea0477bb9473a4e3bdd0c8f
p1725
atp1726
Rp1727
sVad
p1728
g237
((lp1729
g317
atp1730
Rp1731
sVdded
p1732
g237
((lp1733
g317
atp1734
Rp1735
sVadd
p1736
g237
((lp1737
g317
atp1738
Rp1739
sVded
p1740
g237
((lp1741
g317
atp1742
Rp1743
sVadde
p1744
g237
((lp1745
g317
atp1746
Rp1747
sVtraceability
p1748
g237
((lp1749
V9b065b6f4ea0477bb9473a4e3bdd0c8f
p1750
atp1751
Rp1752
sVtr
p1753
g237
((lp1754
g317
atp1755
Rp1756
sVraceability
p1757
g237
((lp1758
g317
atp1759
Rp1760
sVtra
p1761
g237
((lp1762
g317
atp1763
Rp1764
sVaceability
p1765
g237
((lp1766
g317
atp1767
Rp1768
sVtrac
p1769
g237
((lp1770
g317
atp1771
Rp1772
sVceability
p1773
g237
((lp1774
g317
atp1775
Rp1776
sVtrace
p1777
g237
((lp1778
g317
atp1779
Rp1780
sVeability
p1781
g237
((lp1782
g317
atp1783
Rp1784
sVtracea
p1785
g237
((lp1786
g317
atp1787
Rp1788
sVability
p1789
g237
((lp1790
g317
atp1791
Rp1792
sVtraceab
p1793
g237
((lp1794
g317
atp1795
Rp1796
sVbility
p1797
g237
((lp1798
g317
atp1799
Rp1800
sVtraceabi
p1801
g237
((lp1802
g317
atp1803
Rp1804
sVility
p1805
g237
((lp1806
g317
atp1807
Rp1808
sVtraceabil
p1809
g237
((lp1810
g317
atp1811
Rp1812
sVlity
p1813
g237
((lp1814
g317
atp1815
Rp1816
sVtraceabili
p1817
g237
((lp1818
g317
atp1819
Rp1820
sVity
p1821
g237
((lp1822
g317
atp1823
Rp1824
sVtraceabilit
p1825
g237
((lp1826
g317
atp1827
Rp1828
sVty
p1829
g237
((lp1830
g317
atp1831
Rp1832
sVsynchronization-agent
p1833
g237
((lp1834
V9b065b6f4ea0477bb9473a4e3bdd0c8f
p1835
atp1836
Rp1837
sVsy
p1838
g237
((lp1839
g317
atp1840
Rp1841
sVynchronization-agent
p1842
g237
((lp1843
g317
atp1844
Rp1845
sVsyn
p1846
g237
((lp1847
g317
atp1848
Rp1849
sVnchronization-agent
p1850
g237
((lp1851
g317
atp1852
Rp1853
sVsync
p1854
g237
((lp1855
g317
atp1856
Rp1857
sVchronization-agent
p1858
g237
((lp1859
g317
atp1860
Rp1861
sVsynch
p1862
g237
((lp1863
g317
atp1864
Rp1865
sVhronization-agent
p1866
g237
((lp1867
g317
atp1868
Rp1869
sVsynchr
p1870
g237
((lp1871
g317
atp1872
Rp1873
sVronization-agent
p1874
g237
((lp1875
g317
atp1876
Rp1877
sVsynchro
p1878
g237
((lp1879
g317
atp1880
Rp1881
sVonization-agent
p1882
g237
((lp1883
g317
atp1884
Rp1885
sVsynchron
p1886
g237
((lp1887
g317
atp1888
Rp1889
sVnization-agent
p1890
g237
((lp1891
g317
atp1892
Rp1893
sVsynchroni
p1894
g237
((lp1895
g317
atp1896
Rp1897
sVization-agent
p1898
g237
((lp1899
g317
atp1900
Rp1901
sVsynchroniz
p1902
g237
((lp1903
g317
atp1904
Rp1905
sVzation-agent
p1906
g237
((lp1907
g317
atp1908
Rp1909
sVsynchroniza
p1910
g237
((lp1911
g317
atp1912
Rp1913
sVation-agent
p1914
g237
((lp1915
g317
atp1916
Rp1917
sVsynchronizat
p1918
g237
((lp1919
g317
atp1920
Rp1921
sVtion-agent
p1922
g237
((lp1923
g317
atp1924
Rp1925
sVsynchronizati
p1926
g237
((lp1927
g317
atp1928
Rp1929
sVion-agent
p1930
g237
((lp1931
g317
atp1932
Rp1933
sVsynchronizatio
p1934
g237
((lp1935
g317
atp1936
Rp1937
sVon-agent
p1938
g237
((lp1939
g317
atp1940
Rp1941
sVsynchronization
p1942
g237
((lp1943
g317
atp1944
Rp1945
sVn-agent
p1946
g237
((lp1947
g317
atp1948
Rp1949
sVsynchronization-
p1950
g237
((lp1951
g317
atp1952
Rp1953
sV-agent
p1954
g237
((lp1955
g317
atp1956
Rp1957
sVsynchronization-a
p1958
g237
((lp1959
g317
atp1960
Rp1961
sVagent
p1962
g237
((lp1963
g317
atp1964
Rp1965
sVsynchronization-ag
p1966
g237
((lp1967
g317
atp1968
Rp1969
sVgent
p1970
g237
((lp1971
g317
atp1972
Rp1973
sVsynchronization-age
p1974
g237
((lp1975
g317
atp1976
Rp1977
sVsynchronization-agen
p1978
g237
((lp1979
g317
atp1980
Rp1981
sVmarkers
p1982
g237
((lp1983
V9b065b6f4ea0477bb9473a4e3bdd0c8f
p1984
atp1985
Rp1986
sVarkers
p1987
g237
((lp1988
g317
atp1989
Rp1990
sVmar
p1991
g237
((lp1992
g317
atp1993
Rp1994
sVrkers
p1995
g237
((lp1996
g317
atp1997
Rp1998
sVmark
p1999
g237
((lp2000
g317
atp2001
Rp2002
sVkers
p2003
g237
((lp2004
g317
atp2005
Rp2006
sVmarke
p2007
g237
((lp2008
g317
atp2009
Rp2010
sVers
p2011
g237
((lp2012
g317
atp2013
Rp2014
sVmarker
p2015
g237
((lp2016
g317
atp2017
Rp2018
sVrs
p2019
g237
((lp2020
g317
atp2021
Rp2022
sVi
p2023
g237
((lp2024
g317
atp2025
Rp2026
ssVmap_nodes_by_mid
p2027
(dp2028
V5d69b353aced4fb09ca416f3670e3d64
p2029
(dp2030
VMID
p2031
V5d69b353aced4fb09ca416f3670e3d64
p2032
sg259
g262
ssV9b065b6f4ea0477bb9473a4e3bdd0c8f
p2033
(dp2034
g2031
V9b065b6f4ea0477bb9473a4e3bdd0c8f
p2035
sg281
g283
sssbsVng_source_content
p2036
Nsg323
I00
sV_tx_attrs
p2037
NsV_tx_peg_rule
p2038
Nsb.