ccopy_reg
_reconstructor
p0
(cstrictdoc.backend.sdoc.models.document
SDocDocument
p1
c__builtin__
object
p2
Ntp3
Rp4
(dp5
Vmid
p6
NsVtitle
p7
VFuture Vision Backlog Requirements
p8
sVconfig
p9
g0
(cstrictdoc.backend.sdoc.models.document_config
DocumentConfig
p10
g2
Ntp11
Rp12
(dp13
Vuid
p14
VGHOST-REQ-FUTURE-VISION-BACKLOG
p15
sVversion
p16
V0.1-dummy
p17
sVdate
p18
NsVclassification
p19
NsVrequirement_prefix
p20
NsVroot
p21
NsVenable_mid
p22
NsVrelation_field
p23
NsVmarkup
p24
VText
p25
sVauto_levels
p26
I01
sVlayout
p27
NsVview_style_tag
p28
V
p29
sVrequirement_style
p30
NsVnode_in_toc_tag
p31
VNODE_IN_TOC
p32
sVrequirement_in_toc
p33
VTrue
p34
sVdefault_view
p35
NsVcustom_metadata
p36
NsV_tx_position
p37
I53
sV_tx_position_end
p38
I171
sVparent
p39
g4
sVng_auto_levels_specified
p40
I01
sVng_line_start
p41
I3
sVng_col_start
p42
I1
sbsVview
p43
g0
(cstrictdoc.backend.sdoc.models.document_view
DocumentView
p44
g2
Ntp45
Rp46
(dp47
g39
g4
sVviews
p48
(lp49
g0
(cstrictdoc.backend.sdoc.models.document_view
DefaultViewElement
p50
g2
Ntp51
Rp52
(dp53
g39
g46
sVview_id
p54
VNOT_RELEVANT
p55
sVtags
p56
(lp57
sVhidden_tags
p58
(lp59
sVname
p60
Nsbasg41
I28
sg42
I737
sbsVgrammar
p61
g0
(cstrictdoc.backend.sdoc.models.document_grammar
DocumentGrammar
p62
g2
Ntp63
Rp64
(dp65
g39
g4
sVelements
p66
(lp67
g0
(cstrictdoc.backend.sdoc.models.grammar_element
GrammarElement
p68
g2
Ntp69
Rp70
(dp71
g39
g64
sVtag
p72
VSECTION
p73
sVproperty_is_composite
p74
I01
sVproperty_prefix
p75
NsVproperty_view_style
p76
NsVproperty_view_style_lower
p77
NsVfields
p78
(lp79
g0
(cstrictdoc.backend.sdoc.models.grammar_element
GrammarElementFieldString
p80
g2
Ntp81
Rp82
(dp83
g7
VUID
p84
sVhuman_title
p85
NsVgef_type
p86
VString
p87
sVrequired
p88
I00
sg6
g0
(cstrictdoc.helpers.mid
MID
p89
c__builtin__
unicode
p90
Vc01760b4f8724eab8c92680bfb988951
p91
tp92
Rp93
sg39
Nsbag0
(g80
g2
Ntp94
Rp95
(dp96
g7
VLEVEL
p97
sg85
Nsg86
g87
sg88
I00
sg6
g0
(g89
g90
V4f1f895fec1d4d8d85b5a30d4aed3892
p98
tp99
Rp100
sg39
Nsbag0
(g80
g2
Ntp101
Rp102
(dp103
g7
VPREFIX
p104
sg85
Nsg86
g87
sg88
I00
sg6
g0
(g89
g90
V8a5d710adb8c429497b006797745d212
p105
tp106
Rp107
sg39
Nsbag0
(g80
g2
Ntp108
Rp109
(dp110
g7
VTITLE
p111
sg85
Nsg86
g87
sg88
I01
sg6
g0
(g89
g90
V024d03df89414edb86f824327b7f9e31
p112
tp113
Rp114
sg39
NsbasVrelations
p115
(lp116
sVfields_map
p117
ccollections
OrderedDict
p118
(tRp119
g84
g82
sg97
g95
sg104
g102
sg111
g109
ssVfield_titles
p120
(lp121
g84
ag97
ag104
ag111
asVcontent_field
p122
(g29
I-1
tp123
sV_multiline_field_index
p124
I4
sg6
g0
(g89
g90
V0e25cb2bf1154c7db0f2f13e3e0dd2d4
p125
tp126
Rp127
sg41
Nsg42
Nsbag0
(g68
g2
Ntp128
Rp129
(dp130
g39
g64
sg72
VTEXT
p131
sg74
Nsg75
Nsg76
Nsg77
Nsg78
(lp132
g0
(g80
g2
Ntp133
Rp134
(dp135
g7
g84
sg85
Nsg86
g87
sg88
I00
sg6
g0
(g89
g90
V580efc05e8a24b92a957aaa220dffcaf
p136
tp137
Rp138
sg39
Nsbag0
(g80
g2
Ntp139
Rp140
(dp141
g7
VSTATEMENT
p142
sg85
Nsg86
g87
sg88
I01
sg6
g0
(g89
g90
V6cc3087f7e824d5792c0d90c6b90f16f
p143
tp144
Rp145
sg39
Nsbasg115
(lp146
sg117
g118
(tRp147
g84
g134
sg142
g140
ssg120
(lp148
g84
ag142
asg122
(g142
I1
tp149
sg124
I1
sg6
g0
(g89
g90
V09a29869c3204f4a9e6e143a7a52ddf4
p150
tp151
Rp152
sg41
Nsg42
Nsbag0
(g68
g2
Ntp153
Rp154
(dp155
g39
g64
sg72
VREQUIREMENT
p156
sg74
Nsg75
Nsg76
Nsg77
Nsg78
(lp157
g0
(g80
g2
Ntp158
Rp159
(dp160
g7
g84
sg85
Nsg86
g87
sg88
I00
sg6
g0
(g89
g90
V16902faa602f42eea4417f0d9bc5b74f
p161
tp162
Rp163
sg39
Nsbag0
(g80
g2
Ntp164
Rp165
(dp166
g7
g97
sg85
Nsg86
g87
sg88
I00
sg6
g0
(g89
g90
V570dd3c11b954b6986c6e3afc5050fed
p167
tp168
Rp169
sg39
Nsbag0
(g80
g2
Ntp170
Rp171
(dp172
g7
VSTATUS
p173
sg85
Nsg86
g87
sg88
I00
sg6
g0
(g89
g90
V0829dfbe3f6447fd998286f045d46a84
p174
tp175
Rp176
sg39
Nsbag0
(g80
g2
Ntp177
Rp178
(dp179
g7
VTAGS
p180
sg85
Nsg86
g87
sg88
I00
sg6
g0
(g89
g90
Vfda70a0890114f7b86b8badeeeb16316
p181
tp182
Rp183
sg39
Nsbag0
(g80
g2
Ntp184
Rp185
(dp186
g7
g111
sg85
Nsg86
g87
sg88
I00
sg6
g0
(g89
g90
Vd1b8731b1bec4179bc8849fb6168457a
p187
tp188
Rp189
sg39
Nsbag0
(g80
g2
Ntp190
Rp191
(dp192
g7
g142
sg85
Nsg86
g87
sg88
I00
sg6
g0
(g89
g90
V3268cd9f310d47a2b5668469d42e46a9
p193
tp194
Rp195
sg39
Nsbag0
(g80
g2
Ntp196
Rp197
(dp198
g7
VRATIONALE
p199
sg85
Nsg86
g87
sg88
I00
sg6
g0
(g89
g90
Vfa009badf3c842ceb693869e23c8055a
p200
tp201
Rp202
sg39
Nsbag0
(g80
g2
Ntp203
Rp204
(dp205
g7
VCOMMENT
p206
sg85
Nsg86
g87
sg88
I00
sg6
g0
(g89
g90
V61b63197a51f47ffbd9695c64e79ff0d
p207
tp208
Rp209
sg39
Nsbasg115
(lp210
g0
(cstrictdoc.backend.sdoc.models.grammar_element
GrammarElementRelationParent
p211
g2
Ntp212
Rp213
(dp214
g39
g154
sVrelation_type
p215
VParent
p216
sVrelation_role
p217
NsVreverse_relation_role
p218
Nsg6
g0
(g89
g90
Va206d77b888044c9a5520a07243053ae
p219
tp220
Rp221
sbag0
(cstrictdoc.backend.sdoc.models.grammar_element
GrammarElementRelationFile
p222
g2
Ntp223
Rp224
(dp225
g39
g154
sg215
VFile
p226
sg217
Nsg218
Nsg6
g0
(g89
g90
V3d1cf3b8b1b64ff4857a88423f6bdf34
p227
tp228
Rp229
sbasg117
g118
(tRp230
g84
g159
sg97
g165
sg173
g171
sg180
g178
sg111
g185
sg142
g191
sg199
g197
sg206
g204
ssg120
(lp231
g84
ag97
ag173
ag180
ag111
ag142
ag199
ag206
asg122
(g142
I5
tp232
sg124
I5
sg6
g0
(g89
g90
V96abf59ba273480b8129242ebe9761b3
p233
tp234
Rp235
sg41
Nsg42
NsbasVregistered_elements
p236
c__builtin__
set
p237
((lp238
g73
ag156
ag131
atp239
Rp240
sVelements_by_type
p241
(dp242
g73
g70
sg131
g129
sg156
g154
ssVimport_from_file
p243
NsVis_default
p244
I01
sg41
Nsg42
NsbsVsection_contents
p245
(lp246
g0
(cstrictdoc.backend.sdoc.models.node
SDocCompositeNode
p247
g2
Ntp248
Rp249
(dp250
Vnode_type
p251
VSECTION
p252
sg78
(lp253
g0
(cstrictdoc.backend.sdoc.models.node
SDocNodeField
p254
g2
Ntp255
Rp256
(dp257
Vfield_name
p258
VTITLE
p259
sVparts
p260
(lp261
VPlaceholder
p262
asVmultiline__
p263
g29
sg37
I184
sg38
I203
sg39
g249
sVmultiline
p264
I00
sVorigin
p265
cstrictdoc.backend.sdoc.models.node
SDocNodeFieldOrigin
p266
(VDOCUMENT
p267
tp268
Rp269
sbasg115
(lp270
sg245
(lp271
g0
(cstrictdoc.backend.sdoc.models.node
SDocNode
p272
g2
Ntp273
Rp274
(dp275
g251
VTEXT
p276
sg78
(lp277
g0
(g254
g2
Ntp278
Rp279
(dp280
g258
VSTATEMENT
p281
sg260
(lp282
VThis is a placeholder child requirements document for GHOST future vision and backlog items.\u000a\u000aPlanned scope:\u000a- Ghost2\u000a- future hard-rule expansion\u000a- future model and tool routing\u000a- Blackboard Actor future boundary\u000a- backlog items not yet active requirements\u000a\u000aDetailed atomic requirements shall be added later only after human approval and promotion from future vision into active scope.\u000a
p283
asg263
V>>>\u000a
p284
sg37
I211
sg38
I617
sg39
g274
sg264
I01
sg265
g269
sbasg115
(lp285
sg37
I204
sg38
I617
sg39
g249
sVis_composite
p286
I00
sg245
(lp287
sVhas_meta
p288
I00
sVfields_as_parsed
p289
g277
sVordered_fields_lookup
p290
g118
(tRp291
g281
(lp292
g279
assVng_document_reference
p293
g0
(cstrictdoc.backend.sdoc.document_reference
DocumentReference
p294
g2
Ntp295
Rp296
(dp297
V_document
p298
g4
sbsVng_including_document_reference
p299
g0
(g294
g2
Ntp300
Rp301
(dp302
g298
Nsbsg41
I13
sVng_line_end
p303
I26
sg42
I1
sVng_col_end
p304
I1
sVng_byte_start
p305
I204
sVng_byte_end
p306
I617
sVcontext
p307
g0
(cstrictdoc.backend.sdoc.models.node
SDocNodeContext
p308
g2
Ntp309
Rp310
(dp311
Vtitle_number_string
p312
g29
sVng_level
p313
I2
sbsVreserved_mid
p314
g0
(g89
g90
Vef2006ca7e9047e7a704d3aa396edf38
p315
tp316
Rp317
sVmid_permanent
p318
I00
sVng_resolved_custom_level
p319
VNone
p320
sVcustom_level
p321
NsVng_has_requirements
p322
I00
sVautogen
p323
I00
sbasVnode_type_close
p324
VSECTION
p325
sg37
I172
sg38
I631
sg39
g4
sg286
I01
sg288
I00
sg289
g253
sg290
g118
(tRp326
g259
(lp327
g256
assg293
g296
sg299
g301
sg41
I10
sg303
I28
sg42
I1
sg304
I1
sg305
I172
sg306
I631
sg307
g0
(g308
g2
Ntp328
Rp329
(dp330
g312
V1
p331
sg313
I1
sbsg314
g0
(g89
g90
V9d938761a0a147268f238df86f3d6598
p332
tp333
Rp334
sg318
I00
sg319
Nsg321
Nsg322
I00
sg323
I00
sbasg37
I0
sg38
I631
sV_tx_filename
p335
V/home/rusbeh_ab/project/RAGstream/doc/01-Requirements/strictdoc/90_future_vision_backlog.sdoc
p336
sV_tx_metamodel
p337
NsV_tx_model_params
p338
NsV_tx_parser
p339
NsVreserved_title
p340
g8
sVis_bundle_document
p341
I00
sVfragments_from_files
p342
(lp343
sg322
I00
sVmeta
p344
Nsg314
g0
(g89
g90
V3ee5b0935fed435a8f8eb95910e2b5fd
p345
tp346
Rp347
sg318
I00
sVincluded_documents
p348
(lp349
sg307
g0
(g308
g2
Ntp350
Rp351
(dp352
g312
Nsg313
I0
sbsg299
g301
sVng_including_document_from_file
p353
NsVsearch_index
p354
g0
(cstrictdoc.backend.sdoc.models.document
SDocDocumentSearchIndex
p355
g2
Ntp356
Rp357
(dp358
Vdocument_index
p359
ccollections
defaultdict
p360
(g237
tp361
Rp362
Vplaceholder
p363
g237
((lp364
Vef2006ca7e9047e7a704d3aa396edf38
p365
aV9d938761a0a147268f238df86f3d6598
p366
atp367
Rp368
sVp
p369
g237
((lp370
g317
ag334
atp371
Rp372
sVpl
p373
g237
((lp374
g317
ag334
atp375
Rp376
sVlaceholder
p377
g237
((lp378
g317
ag334
atp379
Rp380
sVpla
p381
g237
((lp382
g317
ag334
atp383
Rp384
sVaceholder
p385
g237
((lp386
g317
ag334
atp387
Rp388
sVplac
p389
g237
((lp390
g317
ag334
atp391
Rp392
sVceholder
p393
g237
((lp394
g317
ag334
atp395
Rp396
sVplace
p397
g237
((lp398
g317
ag334
atp399
Rp400
sVeholder
p401
g237
((lp402
g317
ag334
atp403
Rp404
sVplaceh
p405
g237
((lp406
g317
ag334
atp407
Rp408
sVholder
p409
g237
((lp410
g317
ag334
atp411
Rp412
sVplaceho
p413
g237
((lp414
g317
ag334
atp415
Rp416
sVolder
p417
g237
((lp418
g317
ag334
atp419
Rp420
sVplacehol
p421
g237
((lp422
g317
ag334
atp423
Rp424
sVlder
p425
g237
((lp426
g317
ag334
atp427
Rp428
sVplacehold
p429
g237
((lp430
g317
ag334
atp431
Rp432
sVder
p433
g237
((lp434
g317
ag334
atp435
Rp436
sVplaceholde
p437
g237
((lp438
g317
ag334
atp439
Rp440
sVer
p441
g237
((lp442
g317
ag334
atp443
Rp444
sVr
p445
g237
((lp446
g317
ag334
atp447
Rp448
sVrequirements
p449
g237
((lp450
Vef2006ca7e9047e7a704d3aa396edf38
p451
atp452
Rp453
sVre
p454
g237
((lp455
g317
atp456
Rp457
sVequirements
p458
g237
((lp459
g317
atp460
Rp461
sVreq
p462
g237
((lp463
g317
atp464
Rp465
sVquirements
p466
g237
((lp467
g317
atp468
Rp469
sVrequ
p470
g237
((lp471
g317
atp472
Rp473
sVuirements
p474
g237
((lp475
g317
atp476
Rp477
sVrequi
p478
g237
((lp479
g317
atp480
Rp481
sVirements
p482
g237
((lp483
g317
atp484
Rp485
sVrequir
p486
g237
((lp487
g317
atp488
Rp489
sVrements
p490
g237
((lp491
g317
atp492
Rp493
sVrequire
p494
g237
((lp495
g317
atp496
Rp497
sVements
p498
g237
((lp499
g317
atp500
Rp501
sVrequirem
p502
g237
((lp503
g317
atp504
Rp505
sVments
p506
g237
((lp507
g317
atp508
Rp509
sVrequireme
p510
g237
((lp511
g317
atp512
Rp513
sVents
p514
g237
((lp515
g317
atp516
Rp517
sVrequiremen
p518
g237
((lp519
g317
atp520
Rp521
sVnts
p522
g237
((lp523
g317
atp524
Rp525
sVrequirement
p526
g237
((lp527
g317
atp528
Rp529
sVts
p530
g237
((lp531
g317
atp532
Rp533
sVs
p534
g237
((lp535
g317
atp536
Rp537
sVdocument
p538
g237
((lp539
Vef2006ca7e9047e7a704d3aa396edf38
p540
atp541
Rp542
sVd
p543
g237
((lp544
g317
atp545
Rp546
sVdo
p547
g237
((lp548
g317
atp549
Rp550
sVocument
p551
g237
((lp552
g317
atp553
Rp554
sVdoc
p555
g237
((lp556
g317
atp557
Rp558
sVcument
p559
g237
((lp560
g317
atp561
Rp562
sVdocu
p563
g237
((lp564
g317
atp565
Rp566
sVument
p567
g237
((lp568
g317
atp569
Rp570
sVdocum
p571
g237
((lp572
g317
atp573
Rp574
sVment
p575
g237
((lp576
g317
atp577
Rp578
sVdocume
p579
g237
((lp580
g317
atp581
Rp582
sVent
p583
g237
((lp584
g317
atp585
Rp586
sVdocumen
p587
g237
((lp588
g317
atp589
Rp590
sVnt
p591
g237
((lp592
g317
atp593
Rp594
sVt
p595
g237
((lp596
g317
atp597
Rp598
sVpromotion
p599
g237
((lp600
Vef2006ca7e9047e7a704d3aa396edf38
p601
atp602
Rp603
sVpr
p604
g237
((lp605
g317
atp606
Rp607
sVromotion
p608
g237
((lp609
g317
atp610
Rp611
sVpro
p612
g237
((lp613
g317
atp614
Rp615
sVomotion
p616
g237
((lp617
g317
atp618
Rp619
sVprom
p620
g237
((lp621
g317
atp622
Rp623
sVmotion
p624
g237
((lp625
g317
atp626
Rp627
sVpromo
p628
g237
((lp629
g317
atp630
Rp631
sVotion
p632
g237
((lp633
g317
atp634
Rp635
sVpromot
p636
g237
((lp637
g317
atp638
Rp639
sVtion
p640
g237
((lp641
g317
atp642
Rp643
sVpromoti
p644
g237
((lp645
g317
atp646
Rp647
sVion
p648
g237
((lp649
g317
atp650
Rp651
sVpromotio
p652
g237
((lp653
g317
atp654
Rp655
sVon
p656
g237
((lp657
g317
atp658
Rp659
sVn
p660
g237
((lp661
g317
atp662
Rp663
sVghost
p664
g237
((lp665
Vef2006ca7e9047e7a704d3aa396edf38
p666
atp667
Rp668
sVg
p669
g237
((lp670
g317
atp671
Rp672
sVgh
p673
g237
((lp674
g317
atp675
Rp676
sVhost
p677
g237
((lp678
g317
atp679
Rp680
sVgho
p681
g237
((lp682
g317
atp683
Rp684
sVost
p685
g237
((lp686
g317
atp687
Rp688
sVghos
p689
g237
((lp690
g317
atp691
Rp692
sVst
p693
g237
((lp694
g317
atp695
Rp696
sVchild
p697
g237
((lp698
Vef2006ca7e9047e7a704d3aa396edf38
p699
atp700
Rp701
sVc
p702
g237
((lp703
g317
atp704
Rp705
sVch
p706
g237
((lp707
g317
atp708
Rp709
sVhild
p710
g237
((lp711
g317
atp712
Rp713
sVchi
p714
g237
((lp715
g317
atp716
Rp717
sVild
p718
g237
((lp719
g317
atp720
Rp721
sVchil
p722
g237
((lp723
g317
atp724
Rp725
sVld
p726
g237
((lp727
g317
atp728
Rp729
sVactor
p730
g237
((lp731
Vef2006ca7e9047e7a704d3aa396edf38
p732
atp733
Rp734
sVa
p735
g237
((lp736
g317
atp737
Rp738
sVac
p739
g237
((lp740
g317
atp741
Rp742
sVctor
p743
g237
((lp744
g317
atp745
Rp746
sVact
p747
g237
((lp748
g317
atp749
Rp750
sVtor
p751
g237
((lp752
g317
atp753
Rp754
sVacto
p755
g237
((lp756
g317
atp757
Rp758
sVor
p759
g237
((lp760
g317
atp761
Rp762
sVdetailed
p763
g237
((lp764
Vef2006ca7e9047e7a704d3aa396edf38
p765
atp766
Rp767
sVde
p768
g237
((lp769
g317
atp770
Rp771
sVetailed
p772
g237
((lp773
g317
atp774
Rp775
sVdet
p776
g237
((lp777
g317
atp778
Rp779
sVtailed
p780
g237
((lp781
g317
atp782
Rp783
sVdeta
p784
g237
((lp785
g317
atp786
Rp787
sVailed
p788
g237
((lp789
g317
atp790
Rp791
sVdetai
p792
g237
((lp793
g317
atp794
Rp795
sViled
p796
g237
((lp797
g317
atp798
Rp799
sVdetail
p800
g237
((lp801
g317
atp802
Rp803
sVled
p804
g237
((lp805
g317
atp806
Rp807
sVdetaile
p808
g237
((lp809
g317
atp810
Rp811
sVed
p812
g237
((lp813
g317
atp814
Rp815
sVplanned
p816
g237
((lp817
Vef2006ca7e9047e7a704d3aa396edf38
p818
atp819
Rp820
sVlanned
p821
g237
((lp822
g317
atp823
Rp824
sVanned
p825
g237
((lp826
g317
atp827
Rp828
sVplan
p829
g237
((lp830
g317
atp831
Rp832
sVnned
p833
g237
((lp834
g317
atp835
Rp836
sVplann
p837
g237
((lp838
g317
atp839
Rp840
sVned
p841
g237
((lp842
g317
atp843
Rp844
sVplanne
p845
g237
((lp846
g317
atp847
Rp848
sVfor
p849
g237
((lp850
Vef2006ca7e9047e7a704d3aa396edf38
p851
atp852
Rp853
sVf
p854
g237
((lp855
g317
atp856
Rp857
sVfo
p858
g237
((lp859
g317
atp860
Rp861
sVbe
p862
g237
((lp863
Vef2006ca7e9047e7a704d3aa396edf38
p864
atp865
Rp866
sVb
p867
g237
((lp868
g317
atp869
Rp870
sVe
p871
g237
((lp872
g317
atp873
Rp874
sVfuture
p875
g237
((lp876
Vef2006ca7e9047e7a704d3aa396edf38
p877
atp878
Rp879
sVfu
p880
g237
((lp881
g317
atp882
Rp883
sVuture
p884
g237
((lp885
g317
atp886
Rp887
sVfut
p888
g237
((lp889
g317
atp890
Rp891
sVture
p892
g237
((lp893
g317
atp894
Rp895
sVfutu
p896
g237
((lp897
g317
atp898
Rp899
sVure
p900
g237
((lp901
g317
atp902
Rp903
sVfutur
p904
g237
((lp905
g317
atp906
Rp907
sVscope
p908
g237
((lp909
Vef2006ca7e9047e7a704d3aa396edf38
p910
atp911
Rp912
sVsc
p913
g237
((lp914
g317
atp915
Rp916
sVcope
p917
g237
((lp918
g317
atp919
Rp920
sVsco
p921
g237
((lp922
g317
atp923
Rp924
sVope
p925
g237
((lp926
g317
atp927
Rp928
sVscop
p929
g237
((lp930
g317
atp931
Rp932
sVpe
p933
g237
((lp934
g317
atp935
Rp936
sVfrom
p937
g237
((lp938
Vef2006ca7e9047e7a704d3aa396edf38
p939
atp940
Rp941
sVfr
p942
g237
((lp943
g317
atp944
Rp945
sVrom
p946
g237
((lp947
g317
atp948
Rp949
sVfro
p950
g237
((lp951
g317
atp952
Rp953
sVom
p954
g237
((lp955
g317
atp956
Rp957
sVm
p958
g237
((lp959
g317
atp960
Rp961
sVexpansion
p962
g237
((lp963
Vef2006ca7e9047e7a704d3aa396edf38
p964
atp965
Rp966
sVex
p967
g237
((lp968
g317
atp969
Rp970
sVxpansion
p971
g237
((lp972
g317
atp973
Rp974
sVexp
p975
g237
((lp976
g317
atp977
Rp978
sVpansion
p979
g237
((lp980
g317
atp981
Rp982
sVexpa
p983
g237
((lp984
g317
atp985
Rp986
sVansion
p987
g237
((lp988
g317
atp989
Rp990
sVexpan
p991
g237
((lp992
g317
atp993
Rp994
sVnsion
p995
g237
((lp996
g317
atp997
Rp998
sVexpans
p999
g237
((lp1000
g317
atp1001
Rp1002
sVsion
p1003
g237
((lp1004
g317
atp1005
Rp1006
sVexpansi
p1007
g237
((lp1008
g317
atp1009
Rp1010
sVexpansio
p1011
g237
((lp1012
g317
atp1013
Rp1014
sVactive
p1015
g237
((lp1016
Vef2006ca7e9047e7a704d3aa396edf38
p1017
atp1018
Rp1019
sVctive
p1020
g237
((lp1021
g317
atp1022
Rp1023
sVtive
p1024
g237
((lp1025
g317
atp1026
Rp1027
sVacti
p1028
g237
((lp1029
g317
atp1030
Rp1031
sVive
p1032
g237
((lp1033
g317
atp1034
Rp1035
sVactiv
p1036
g237
((lp1037
g317
atp1038
Rp1039
sVve
p1040
g237
((lp1041
g317
atp1042
Rp1043
sVghost2
p1044
g237
((lp1045
Vef2006ca7e9047e7a704d3aa396edf38
p1046
atp1047
Rp1048
sVhost2
p1049
g237
((lp1050
g317
atp1051
Rp1052
sVost2
p1053
g237
((lp1054
g317
atp1055
Rp1056
sVst2
p1057
g237
((lp1058
g317
atp1059
Rp1060
sVt2
p1061
g237
((lp1062
g317
atp1063
Rp1064
sV2
p1065
g237
((lp1066
g317
atp1067
Rp1068
sVbacklog
p1069
g237
((lp1070
Vef2006ca7e9047e7a704d3aa396edf38
p1071
atp1072
Rp1073
sVba
p1074
g237
((lp1075
g317
atp1076
Rp1077
sVacklog
p1078
g237
((lp1079
g317
atp1080
Rp1081
sVbac
p1082
g237
((lp1083
g317
atp1084
Rp1085
sVcklog
p1086
g237
((lp1087
g317
atp1088
Rp1089
sVback
p1090
g237
((lp1091
g317
atp1092
Rp1093
sVklog
p1094
g237
((lp1095
g317
atp1096
Rp1097
sVbackl
p1098
g237
((lp1099
g317
atp1100
Rp1101
sVlog
p1102
g237
((lp1103
g317
atp1104
Rp1105
sVbacklo
p1106
g237
((lp1107
g317
atp1108
Rp1109
sVog
p1110
g237
((lp1111
g317
atp1112
Rp1113
sVshall
p1114
g237
((lp1115
Vef2006ca7e9047e7a704d3aa396edf38
p1116
atp1117
Rp1118
sVsh
p1119
g237
((lp1120
g317
atp1121
Rp1122
sVhall
p1123
g237
((lp1124
g317
atp1125
Rp1126
sVsha
p1127
g237
((lp1128
g317
atp1129
Rp1130
sVall
p1131
g237
((lp1132
g317
atp1133
Rp1134
sVshal
p1135
g237
((lp1136
g317
atp1137
Rp1138
sVll
p1139
g237
((lp1140
g317
atp1141
Rp1142
sVl
p1143
g237
((lp1144
g317
atp1145
Rp1146
sVhard-rule
p1147
g237
((lp1148
Vef2006ca7e9047e7a704d3aa396edf38
p1149
atp1150
Rp1151
sVh
p1152
g237
((lp1153
g317
atp1154
Rp1155
sVha
p1156
g237
((lp1157
g317
atp1158
Rp1159
sVard-rule
p1160
g237
((lp1161
g317
atp1162
Rp1163
sVhar
p1164
g237
((lp1165
g317
atp1166
Rp1167
sVrd-rule
p1168
g237
((lp1169
g317
atp1170
Rp1171
sVhard
p1172
g237
((lp1173
g317
atp1174
Rp1175
sVd-rule
p1176
g237
((lp1177
g317
atp1178
Rp1179
sVhard-
p1180
g237
((lp1181
g317
atp1182
Rp1183
sV-rule
p1184
g237
((lp1185
g317
atp1186
Rp1187
sVhard-r
p1188
g237
((lp1189
g317
atp1190
Rp1191
sVrule
p1192
g237
((lp1193
g317
atp1194
Rp1195
sVhard-ru
p1196
g237
((lp1197
g317
atp1198
Rp1199
sVule
p1200
g237
((lp1201
g317
atp1202
Rp1203
sVhard-rul
p1204
g237
((lp1205
g317
atp1206
Rp1207
sVle
p1208
g237
((lp1209
g317
atp1210
Rp1211
sVnot
p1212
g237
((lp1213
Vef2006ca7e9047e7a704d3aa396edf38
p1214
atp1215
Rp1216
sVno
p1217
g237
((lp1218
g317
atp1219
Rp1220
sVot
p1221
g237
((lp1222
g317
atp1223
Rp1224
sVyet
p1225
g237
((lp1226
Vef2006ca7e9047e7a704d3aa396edf38
p1227
atp1228
Rp1229
sVy
p1230
g237
((lp1231
g317
atp1232
Rp1233
sVye
p1234
g237
((lp1235
g317
atp1236
Rp1237
sVet
p1238
g237
((lp1239
g317
atp1240
Rp1241
sVvision
p1242
g237
((lp1243
Vef2006ca7e9047e7a704d3aa396edf38
p1244
atp1245
Rp1246
sVv
p1247
g237
((lp1248
g317
atp1249
Rp1250
sVvi
p1251
g237
((lp1252
g317
atp1253
Rp1254
sVision
p1255
g237
((lp1256
g317
atp1257
Rp1258
sVvis
p1259
g237
((lp1260
g317
atp1261
Rp1262
sVvisi
p1263
g237
((lp1264
g317
atp1265
Rp1266
sVvisio
p1267
g237
((lp1268
g317
atp1269
Rp1270
sVatomic
p1271
g237
((lp1272
Vef2006ca7e9047e7a704d3aa396edf38
p1273
atp1274
Rp1275
sVat
p1276
g237
((lp1277
g317
atp1278
Rp1279
sVtomic
p1280
g237
((lp1281
g317
atp1282
Rp1283
sVato
p1284
g237
((lp1285
g317
atp1286
Rp1287
sVomic
p1288
g237
((lp1289
g317
atp1290
Rp1291
sVatom
p1292
g237
((lp1293
g317
atp1294
Rp1295
sVmic
p1296
g237
((lp1297
g317
atp1298
Rp1299
sVatomi
p1300
g237
((lp1301
g317
atp1302
Rp1303
sVic
p1304
g237
((lp1305
g317
atp1306
Rp1307
sVhuman
p1308
g237
((lp1309
Vef2006ca7e9047e7a704d3aa396edf38
p1310
atp1311
Rp1312
sVhu
p1313
g237
((lp1314
g317
atp1315
Rp1316
sVuman
p1317
g237
((lp1318
g317
atp1319
Rp1320
sVhum
p1321
g237
((lp1322
g317
atp1323
Rp1324
sVman
p1325
g237
((lp1326
g317
atp1327
Rp1328
sVhuma
p1329
g237
((lp1330
g317
atp1331
Rp1332
sVan
p1333
g237
((lp1334
g317
atp1335
Rp1336
sVafter
p1337
g237
((lp1338
Vef2006ca7e9047e7a704d3aa396edf38
p1339
atp1340
Rp1341
sVaf
p1342
g237
((lp1343
g317
atp1344
Rp1345
sVfter
p1346
g237
((lp1347
g317
atp1348
Rp1349
sVaft
p1350
g237
((lp1351
g317
atp1352
Rp1353
sVter
p1354
g237
((lp1355
g317
atp1356
Rp1357
sVafte
p1358
g237
((lp1359
g317
atp1360
Rp1361
sVand
p1362
g237
((lp1363
Vef2006ca7e9047e7a704d3aa396edf38
p1364
atp1365
Rp1366
sVnd
p1367
g237
((lp1368
g317
atp1369
Rp1370
sVtool
p1371
g237
((lp1372
Vef2006ca7e9047e7a704d3aa396edf38
p1373
atp1374
Rp1375
sVto
p1376
g237
((lp1377
g317
atp1378
Rp1379
sVool
p1380
g237
((lp1381
g317
atp1382
Rp1383
sVtoo
p1384
g237
((lp1385
g317
atp1386
Rp1387
sVol
p1388
g237
((lp1389
g317
atp1390
Rp1391
sVapproval
p1392
g237
((lp1393
Vef2006ca7e9047e7a704d3aa396edf38
p1394
atp1395
Rp1396
sVap
p1397
g237
((lp1398
g317
atp1399
Rp1400
sVpproval
p1401
g237
((lp1402
g317
atp1403
Rp1404
sVapp
p1405
g237
((lp1406
g317
atp1407
Rp1408
sVproval
p1409
g237
((lp1410
g317
atp1411
Rp1412
sVappr
p1413
g237
((lp1414
g317
atp1415
Rp1416
sVroval
p1417
g237
((lp1418
g317
atp1419
Rp1420
sVappro
p1421
g237
((lp1422
g317
atp1423
Rp1424
sVoval
p1425
g237
((lp1426
g317
atp1427
Rp1428
sVapprov
p1429
g237
((lp1430
g317
atp1431
Rp1432
sVval
p1433
g237
((lp1434
g317
atp1435
Rp1436
sVapprova
p1437
g237
((lp1438
g317
atp1439
Rp1440
sVal
p1441
g237
((lp1442
g317
atp1443
Rp1444
sVinto
p1445
g237
((lp1446
Vef2006ca7e9047e7a704d3aa396edf38
p1447
atp1448
Rp1449
sVi
p1450
g237
((lp1451
g317
atp1452
Rp1453
sVin
p1454
g237
((lp1455
g317
atp1456
Rp1457
sVnto
p1458
g237
((lp1459
g317
atp1460
Rp1461
sVint
p1462
g237
((lp1463
g317
atp1464
Rp1465
sVo
p1466
g237
((lp1467
g317
atp1468
Rp1469
sVboundary
p1470
g237
((lp1471
Vef2006ca7e9047e7a704d3aa396edf38
p1472
atp1473
Rp1474
sVbo
p1475
g237
((lp1476
g317
atp1477
Rp1478
sVoundary
p1479
g237
((lp1480
g317
atp1481
Rp1482
sVbou
p1483
g237
((lp1484
g317
atp1485
Rp1486
sVundary
p1487
g237
((lp1488
g317
atp1489
Rp1490
sVboun
p1491
g237
((lp1492
g317
atp1493
Rp1494
sVndary
p1495
g237
((lp1496
g317
atp1497
Rp1498
sVbound
p1499
g237
((lp1500
g317
atp1501
Rp1502
sVdary
p1503
g237
((lp1504
g317
atp1505
Rp1506
sVbounda
p1507
g237
((lp1508
g317
atp1509
Rp1510
sVary
p1511
g237
((lp1512
g317
atp1513
Rp1514
sVboundar
p1515
g237
((lp1516
g317
atp1517
Rp1518
sVry
p1519
g237
((lp1520
g317
atp1521
Rp1522
sVrouting
p1523
g237
((lp1524
Vef2006ca7e9047e7a704d3aa396edf38
p1525
atp1526
Rp1527
sVro
p1528
g237
((lp1529
g317
atp1530
Rp1531
sVouting
p1532
g237
((lp1533
g317
atp1534
Rp1535
sVrou
p1536
g237
((lp1537
g317
atp1538
Rp1539
sVuting
p1540
g237
((lp1541
g317
atp1542
Rp1543
sVrout
p1544
g237
((lp1545
g317
atp1546
Rp1547
sVting
p1548
g237
((lp1549
g317
atp1550
Rp1551
sVrouti
p1552
g237
((lp1553
g317
atp1554
Rp1555
sVing
p1556
g237
((lp1557
g317
atp1558
Rp1559
sVroutin
p1560
g237
((lp1561
g317
atp1562
Rp1563
sVng
p1564
g237
((lp1565
g317
atp1566
Rp1567
sVonly
p1568
g237
((lp1569
Vef2006ca7e9047e7a704d3aa396edf38
p1570
atp1571
Rp1572
sVnly
p1573
g237
((lp1574
g317
atp1575
Rp1576
sVonl
p1577
g237
((lp1578
g317
atp1579
Rp1580
sVly
p1581
g237
((lp1582
g317
atp1583
Rp1584
sVblackboard
p1585
g237
((lp1586
Vef2006ca7e9047e7a704d3aa396edf38
p1587
atp1588
Rp1589
sVbl
p1590
g237
((lp1591
g317
atp1592
Rp1593
sVlackboard
p1594
g237
((lp1595
g317
atp1596
Rp1597
sVbla
p1598
g237
((lp1599
g317
atp1600
Rp1601
sVackboard
p1602
g237
((lp1603
g317
atp1604
Rp1605
sVblac
p1606
g237
((lp1607
g317
atp1608
Rp1609
sVckboard
p1610
g237
((lp1611
g317
atp1612
Rp1613
sVblack
p1614
g237
((lp1615
g317
atp1616
Rp1617
sVkboard
p1618
g237
((lp1619
g317
atp1620
Rp1621
sVblackb
p1622
g237
((lp1623
g317
atp1624
Rp1625
sVboard
p1626
g237
((lp1627
g317
atp1628
Rp1629
sVblackbo
p1630
g237
((lp1631
g317
atp1632
Rp1633
sVoard
p1634
g237
((lp1635
g317
atp1636
Rp1637
sVblackboa
p1638
g237
((lp1639
g317
atp1640
Rp1641
sVard
p1642
g237
((lp1643
g317
atp1644
Rp1645
sVblackboar
p1646
g237
((lp1647
g317
atp1648
Rp1649
sVrd
p1650
g237
((lp1651
g317
atp1652
Rp1653
sVthis
p1654
g237
((lp1655
Vef2006ca7e9047e7a704d3aa396edf38
p1656
atp1657
Rp1658
sVth
p1659
g237
((lp1660
g317
atp1661
Rp1662
sVhis
p1663
g237
((lp1664
g317
atp1665
Rp1666
sVthi
p1667
g237
((lp1668
g317
atp1669
Rp1670
sVis
p1671
g237
((lp1672
g317
atp1673
Rp1674
sVlater
p1675
g237
((lp1676
Vef2006ca7e9047e7a704d3aa396edf38
p1677
atp1678
Rp1679
sVla
p1680
g237
((lp1681
g317
atp1682
Rp1683
sVater
p1684
g237
((lp1685
g317
atp1686
Rp1687
sVlat
p1688
g237
((lp1689
g317
atp1690
Rp1691
sVlate
p1692
g237
((lp1693
g317
atp1694
Rp1695
sVitems
p1696
g237
((lp1697
Vef2006ca7e9047e7a704d3aa396edf38
p1698
atp1699
Rp1700
sVit
p1701
g237
((lp1702
g317
atp1703
Rp1704
sVtems
p1705
g237
((lp1706
g317
atp1707
Rp1708
sVite
p1709
g237
((lp1710
g317
atp1711
Rp1712
sVems
p1713
g237
((lp1714
g317
atp1715
Rp1716
sVitem
p1717
g237
((lp1718
g317
atp1719
Rp1720
sVms
p1721
g237
((lp1722
g317
atp1723
Rp1724
sVadded
p1725
g237
((lp1726
Vef2006ca7e9047e7a704d3aa396edf38
p1727
atp1728
Rp1729
sVad
p1730
g237
((lp1731
g317
atp1732
Rp1733
sVdded
p1734
g237
((lp1735
g317
atp1736
Rp1737
sVadd
p1738
g237
((lp1739
g317
atp1740
Rp1741
sVded
p1742
g237
((lp1743
g317
atp1744
Rp1745
sVadde
p1746
g237
((lp1747
g317
atp1748
Rp1749
sVmodel
p1750
g237
((lp1751
Vef2006ca7e9047e7a704d3aa396edf38
p1752
atp1753
Rp1754
sVmo
p1755
g237
((lp1756
g317
atp1757
Rp1758
sVodel
p1759
g237
((lp1760
g317
atp1761
Rp1762
sVmod
p1763
g237
((lp1764
g317
atp1765
Rp1766
sVdel
p1767
g237
((lp1768
g317
atp1769
Rp1770
sVmode
p1771
g237
((lp1772
g317
atp1773
Rp1774
sVel
p1775
g237
((lp1776
g317
atp1777
Rp1778
ssVmap_nodes_by_mid
p1779
(dp1780
V9d938761a0a147268f238df86f3d6598
p1781
(dp1782
VMID
p1783
V9d938761a0a147268f238df86f3d6598
p1784
sg259
g262
ssVef2006ca7e9047e7a704d3aa396edf38
p1785
(dp1786
g1783
Vef2006ca7e9047e7a704d3aa396edf38
p1787
sg281
g283
sssbsVng_source_content
p1788
Nsg323
I00
sV_tx_attrs
p1789
NsV_tx_peg_rule
p1790
Nsb.